(dp1
S'output'
p2
S"<type 'exceptions.SyntaxError'> Set: no tables selected"
p3
sS'layer'
p4
S'/home/wionel/Desktop/web2py/applications/music/controllers/default.py'
p5
sS'code'
p6
S'# -*- coding: utf-8 -*-\n# this file is released under public domain and you can use without limitations\n\n#########################################################################\n## This is a samples controller\n## - index is the default action of any application\n## - user is required for authentication and authorization\n## - download is for downloading files uploaded in the db (does streaming)\n## - call exposes all registered services (none by default)\n#########################################################################\n\n\ndef index():\n    if(auth.is_logged_in()):\n        id = auth.user_id\n        row=db(db.playlist.user_id==id).select().first()\n        if (str(row)=="None"):\n            response.flash = T("You do no have playlist configured!")\n            return dict(message=T(\'Wel-Come To IIIT Music Store !!\'),isloggedin=\'true\')\n        else:\n            songIds=row.songlist.split(",")\n            songs = [];\n            playlistName = row.name\n            for id in songIds:\n                songs.append(db(db.song.id==id).select().first())\n            pass  \n            message = \'Wel-Come To IIIT Music Store !!\'\n            \n            return dict(message=message ,isloggedin=\'true\', playlist_exist=\'true\', songs=songs, playlistName=playlistName,public_playlists= db(db.playlist.shared in [2,1]).select())\n            \n    else:\n           try :\n                row = db(db.playlist.user_id==request.args[0]).select().first()\n                songIds=row.songlist.split(",")\n                songs = []\n                playlistName = row.name\n                for id in songIds:\n                    songs.append(db(db.song.id==id).select().first())\n                pass\n                return dict(message=T(\'Wel-Come To IIIT Music Store !!\') ,isloggedin=\'true\', playlist_exist=\'true\', songs=songs, playlistName=playlistName,visitor=1)\n           except IndexError:\n                return dict(message=T(\'Wel-Come To IIIT Music Store !!\'),public_playlists= db(db.playlist.shared==2).select())\n           pass\n    pass\n    \ndef playlist():\n    message=T(\'Wel-Come To IIIT Music Store !!\');\n    if(auth.is_logged_in()):\n        user_id = auth.user_id\n        row=db(db.playlist.user_id == user_id).select().first()    \n        if (str(row)!="None"):\n            songs = []\n            p_songs = []\n            all_songs = db(db.song).select()  \n            playlist_name = row.name      \n            songIds = row.songlist.split(",")\n            for song in all_songs:\n                if str(song[\'id\']) not in songIds:\n                        songs.append(song)\n                pass\n            pass\n            for id in songIds:\n                p_songs.append(db(db.song.id==id).select().first())\n            pass \n            \n            shared=row.shared\n            \n            return dict(shared=shared,title="Edit Playlist",playlist_name=playlist_name,songlist=\',\'.join(songIds),message=message,isloggedin=\'true\',songs = db(db.song).select(),p_songs = p_songs)\n        else:\n            return dict(shared=0,title="Create Playlist",message=message,isloggedin=\'true\',songs=db(db.song).select())\n        pass\n    else:\n      redirect(URL(\'index\'))\n\ndef save():\n    user_id = auth.user_id\n    songlist = request.vars.songlist\n    shared = request.vars.shared\n    \n    row=db(db.playlist.user_id == user_id).select().first()   \n     \n    if (str(row)!="None"):\n        row.update_record(songlist=songlist,name=request.vars.playlist_name,shared=shared)\n        response.flash = T("Playlist updated succesfully!!")\n    else:\n        id = db.playlist.insert(user_id=user_id,songlist=songlist,name=request.vars.playlist_name)\n        if(id!=-1):\n            response.flash = T("Playlist created succesfully!!")\n        else:\n            response.flash = T("Error occured. PLease login again !!")\n        pass\n    pass\n    \n    redirect(URL(\'index\'))\n\ndef user():\n    """\n    exposes:\n    http://..../[app]/default/user/login\n    http://..../[app]/default/user/logout\n    http://..../[app]/default/user/register\n    http://..../[app]/default/user/profile\n    http://..../[app]/default/user/retrieve_password\n    http://..../[app]/default/user/change_password\n    use @auth.requires_login()\n        @auth.requires_membership(\'group name\')\n        @auth.requires_permission(\'read\',\'table name\',record_id)\n    to decorate functions that need access control\n    """\n    return dict(form=auth())\n\n\ndef download():\n    """\n    allows downloading of uploaded files\n    http://..../[app]/default/download/[filename]\n    """\n    return response.download(request, db)\n\n\ndef call():\n    """\n    exposes services. for example:\n    http://..../[app]/default/call/jsonrpc\n    decorate with @services.jsonrpc the functions to expose\n    supports xml, json, xmlrpc, jsonrpc, amfrpc, rss, csv\n    """\n    return service()\n\n\n@auth.requires_signature()\ndef data():\n    """\n    http://..../[app]/default/data/tables\n    http://..../[app]/default/data/create/[table]\n    http://..../[app]/default/data/read/[table]/[id]\n    http://..../[app]/default/data/update/[table]/[id]\n    http://..../[app]/default/data/delete/[table]/[id]\n    http://..../[app]/default/data/select/[table]\n    http://..../[app]/default/data/search/[table]\n    but URLs must be signed, i.e. linked with\n      A(\'table\',_href=URL(\'data/tables\',user_signature=True))\n    or with the signed load operator\n      LOAD(\'default\',\'data.load\',args=\'tables\',ajax=True,user_signature=True)\n    """\n    return dict(form=crud())\n\nresponse._vars=response._caller(index)\n'
p7
sS'snapshot'
p8
(dp9
S'exception'
p10
(dp11
S'__getslice__'
p12
S"<method-wrapper '__getslice__' of exceptions.SyntaxError object>"
p13
sS'text'
p14
S'None'
p15
sS'__str__'
p16
S"<method-wrapper '__str__' of exceptions.SyntaxError object>"
p17
sS'__reduce__'
p18
S'<built-in method __reduce__ of exceptions.SyntaxError object>'
p19
sS'__dict__'
p20
S'{}'
p21
sS'__sizeof__'
p22
S'<built-in method __sizeof__ of exceptions.SyntaxError object>'
p23
sS'__init__'
p24
S"<method-wrapper '__init__' of exceptions.SyntaxError object>"
p25
sS'__setattr__'
p26
S"<method-wrapper '__setattr__' of exceptions.SyntaxError object>"
p27
sS'__reduce_ex__'
p28
S'<built-in method __reduce_ex__ of exceptions.SyntaxError object>'
p29
sS'__new__'
p30
S'<built-in method __new__ of type object>'
p31
sS'__format__'
p32
S'<built-in method __format__ of exceptions.SyntaxError object>'
p33
sS'__class__'
p34
S"<type 'exceptions.SyntaxError'>"
p35
sS'filename'
p36
S'None'
p37
sS'lineno'
p38
S'None'
p39
sS'msg'
p40
S"'Set: no tables selected'"
p41
sS'__doc__'
p42
S"'Invalid syntax.'"
p43
sS'__getitem__'
p44
S"<method-wrapper '__getitem__' of exceptions.SyntaxError object>"
p45
sS'__setstate__'
p46
S'<built-in method __setstate__ of exceptions.SyntaxError object>'
p47
sS'__getattribute__'
p48
S"<method-wrapper '__getattribute__' of exceptions.SyntaxError object>"
p49
sS'print_file_and_line'
p50
S'None'
p51
sS'args'
p52
S"('Set: no tables selected',)"
p53
sS'__subclasshook__'
p54
S'<built-in method __subclasshook__ of type object>'
p55
sS'offset'
p56
S'None'
p57
sS'__unicode__'
p58
S'<built-in method __unicode__ of exceptions.SyntaxError object>'
p59
sS'__delattr__'
p60
S"<method-wrapper '__delattr__' of exceptions.SyntaxError object>"
p61
sS'__repr__'
p62
S"<method-wrapper '__repr__' of exceptions.SyntaxError object>"
p63
sS'__hash__'
p64
S"<method-wrapper '__hash__' of exceptions.SyntaxError object>"
p65
ssS'evalue'
p66
S'Set: no tables selected'
p67
sS'request'
p68
ccopy_reg
_reconstructor
p69
(cgluon.html
BEAUTIFY
p70
c__builtin__
object
p71
NtRp72
(dp73
S'attributes'
p74
(dp75
sS'components'
p76
(lp77
g69
(cgluon.html
TABLE
p78
g71
NtRp79
(dp80
g74
(dp81
S'level'
p82
I5
ssS'parent'
p83
Nsg76
(lp84
g69
(cgluon.html
TR
p85
g71
NtRp86
(dp87
g74
(dp88
sg83
g79
sg76
(lp89
g69
(cgluon.html
TD
p90
g71
NtRp91
(dp92
g74
(dp93
S'_style'
p94
S'font-weight:bold;vertical-align:top'
p95
ssg83
g86
sg76
(lp96
S'ajax'
p97
asbag69
(g90
g71
NtRp98
(dp99
g74
(dp100
S'_valign'
p101
S'top'
p102
ssg83
g86
sg76
(lp103
S':'
asbag69
(g90
g71
NtRp104
(dp105
g74
(dp106
sg83
g86
sg76
(lp107
g69
(g70
g71
NtRp108
(dp109
g74
(dp110
g82
I5
ssg83
g104
sg76
(lp111
S'False'
p112
asbasbasbag69
(g85
g71
NtRp113
(dp114
g74
(dp115
sg83
g79
sg76
(lp116
g69
(g90
g71
NtRp117
(dp118
g74
(dp119
g94
g95
ssg83
g113
sg76
(lp120
S'application'
p121
asbag69
(g90
g71
NtRp122
(dp123
g74
(dp124
g101
g102
ssg83
g113
sg76
(lp125
S':'
asbag69
(g90
g71
NtRp126
(dp127
g74
(dp128
sg83
g113
sg76
(lp129
g69
(g70
g71
NtRp130
(dp131
g74
(dp132
g82
I5
ssg83
g126
sg76
(lp133
S'music'
p134
asbasbasbag69
(g85
g71
NtRp135
(dp136
g74
(dp137
sg83
g79
sg76
(lp138
g69
(g90
g71
NtRp139
(dp140
g74
(dp141
g94
g95
ssg83
g135
sg76
(lp142
g52
asbag69
(g90
g71
NtRp143
(dp144
g74
(dp145
g101
g102
ssg83
g135
sg76
(lp146
S':'
asbag69
(g90
g71
NtRp147
(dp148
g74
(dp149
sg83
g135
sg76
(lp150
g69
(g70
g71
NtRp151
(dp152
g74
(dp153
g82
I5
ssg83
g147
sg76
(lp154
g69
(g78
g71
NtRp155
(dp156
g74
(dp157
g82
I4
ssg83
Nsg76
(lp158
sbasbasbasbag69
(g85
g71
NtRp159
(dp160
g74
(dp161
sg83
g79
sg76
(lp162
g69
(g90
g71
NtRp163
(dp164
g74
(dp165
g94
g95
ssg83
g159
sg76
(lp166
S'body'
p167
asbag69
(g90
g71
NtRp168
(dp169
g74
(dp170
g101
g102
ssg83
g159
sg76
(lp171
S':'
asbag69
(g90
g71
NtRp172
(dp173
g74
(dp174
sg83
g159
sg76
(lp175
g69
(g70
g71
NtRp176
(dp177
g74
(dp178
g82
I5
ssg83
g172
sg76
(lp179
S'<cStringIO.StringO object at 0x7f9758207810>'
p180
asbasbasbag69
(g85
g71
NtRp181
(dp182
g74
(dp183
sg83
g79
sg76
(lp184
g69
(g90
g71
NtRp185
(dp186
g74
(dp187
g94
g95
ssg83
g181
sg76
(lp188
S'cid'
p189
asbag69
(g90
g71
NtRp190
(dp191
g74
(dp192
g101
g102
ssg83
g181
sg76
(lp193
S':'
asbag69
(g90
g71
NtRp194
(dp195
g74
(dp196
sg83
g181
sg76
(lp197
g69
(g70
g71
NtRp198
(dp199
g74
(dp200
g82
I5
ssg83
g194
sg76
(lp201
S'None'
p202
asbasbasbag69
(g85
g71
NtRp203
(dp204
g74
(dp205
sg83
g79
sg76
(lp206
g69
(g90
g71
NtRp207
(dp208
g74
(dp209
g94
g95
ssg83
g203
sg76
(lp210
S'client'
p211
asbag69
(g90
g71
NtRp212
(dp213
g74
(dp214
g101
g102
ssg83
g203
sg76
(lp215
S':'
asbag69
(g90
g71
NtRp216
(dp217
g74
(dp218
sg83
g203
sg76
(lp219
g69
(g70
g71
NtRp220
(dp221
g74
(dp222
g82
I5
ssg83
g216
sg76
(lp223
S'127.0.0.1'
p224
asbasbasbag69
(g85
g71
NtRp225
(dp226
g74
(dp227
sg83
g79
sg76
(lp228
g69
(g90
g71
NtRp229
(dp230
g74
(dp231
g94
g95
ssg83
g225
sg76
(lp232
S'controller'
p233
asbag69
(g90
g71
NtRp234
(dp235
g74
(dp236
g101
g102
ssg83
g225
sg76
(lp237
S':'
asbag69
(g90
g71
NtRp238
(dp239
g74
(dp240
sg83
g225
sg76
(lp241
g69
(g70
g71
NtRp242
(dp243
g74
(dp244
g82
I5
ssg83
g238
sg76
(lp245
S'default'
p246
asbasbasbag69
(g85
g71
NtRp247
(dp248
g74
(dp249
sg83
g79
sg76
(lp250
g69
(g90
g71
NtRp251
(dp252
g74
(dp253
g94
g95
ssg83
g247
sg76
(lp254
S'cookies'
p255
asbag69
(g90
g71
NtRp256
(dp257
g74
(dp258
g101
g102
ssg83
g247
sg76
(lp259
S':'
asbag69
(g90
g71
NtRp260
(dp261
g74
(dp262
sg83
g247
sg76
(lp263
g69
(g70
g71
NtRp264
(dp265
g74
(dp266
g82
I5
ssg83
g260
sg76
(lp267
g69
(g78
g71
NtRp268
(dp269
g74
(dp270
g82
I4
ssg83
Nsg76
(lp271
g69
(g85
g71
NtRp272
(dp273
g74
(dp274
sg83
g268
sg76
(lp275
g69
(g90
g71
NtRp276
(dp277
g74
(dp278
g94
g95
ssg83
g272
sg76
(lp279
S'session_id_admin'
p280
asbag69
(g90
g71
NtRp281
(dp282
g74
(dp283
g101
g102
ssg83
g272
sg76
(lp284
S':'
asbag69
(g90
g71
NtRp285
(dp286
g74
(dp287
sg83
g272
sg76
(lp288
g69
(g70
g71
NtRp289
(dp290
g74
(dp291
g82
I4
ssg83
g285
sg76
(lp292
S'127.0.0.1-6cb5bd3c-9c74-49be-ba58-1dac4873690c'
p293
ag69
(g78
g71
NtRp294
(dp295
g74
(dp296
g82
I3
ssg83
Nsg76
(lp297
g69
(g85
g71
NtRp298
(dp299
g74
(dp300
sg83
g294
sg76
(lp301
g69
(g90
g71
NtRp302
(dp303
g74
(dp304
g94
g95
ssg83
g298
sg76
(lp305
S'comment'
p306
asbag69
(g90
g71
NtRp307
(dp308
g74
(dp309
g101
g102
ssg83
g298
sg76
(lp310
S':'
asbag69
(g90
g71
NtRp311
(dp312
g74
(dp313
sg83
g298
sg76
(lp314
g69
(g70
g71
NtRp315
(dp316
g74
(dp317
g82
I3
ssg83
g311
sg76
(lp318
S''
asbasbasbag69
(g85
g71
NtRp319
(dp320
g74
(dp321
sg83
g294
sg76
(lp322
g69
(g90
g71
NtRp323
(dp324
g74
(dp325
g94
g95
ssg83
g319
sg76
(lp326
S'domain'
p327
asbag69
(g90
g71
NtRp328
(dp329
g74
(dp330
g101
g102
ssg83
g319
sg76
(lp331
S':'
asbag69
(g90
g71
NtRp332
(dp333
g74
(dp334
sg83
g319
sg76
(lp335
g69
(g70
g71
NtRp336
(dp337
g74
(dp338
g82
I3
ssg83
g332
sg76
(lp339
S''
asbasbasbag69
(g85
g71
NtRp340
(dp341
g74
(dp342
sg83
g294
sg76
(lp343
g69
(g90
g71
NtRp344
(dp345
g74
(dp346
g94
g95
ssg83
g340
sg76
(lp347
S'expires'
p348
asbag69
(g90
g71
NtRp349
(dp350
g74
(dp351
g101
g102
ssg83
g340
sg76
(lp352
S':'
asbag69
(g90
g71
NtRp353
(dp354
g74
(dp355
sg83
g340
sg76
(lp356
g69
(g70
g71
NtRp357
(dp358
g74
(dp359
g82
I3
ssg83
g353
sg76
(lp360
S''
asbasbasbag69
(g85
g71
NtRp361
(dp362
g74
(dp363
sg83
g294
sg76
(lp364
g69
(g90
g71
NtRp365
(dp366
g74
(dp367
g94
g95
ssg83
g361
sg76
(lp368
S'httponly'
p369
asbag69
(g90
g71
NtRp370
(dp371
g74
(dp372
g101
g102
ssg83
g361
sg76
(lp373
S':'
asbag69
(g90
g71
NtRp374
(dp375
g74
(dp376
sg83
g361
sg76
(lp377
g69
(g70
g71
NtRp378
(dp379
g74
(dp380
g82
I3
ssg83
g374
sg76
(lp381
S''
asbasbasbag69
(g85
g71
NtRp382
(dp383
g74
(dp384
sg83
g294
sg76
(lp385
g69
(g90
g71
NtRp386
(dp387
g74
(dp388
g94
g95
ssg83
g382
sg76
(lp389
S'max-age'
p390
asbag69
(g90
g71
NtRp391
(dp392
g74
(dp393
g101
g102
ssg83
g382
sg76
(lp394
S':'
asbag69
(g90
g71
NtRp395
(dp396
g74
(dp397
sg83
g382
sg76
(lp398
g69
(g70
g71
NtRp399
(dp400
g74
(dp401
g82
I3
ssg83
g395
sg76
(lp402
S''
asbasbasbag69
(g85
g71
NtRp403
(dp404
g74
(dp405
sg83
g294
sg76
(lp406
g69
(g90
g71
NtRp407
(dp408
g74
(dp409
g94
g95
ssg83
g403
sg76
(lp410
S'path'
p411
asbag69
(g90
g71
NtRp412
(dp413
g74
(dp414
g101
g102
ssg83
g403
sg76
(lp415
S':'
asbag69
(g90
g71
NtRp416
(dp417
g74
(dp418
sg83
g403
sg76
(lp419
g69
(g70
g71
NtRp420
(dp421
g74
(dp422
g82
I3
ssg83
g416
sg76
(lp423
S''
asbasbasbag69
(g85
g71
NtRp424
(dp425
g74
(dp426
sg83
g294
sg76
(lp427
g69
(g90
g71
NtRp428
(dp429
g74
(dp430
g94
g95
ssg83
g424
sg76
(lp431
S'secure'
p432
asbag69
(g90
g71
NtRp433
(dp434
g74
(dp435
g101
g102
ssg83
g424
sg76
(lp436
S':'
asbag69
(g90
g71
NtRp437
(dp438
g74
(dp439
sg83
g424
sg76
(lp440
g69
(g70
g71
NtRp441
(dp442
g74
(dp443
g82
I3
ssg83
g437
sg76
(lp444
S''
asbasbasbag69
(g85
g71
NtRp445
(dp446
g74
(dp447
sg83
g294
sg76
(lp448
g69
(g90
g71
NtRp449
(dp450
g74
(dp451
g94
g95
ssg83
g445
sg76
(lp452
S'version'
p453
asbag69
(g90
g71
NtRp454
(dp455
g74
(dp456
g101
g102
ssg83
g445
sg76
(lp457
S':'
asbag69
(g90
g71
NtRp458
(dp459
g74
(dp460
sg83
g445
sg76
(lp461
g69
(g70
g71
NtRp462
(dp463
g74
(dp464
g82
I3
ssg83
g458
sg76
(lp465
S''
asbasbasbasbasbasbasbag69
(g85
g71
NtRp466
(dp467
g74
(dp468
sg83
g268
sg76
(lp469
g69
(g90
g71
NtRp470
(dp471
g74
(dp472
g94
g95
ssg83
g466
sg76
(lp473
S'session_id_music'
p474
asbag69
(g90
g71
NtRp475
(dp476
g74
(dp477
g101
g102
ssg83
g466
sg76
(lp478
S':'
asbag69
(g90
g71
NtRp479
(dp480
g74
(dp481
sg83
g466
sg76
(lp482
g69
(g70
g71
NtRp483
(dp484
g74
(dp485
g82
I4
ssg83
g479
sg76
(lp486
S'127.0.0.1-92da3b83-fed7-44df-b88a-33b15f1ac0a2'
p487
ag69
(g78
g71
NtRp488
(dp489
g74
(dp490
g82
I3
ssg83
Nsg76
(lp491
g69
(g85
g71
NtRp492
(dp493
g74
(dp494
sg83
g488
sg76
(lp495
g69
(g90
g71
NtRp496
(dp497
g74
(dp498
g94
g95
ssg83
g492
sg76
(lp499
g306
asbag69
(g90
g71
NtRp500
(dp501
g74
(dp502
g101
g102
ssg83
g492
sg76
(lp503
S':'
asbag69
(g90
g71
NtRp504
(dp505
g74
(dp506
sg83
g492
sg76
(lp507
g69
(g70
g71
NtRp508
(dp509
g74
(dp510
g82
I3
ssg83
g504
sg76
(lp511
S''
asbasbasbag69
(g85
g71
NtRp512
(dp513
g74
(dp514
sg83
g488
sg76
(lp515
g69
(g90
g71
NtRp516
(dp517
g74
(dp518
g94
g95
ssg83
g512
sg76
(lp519
g327
asbag69
(g90
g71
NtRp520
(dp521
g74
(dp522
g101
g102
ssg83
g512
sg76
(lp523
S':'
asbag69
(g90
g71
NtRp524
(dp525
g74
(dp526
sg83
g512
sg76
(lp527
g69
(g70
g71
NtRp528
(dp529
g74
(dp530
g82
I3
ssg83
g524
sg76
(lp531
S''
asbasbasbag69
(g85
g71
NtRp532
(dp533
g74
(dp534
sg83
g488
sg76
(lp535
g69
(g90
g71
NtRp536
(dp537
g74
(dp538
g94
g95
ssg83
g532
sg76
(lp539
g348
asbag69
(g90
g71
NtRp540
(dp541
g74
(dp542
g101
g102
ssg83
g532
sg76
(lp543
S':'
asbag69
(g90
g71
NtRp544
(dp545
g74
(dp546
sg83
g532
sg76
(lp547
g69
(g70
g71
NtRp548
(dp549
g74
(dp550
g82
I3
ssg83
g544
sg76
(lp551
S''
asbasbasbag69
(g85
g71
NtRp552
(dp553
g74
(dp554
sg83
g488
sg76
(lp555
g69
(g90
g71
NtRp556
(dp557
g74
(dp558
g94
g95
ssg83
g552
sg76
(lp559
g369
asbag69
(g90
g71
NtRp560
(dp561
g74
(dp562
g101
g102
ssg83
g552
sg76
(lp563
S':'
asbag69
(g90
g71
NtRp564
(dp565
g74
(dp566
sg83
g552
sg76
(lp567
g69
(g70
g71
NtRp568
(dp569
g74
(dp570
g82
I3
ssg83
g564
sg76
(lp571
S''
asbasbasbag69
(g85
g71
NtRp572
(dp573
g74
(dp574
sg83
g488
sg76
(lp575
g69
(g90
g71
NtRp576
(dp577
g74
(dp578
g94
g95
ssg83
g572
sg76
(lp579
g390
asbag69
(g90
g71
NtRp580
(dp581
g74
(dp582
g101
g102
ssg83
g572
sg76
(lp583
S':'
asbag69
(g90
g71
NtRp584
(dp585
g74
(dp586
sg83
g572
sg76
(lp587
g69
(g70
g71
NtRp588
(dp589
g74
(dp590
g82
I3
ssg83
g584
sg76
(lp591
S''
asbasbasbag69
(g85
g71
NtRp592
(dp593
g74
(dp594
sg83
g488
sg76
(lp595
g69
(g90
g71
NtRp596
(dp597
g74
(dp598
g94
g95
ssg83
g592
sg76
(lp599
g411
asbag69
(g90
g71
NtRp600
(dp601
g74
(dp602
g101
g102
ssg83
g592
sg76
(lp603
S':'
asbag69
(g90
g71
NtRp604
(dp605
g74
(dp606
sg83
g592
sg76
(lp607
g69
(g70
g71
NtRp608
(dp609
g74
(dp610
g82
I3
ssg83
g604
sg76
(lp611
S''
asbasbasbag69
(g85
g71
NtRp612
(dp613
g74
(dp614
sg83
g488
sg76
(lp615
g69
(g90
g71
NtRp616
(dp617
g74
(dp618
g94
g95
ssg83
g612
sg76
(lp619
g432
asbag69
(g90
g71
NtRp620
(dp621
g74
(dp622
g101
g102
ssg83
g612
sg76
(lp623
S':'
asbag69
(g90
g71
NtRp624
(dp625
g74
(dp626
sg83
g612
sg76
(lp627
g69
(g70
g71
NtRp628
(dp629
g74
(dp630
g82
I3
ssg83
g624
sg76
(lp631
S''
asbasbasbag69
(g85
g71
NtRp632
(dp633
g74
(dp634
sg83
g488
sg76
(lp635
g69
(g90
g71
NtRp636
(dp637
g74
(dp638
g94
g95
ssg83
g632
sg76
(lp639
g453
asbag69
(g90
g71
NtRp640
(dp641
g74
(dp642
g101
g102
ssg83
g632
sg76
(lp643
S':'
asbag69
(g90
g71
NtRp644
(dp645
g74
(dp646
sg83
g632
sg76
(lp647
g69
(g70
g71
NtRp648
(dp649
g74
(dp650
g82
I3
ssg83
g644
sg76
(lp651
S''
asbasbasbasbasbasbasbag69
(g85
g71
NtRp652
(dp653
g74
(dp654
sg83
g268
sg76
(lp655
g69
(g90
g71
NtRp656
(dp657
g74
(dp658
g94
g95
ssg83
g652
sg76
(lp659
S'session_id_welcome'
p660
asbag69
(g90
g71
NtRp661
(dp662
g74
(dp663
g101
g102
ssg83
g652
sg76
(lp664
S':'
asbag69
(g90
g71
NtRp665
(dp666
g74
(dp667
sg83
g652
sg76
(lp668
g69
(g70
g71
NtRp669
(dp670
g74
(dp671
g82
I4
ssg83
g665
sg76
(lp672
S'127.0.0.1-50b4ac8b-30e2-4595-8e62-85c587a388f4'
p673
ag69
(g78
g71
NtRp674
(dp675
g74
(dp676
g82
I3
ssg83
Nsg76
(lp677
g69
(g85
g71
NtRp678
(dp679
g74
(dp680
sg83
g674
sg76
(lp681
g69
(g90
g71
NtRp682
(dp683
g74
(dp684
g94
g95
ssg83
g678
sg76
(lp685
g306
asbag69
(g90
g71
NtRp686
(dp687
g74
(dp688
g101
g102
ssg83
g678
sg76
(lp689
S':'
asbag69
(g90
g71
NtRp690
(dp691
g74
(dp692
sg83
g678
sg76
(lp693
g69
(g70
g71
NtRp694
(dp695
g74
(dp696
g82
I3
ssg83
g690
sg76
(lp697
S''
asbasbasbag69
(g85
g71
NtRp698
(dp699
g74
(dp700
sg83
g674
sg76
(lp701
g69
(g90
g71
NtRp702
(dp703
g74
(dp704
g94
g95
ssg83
g698
sg76
(lp705
g327
asbag69
(g90
g71
NtRp706
(dp707
g74
(dp708
g101
g102
ssg83
g698
sg76
(lp709
S':'
asbag69
(g90
g71
NtRp710
(dp711
g74
(dp712
sg83
g698
sg76
(lp713
g69
(g70
g71
NtRp714
(dp715
g74
(dp716
g82
I3
ssg83
g710
sg76
(lp717
S''
asbasbasbag69
(g85
g71
NtRp718
(dp719
g74
(dp720
sg83
g674
sg76
(lp721
g69
(g90
g71
NtRp722
(dp723
g74
(dp724
g94
g95
ssg83
g718
sg76
(lp725
g348
asbag69
(g90
g71
NtRp726
(dp727
g74
(dp728
g101
g102
ssg83
g718
sg76
(lp729
S':'
asbag69
(g90
g71
NtRp730
(dp731
g74
(dp732
sg83
g718
sg76
(lp733
g69
(g70
g71
NtRp734
(dp735
g74
(dp736
g82
I3
ssg83
g730
sg76
(lp737
S''
asbasbasbag69
(g85
g71
NtRp738
(dp739
g74
(dp740
sg83
g674
sg76
(lp741
g69
(g90
g71
NtRp742
(dp743
g74
(dp744
g94
g95
ssg83
g738
sg76
(lp745
g369
asbag69
(g90
g71
NtRp746
(dp747
g74
(dp748
g101
g102
ssg83
g738
sg76
(lp749
S':'
asbag69
(g90
g71
NtRp750
(dp751
g74
(dp752
sg83
g738
sg76
(lp753
g69
(g70
g71
NtRp754
(dp755
g74
(dp756
g82
I3
ssg83
g750
sg76
(lp757
S''
asbasbasbag69
(g85
g71
NtRp758
(dp759
g74
(dp760
sg83
g674
sg76
(lp761
g69
(g90
g71
NtRp762
(dp763
g74
(dp764
g94
g95
ssg83
g758
sg76
(lp765
g390
asbag69
(g90
g71
NtRp766
(dp767
g74
(dp768
g101
g102
ssg83
g758
sg76
(lp769
S':'
asbag69
(g90
g71
NtRp770
(dp771
g74
(dp772
sg83
g758
sg76
(lp773
g69
(g70
g71
NtRp774
(dp775
g74
(dp776
g82
I3
ssg83
g770
sg76
(lp777
S''
asbasbasbag69
(g85
g71
NtRp778
(dp779
g74
(dp780
sg83
g674
sg76
(lp781
g69
(g90
g71
NtRp782
(dp783
g74
(dp784
g94
g95
ssg83
g778
sg76
(lp785
g411
asbag69
(g90
g71
NtRp786
(dp787
g74
(dp788
g101
g102
ssg83
g778
sg76
(lp789
S':'
asbag69
(g90
g71
NtRp790
(dp791
g74
(dp792
sg83
g778
sg76
(lp793
g69
(g70
g71
NtRp794
(dp795
g74
(dp796
g82
I3
ssg83
g790
sg76
(lp797
S''
asbasbasbag69
(g85
g71
NtRp798
(dp799
g74
(dp800
sg83
g674
sg76
(lp801
g69
(g90
g71
NtRp802
(dp803
g74
(dp804
g94
g95
ssg83
g798
sg76
(lp805
g432
asbag69
(g90
g71
NtRp806
(dp807
g74
(dp808
g101
g102
ssg83
g798
sg76
(lp809
S':'
asbag69
(g90
g71
NtRp810
(dp811
g74
(dp812
sg83
g798
sg76
(lp813
g69
(g70
g71
NtRp814
(dp815
g74
(dp816
g82
I3
ssg83
g810
sg76
(lp817
S''
asbasbasbag69
(g85
g71
NtRp818
(dp819
g74
(dp820
sg83
g674
sg76
(lp821
g69
(g90
g71
NtRp822
(dp823
g74
(dp824
g94
g95
ssg83
g818
sg76
(lp825
g453
asbag69
(g90
g71
NtRp826
(dp827
g74
(dp828
g101
g102
ssg83
g818
sg76
(lp829
S':'
asbag69
(g90
g71
NtRp830
(dp831
g74
(dp832
sg83
g818
sg76
(lp833
g69
(g70
g71
NtRp834
(dp835
g74
(dp836
g82
I3
ssg83
g830
sg76
(lp837
S''
asbasbasbasbasbasbasbasbasbasbasbag69
(g85
g71
NtRp838
(dp839
g74
(dp840
sg83
g79
sg76
(lp841
g69
(g90
g71
NtRp842
(dp843
g74
(dp844
g94
g95
ssg83
g838
sg76
(lp845
S'env'
p846
asbag69
(g90
g71
NtRp847
(dp848
g74
(dp849
g101
g102
ssg83
g838
sg76
(lp850
S':'
asbag69
(g90
g71
NtRp851
(dp852
g74
(dp853
sg83
g838
sg76
(lp854
g69
(g70
g71
NtRp855
(dp856
g74
(dp857
g82
I5
ssg83
g851
sg76
(lp858
g69
(g78
g71
NtRp859
(dp860
g74
(dp861
g82
I4
ssg83
Nsg76
(lp862
g69
(g85
g71
NtRp863
(dp864
g74
(dp865
sg83
g859
sg76
(lp866
g69
(g90
g71
NtRp867
(dp868
g74
(dp869
g94
g95
ssg83
g863
sg76
(lp870
S'app_folders'
p871
asbag69
(g90
g71
NtRp872
(dp873
g74
(dp874
g101
g102
ssg83
g863
sg76
(lp875
S':'
asbag69
(g90
g71
NtRp876
(dp877
g74
(dp878
sg83
g863
sg76
(lp879
g69
(g70
g71
NtRp880
(dp881
g74
(dp882
g82
I4
ssg83
g876
sg76
(lp883
S"set(['/home/wionel/Desktop/web2py/applications/admin/', '/home/wionel/Desktop/web2py/applications/welcome/', '/home/wionel/Desktop/web2py/applications/music/'])"
p884
asbasbasbag69
(g85
g71
NtRp885
(dp886
g74
(dp887
sg83
g859
sg76
(lp888
g69
(g90
g71
NtRp889
(dp890
g74
(dp891
g94
g95
ssg83
g885
sg76
(lp892
S'applications_parent'
p893
asbag69
(g90
g71
NtRp894
(dp895
g74
(dp896
g101
g102
ssg83
g885
sg76
(lp897
S':'
asbag69
(g90
g71
NtRp898
(dp899
g74
(dp900
sg83
g885
sg76
(lp901
g69
(g70
g71
NtRp902
(dp903
g74
(dp904
g82
I4
ssg83
g898
sg76
(lp905
S'/home/wionel/Desktop/web2py'
p906
asbasbasbag69
(g85
g71
NtRp907
(dp908
g74
(dp909
sg83
g859
sg76
(lp910
g69
(g90
g71
NtRp911
(dp912
g74
(dp913
g94
g95
ssg83
g907
sg76
(lp914
S'cmd_args'
p915
asbag69
(g90
g71
NtRp916
(dp917
g74
(dp918
g101
g102
ssg83
g907
sg76
(lp919
S':'
asbag69
(g90
g71
NtRp920
(dp921
g74
(dp922
sg83
g907
sg76
(lp923
g69
(g70
g71
NtRp924
(dp925
g74
(dp926
g82
I4
ssg83
g920
sg76
(lp927
g69
(g78
g71
NtRp928
(dp929
g74
(dp930
g82
I3
ssg83
Nsg76
(lp931
sbasbasbasbag69
(g85
g71
NtRp932
(dp933
g74
(dp934
sg83
g859
sg76
(lp935
g69
(g90
g71
NtRp936
(dp937
g74
(dp938
g94
g95
ssg83
g932
sg76
(lp939
S'cmd_options'
p940
asbag69
(g90
g71
NtRp941
(dp942
g74
(dp943
g101
g102
ssg83
g932
sg76
(lp944
S':'
asbag69
(g90
g71
NtRp945
(dp946
g74
(dp947
sg83
g932
sg76
(lp948
g69
(g70
g71
NtRp949
(dp950
g74
(dp951
g82
I4
ssg83
g945
sg76
(lp952
S"<Values at 0x1b69488: {'verbose': False, 'ip': '127.0.0.1', 'with_scheduler': False, 'ips': ['127.0.1.1'], 'shutdown_timeout': 5, 'taskbar': False, 'port': 8000, 'maxthreads': None, 'softcron': False, 'server_name': 'Rohan', 'bpython': False, 'nogui': False, 'pid_filename': 'httpserver.pid', 'extcron': False, 'runcron': False, 'run_system_tests': False, 'test': None, 'folder': '/home/wionel/Desktop/web2py', 'config': '', 'minthreads': None, 'winservice': '', 'shell': None, 'run': '', 'log_filename': 'httpserver.log', 'debuglevel': 30, 'args': [''], 'socket_timeout': 5, 'ssl_ca_certificate': None, 'scheduler': None, 'profiler_filename': None, 'ssl_private_key': '', 'scheduler_groups': None, 'password': '<ask>', 'request_queue_size': 5, 'ssl_certificate': '', 'cronjob': False, 'numthreads': None, 'quiet': False, 'interfaces': None, 'import_models': False, 'timeout': 10, 'plain': False, 'nobanner': False}>"
p953
asbasbasbag69
(g85
g71
NtRp954
(dp955
g74
(dp956
sg83
g859
sg76
(lp957
g69
(g90
g71
NtRp958
(dp959
g74
(dp960
g94
g95
ssg83
g954
sg76
(lp961
S'db_sessions'
p962
asbag69
(g90
g71
NtRp963
(dp964
g74
(dp965
g101
g102
ssg83
g954
sg76
(lp966
S':'
asbag69
(g90
g71
NtRp967
(dp968
g74
(dp969
sg83
g954
sg76
(lp970
g69
(g70
g71
NtRp971
(dp972
g74
(dp973
g82
I4
ssg83
g967
sg76
(lp974
S'set([])'
p975
asbasbasbag69
(g85
g71
NtRp976
(dp977
g74
(dp978
sg83
g859
sg76
(lp979
g69
(g90
g71
NtRp980
(dp981
g74
(dp982
g94
g95
ssg83
g976
sg76
(lp983
S'debugging'
p984
asbag69
(g90
g71
NtRp985
(dp986
g74
(dp987
g101
g102
ssg83
g976
sg76
(lp988
S':'
asbag69
(g90
g71
NtRp989
(dp990
g74
(dp991
sg83
g976
sg76
(lp992
g69
(g70
g71
NtRp993
(dp994
g74
(dp995
g82
I4
ssg83
g989
sg76
(lp996
g112
asbasbasbag69
(g85
g71
NtRp997
(dp998
g74
(dp999
sg83
g859
sg76
(lp1000
g69
(g90
g71
NtRp1001
(dp1002
g74
(dp1003
g94
g95
ssg83
g997
sg76
(lp1004
S'gluon_parent'
p1005
asbag69
(g90
g71
NtRp1006
(dp1007
g74
(dp1008
g101
g102
ssg83
g997
sg76
(lp1009
S':'
asbag69
(g90
g71
NtRp1010
(dp1011
g74
(dp1012
sg83
g997
sg76
(lp1013
g69
(g70
g71
NtRp1014
(dp1015
g74
(dp1016
g82
I4
ssg83
g1010
sg76
(lp1017
S'/home/wionel/Desktop/web2py'
p1018
asbasbasbag69
(g85
g71
NtRp1019
(dp1020
g74
(dp1021
sg83
g859
sg76
(lp1022
g69
(g90
g71
NtRp1023
(dp1024
g74
(dp1025
g94
g95
ssg83
g1019
sg76
(lp1026
S'http_accept'
p1027
asbag69
(g90
g71
NtRp1028
(dp1029
g74
(dp1030
g101
g102
ssg83
g1019
sg76
(lp1031
S':'
asbag69
(g90
g71
NtRp1032
(dp1033
g74
(dp1034
sg83
g1019
sg76
(lp1035
g69
(g70
g71
NtRp1036
(dp1037
g74
(dp1038
g82
I4
ssg83
g1032
sg76
(lp1039
S'text/html,application/xhtml+xml,application/xml;q=0.9,*/*;q=0.8'
p1040
asbasbasbag69
(g85
g71
NtRp1041
(dp1042
g74
(dp1043
sg83
g859
sg76
(lp1044
g69
(g90
g71
NtRp1045
(dp1046
g74
(dp1047
g94
g95
ssg83
g1041
sg76
(lp1048
S'http_accept_charset'
p1049
asbag69
(g90
g71
NtRp1050
(dp1051
g74
(dp1052
g101
g102
ssg83
g1041
sg76
(lp1053
S':'
asbag69
(g90
g71
NtRp1054
(dp1055
g74
(dp1056
sg83
g1041
sg76
(lp1057
g69
(g70
g71
NtRp1058
(dp1059
g74
(dp1060
g82
I4
ssg83
g1054
sg76
(lp1061
S'ISO-8859-1,utf-8;q=0.7,*;q=0.3'
p1062
asbasbasbag69
(g85
g71
NtRp1063
(dp1064
g74
(dp1065
sg83
g859
sg76
(lp1066
g69
(g90
g71
NtRp1067
(dp1068
g74
(dp1069
g94
g95
ssg83
g1063
sg76
(lp1070
S'http_accept_encoding'
p1071
asbag69
(g90
g71
NtRp1072
(dp1073
g74
(dp1074
g101
g102
ssg83
g1063
sg76
(lp1075
S':'
asbag69
(g90
g71
NtRp1076
(dp1077
g74
(dp1078
sg83
g1063
sg76
(lp1079
g69
(g70
g71
NtRp1080
(dp1081
g74
(dp1082
g82
I4
ssg83
g1076
sg76
(lp1083
S'gzip,deflate,sdch'
p1084
asbasbasbag69
(g85
g71
NtRp1085
(dp1086
g74
(dp1087
sg83
g859
sg76
(lp1088
g69
(g90
g71
NtRp1089
(dp1090
g74
(dp1091
g94
g95
ssg83
g1085
sg76
(lp1092
S'http_accept_language'
p1093
asbag69
(g90
g71
NtRp1094
(dp1095
g74
(dp1096
g101
g102
ssg83
g1085
sg76
(lp1097
S':'
asbag69
(g90
g71
NtRp1098
(dp1099
g74
(dp1100
sg83
g1085
sg76
(lp1101
g69
(g70
g71
NtRp1102
(dp1103
g74
(dp1104
g82
I4
ssg83
g1098
sg76
(lp1105
S'en-US,en;q=0.8'
p1106
asbasbasbag69
(g85
g71
NtRp1107
(dp1108
g74
(dp1109
sg83
g859
sg76
(lp1110
g69
(g90
g71
NtRp1111
(dp1112
g74
(dp1113
g94
g95
ssg83
g1107
sg76
(lp1114
S'http_cache_control'
p1115
asbag69
(g90
g71
NtRp1116
(dp1117
g74
(dp1118
g101
g102
ssg83
g1107
sg76
(lp1119
S':'
asbag69
(g90
g71
NtRp1120
(dp1121
g74
(dp1122
sg83
g1107
sg76
(lp1123
g69
(g70
g71
NtRp1124
(dp1125
g74
(dp1126
g82
I4
ssg83
g1120
sg76
(lp1127
S'max-age=0'
p1128
asbasbasbag69
(g85
g71
NtRp1129
(dp1130
g74
(dp1131
sg83
g859
sg76
(lp1132
g69
(g90
g71
NtRp1133
(dp1134
g74
(dp1135
g94
g95
ssg83
g1129
sg76
(lp1136
S'http_connection'
p1137
asbag69
(g90
g71
NtRp1138
(dp1139
g74
(dp1140
g101
g102
ssg83
g1129
sg76
(lp1141
S':'
asbag69
(g90
g71
NtRp1142
(dp1143
g74
(dp1144
sg83
g1129
sg76
(lp1145
g69
(g70
g71
NtRp1146
(dp1147
g74
(dp1148
g82
I4
ssg83
g1142
sg76
(lp1149
S'keep-alive'
p1150
asbasbasbag69
(g85
g71
NtRp1151
(dp1152
g74
(dp1153
sg83
g859
sg76
(lp1154
g69
(g90
g71
NtRp1155
(dp1156
g74
(dp1157
g94
g95
ssg83
g1151
sg76
(lp1158
S'http_cookie'
p1159
asbag69
(g90
g71
NtRp1160
(dp1161
g74
(dp1162
g101
g102
ssg83
g1151
sg76
(lp1163
S':'
asbag69
(g90
g71
NtRp1164
(dp1165
g74
(dp1166
sg83
g1151
sg76
(lp1167
g69
(g70
g71
NtRp1168
(dp1169
g74
(dp1170
g82
I4
ssg83
g1164
sg76
(lp1171
S'session_id_welcome=127.0.0.1-50b4ac8b-30e2-4595-8e62-85c587a388f4; session_id_music=127.0.0.1-92da3b83-fed7-44df-b88a-33b15f1ac0a2; session_id_admin=127.0.0.1-6cb5bd3c-9c74-49be-ba58-1dac4873690c'
p1172
asbasbasbag69
(g85
g71
NtRp1173
(dp1174
g74
(dp1175
sg83
g859
sg76
(lp1176
g69
(g90
g71
NtRp1177
(dp1178
g74
(dp1179
g94
g95
ssg83
g1173
sg76
(lp1180
S'http_host'
p1181
asbag69
(g90
g71
NtRp1182
(dp1183
g74
(dp1184
g101
g102
ssg83
g1173
sg76
(lp1185
S':'
asbag69
(g90
g71
NtRp1186
(dp1187
g74
(dp1188
sg83
g1173
sg76
(lp1189
g69
(g70
g71
NtRp1190
(dp1191
g74
(dp1192
g82
I4
ssg83
g1186
sg76
(lp1193
S'127.0.0.1:8000'
p1194
asbasbasbag69
(g85
g71
NtRp1195
(dp1196
g74
(dp1197
sg83
g859
sg76
(lp1198
g69
(g90
g71
NtRp1199
(dp1200
g74
(dp1201
g94
g95
ssg83
g1195
sg76
(lp1202
S'http_referer'
p1203
asbag69
(g90
g71
NtRp1204
(dp1205
g74
(dp1206
g101
g102
ssg83
g1195
sg76
(lp1207
S':'
asbag69
(g90
g71
NtRp1208
(dp1209
g74
(dp1210
sg83
g1195
sg76
(lp1211
g69
(g70
g71
NtRp1212
(dp1213
g74
(dp1214
g82
I4
ssg83
g1208
sg76
(lp1215
S'http://127.0.0.1:8000/music/default/playlist'
p1216
asbasbasbag69
(g85
g71
NtRp1217
(dp1218
g74
(dp1219
sg83
g859
sg76
(lp1220
g69
(g90
g71
NtRp1221
(dp1222
g74
(dp1223
g94
g95
ssg83
g1217
sg76
(lp1224
S'http_user_agent'
p1225
asbag69
(g90
g71
NtRp1226
(dp1227
g74
(dp1228
g101
g102
ssg83
g1217
sg76
(lp1229
S':'
asbag69
(g90
g71
NtRp1230
(dp1231
g74
(dp1232
sg83
g1217
sg76
(lp1233
g69
(g70
g71
NtRp1234
(dp1235
g74
(dp1236
g82
I4
ssg83
g1230
sg76
(lp1237
S'Mozilla/5.0 (X11; Linux x86_64) AppleWebKit/537.4 (KHTML, like Gecko) Chrome/22.0.1229.92 Safari/537.4'
p1238
asbasbasbag69
(g85
g71
NtRp1239
(dp1240
g74
(dp1241
sg83
g859
sg76
(lp1242
g69
(g90
g71
NtRp1243
(dp1244
g74
(dp1245
g94
g95
ssg83
g1239
sg76
(lp1246
S'is_jython'
p1247
asbag69
(g90
g71
NtRp1248
(dp1249
g74
(dp1250
g101
g102
ssg83
g1239
sg76
(lp1251
S':'
asbag69
(g90
g71
NtRp1252
(dp1253
g74
(dp1254
sg83
g1239
sg76
(lp1255
g69
(g70
g71
NtRp1256
(dp1257
g74
(dp1258
g82
I4
ssg83
g1252
sg76
(lp1259
g112
asbasbasbag69
(g85
g71
NtRp1260
(dp1261
g74
(dp1262
sg83
g859
sg76
(lp1263
g69
(g90
g71
NtRp1264
(dp1265
g74
(dp1266
g94
g95
ssg83
g1260
sg76
(lp1267
S'is_pypy'
p1268
asbag69
(g90
g71
NtRp1269
(dp1270
g74
(dp1271
g101
g102
ssg83
g1260
sg76
(lp1272
S':'
asbag69
(g90
g71
NtRp1273
(dp1274
g74
(dp1275
sg83
g1260
sg76
(lp1276
g69
(g70
g71
NtRp1277
(dp1278
g74
(dp1279
g82
I4
ssg83
g1273
sg76
(lp1280
g112
asbasbasbag69
(g85
g71
NtRp1281
(dp1282
g74
(dp1283
sg83
g859
sg76
(lp1284
g69
(g90
g71
NtRp1285
(dp1286
g74
(dp1287
g94
g95
ssg83
g1281
sg76
(lp1288
S'local_hosts'
p1289
asbag69
(g90
g71
NtRp1290
(dp1291
g74
(dp1292
g101
g102
ssg83
g1281
sg76
(lp1293
S':'
asbag69
(g90
g71
NtRp1294
(dp1295
g74
(dp1296
sg83
g1281
sg76
(lp1297
g69
(g70
g71
NtRp1298
(dp1299
g74
(dp1300
g82
I4
ssg83
g1294
sg76
(lp1301
g69
(g78
g71
NtRp1302
(dp1303
g74
(dp1304
g82
I3
ssg83
Nsg76
(lp1305
g69
(g85
g71
NtRp1306
(dp1307
g74
(dp1308
sg83
g1302
sg76
(lp1309
g69
(g90
g71
NtRp1310
(dp1311
g74
(dp1312
sg83
g1306
sg76
(lp1313
g69
(g70
g71
NtRp1314
(dp1315
g74
(dp1316
g82
I3
ssg83
g1310
sg76
(lp1317
S'127.0.0.1'
p1318
asbasbasbag69
(g85
g71
NtRp1319
(dp1320
g74
(dp1321
sg83
g1302
sg76
(lp1322
g69
(g90
g71
NtRp1323
(dp1324
g74
(dp1325
sg83
g1319
sg76
(lp1326
g69
(g70
g71
NtRp1327
(dp1328
g74
(dp1329
g82
I3
ssg83
g1323
sg76
(lp1330
S'::ffff:127.0.0.1'
p1331
asbasbasbag69
(g85
g71
NtRp1332
(dp1333
g74
(dp1334
sg83
g1302
sg76
(lp1335
g69
(g90
g71
NtRp1336
(dp1337
g74
(dp1338
sg83
g1332
sg76
(lp1339
g69
(g70
g71
NtRp1340
(dp1341
g74
(dp1342
g82
I3
ssg83
g1336
sg76
(lp1343
S'Rohan'
p1344
asbasbasbag69
(g85
g71
NtRp1345
(dp1346
g74
(dp1347
sg83
g1302
sg76
(lp1348
g69
(g90
g71
NtRp1349
(dp1350
g74
(dp1351
sg83
g1345
sg76
(lp1352
g69
(g70
g71
NtRp1353
(dp1354
g74
(dp1355
g82
I3
ssg83
g1349
sg76
(lp1356
S'Rohan'
p1357
asbasbasbag69
(g85
g71
NtRp1358
(dp1359
g74
(dp1360
sg83
g1302
sg76
(lp1361
g69
(g90
g71
NtRp1362
(dp1363
g74
(dp1364
sg83
g1358
sg76
(lp1365
g69
(g70
g71
NtRp1366
(dp1367
g74
(dp1368
g82
I3
ssg83
g1362
sg76
(lp1369
S'127.0.1.1'
p1370
asbasbasbasbasbasbasbag69
(g85
g71
NtRp1371
(dp1372
g74
(dp1373
sg83
g859
sg76
(lp1374
g69
(g90
g71
NtRp1375
(dp1376
g74
(dp1377
g94
g95
ssg83
g1371
sg76
(lp1378
S'path_info'
p1379
asbag69
(g90
g71
NtRp1380
(dp1381
g74
(dp1382
g101
g102
ssg83
g1371
sg76
(lp1383
S':'
asbag69
(g90
g71
NtRp1384
(dp1385
g74
(dp1386
sg83
g1371
sg76
(lp1387
g69
(g70
g71
NtRp1388
(dp1389
g74
(dp1390
g82
I4
ssg83
g1384
sg76
(lp1391
S'/music/default/index'
p1392
asbasbasbag69
(g85
g71
NtRp1393
(dp1394
g74
(dp1395
sg83
g859
sg76
(lp1396
g69
(g90
g71
NtRp1397
(dp1398
g74
(dp1399
g94
g95
ssg83
g1393
sg76
(lp1400
S'query_string'
p1401
asbag69
(g90
g71
NtRp1402
(dp1403
g74
(dp1404
g101
g102
ssg83
g1393
sg76
(lp1405
S':'
asbag69
(g90
g71
NtRp1406
(dp1407
g74
(dp1408
sg83
g1393
sg76
(lp1409
g69
(g70
g71
NtRp1410
(dp1411
g74
(dp1412
g82
I4
ssg83
g1406
sg76
(lp1413
S''
asbasbasbag69
(g85
g71
NtRp1414
(dp1415
g74
(dp1416
sg83
g859
sg76
(lp1417
g69
(g90
g71
NtRp1418
(dp1419
g74
(dp1420
g94
g95
ssg83
g1414
sg76
(lp1421
S'remote_addr'
p1422
asbag69
(g90
g71
NtRp1423
(dp1424
g74
(dp1425
g101
g102
ssg83
g1414
sg76
(lp1426
S':'
asbag69
(g90
g71
NtRp1427
(dp1428
g74
(dp1429
sg83
g1414
sg76
(lp1430
g69
(g70
g71
NtRp1431
(dp1432
g74
(dp1433
g82
I4
ssg83
g1427
sg76
(lp1434
g224
asbasbasbag69
(g85
g71
NtRp1435
(dp1436
g74
(dp1437
sg83
g859
sg76
(lp1438
g69
(g90
g71
NtRp1439
(dp1440
g74
(dp1441
g94
g95
ssg83
g1435
sg76
(lp1442
S'remote_port'
p1443
asbag69
(g90
g71
NtRp1444
(dp1445
g74
(dp1446
g101
g102
ssg83
g1435
sg76
(lp1447
S':'
asbag69
(g90
g71
NtRp1448
(dp1449
g74
(dp1450
sg83
g1435
sg76
(lp1451
g69
(g70
g71
NtRp1452
(dp1453
g74
(dp1454
g82
I4
ssg83
g1448
sg76
(lp1455
S'60660'
p1456
asbasbasbag69
(g85
g71
NtRp1457
(dp1458
g74
(dp1459
sg83
g859
sg76
(lp1460
g69
(g90
g71
NtRp1461
(dp1462
g74
(dp1463
g94
g95
ssg83
g1457
sg76
(lp1464
S'request_method'
p1465
asbag69
(g90
g71
NtRp1466
(dp1467
g74
(dp1468
g101
g102
ssg83
g1457
sg76
(lp1469
S':'
asbag69
(g90
g71
NtRp1470
(dp1471
g74
(dp1472
sg83
g1457
sg76
(lp1473
g69
(g70
g71
NtRp1474
(dp1475
g74
(dp1476
g82
I4
ssg83
g1470
sg76
(lp1477
S'GET'
p1478
asbasbasbag69
(g85
g71
NtRp1479
(dp1480
g74
(dp1481
sg83
g859
sg76
(lp1482
g69
(g90
g71
NtRp1483
(dp1484
g74
(dp1485
g94
g95
ssg83
g1479
sg76
(lp1486
S'request_uri'
p1487
asbag69
(g90
g71
NtRp1488
(dp1489
g74
(dp1490
g101
g102
ssg83
g1479
sg76
(lp1491
S':'
asbag69
(g90
g71
NtRp1492
(dp1493
g74
(dp1494
sg83
g1479
sg76
(lp1495
g69
(g70
g71
NtRp1496
(dp1497
g74
(dp1498
g82
I4
ssg83
g1492
sg76
(lp1499
g1392
asbasbasbag69
(g85
g71
NtRp1500
(dp1501
g74
(dp1502
sg83
g859
sg76
(lp1503
g69
(g90
g71
NtRp1504
(dp1505
g74
(dp1506
g94
g95
ssg83
g1500
sg76
(lp1507
S'script_name'
p1508
asbag69
(g90
g71
NtRp1509
(dp1510
g74
(dp1511
g101
g102
ssg83
g1500
sg76
(lp1512
S':'
asbag69
(g90
g71
NtRp1513
(dp1514
g74
(dp1515
sg83
g1500
sg76
(lp1516
g69
(g70
g71
NtRp1517
(dp1518
g74
(dp1519
g82
I4
ssg83
g1513
sg76
(lp1520
S''
asbasbasbag69
(g85
g71
NtRp1521
(dp1522
g74
(dp1523
sg83
g859
sg76
(lp1524
g69
(g90
g71
NtRp1525
(dp1526
g74
(dp1527
g94
g95
ssg83
g1521
sg76
(lp1528
S'server_name'
p1529
asbag69
(g90
g71
NtRp1530
(dp1531
g74
(dp1532
g101
g102
ssg83
g1521
sg76
(lp1533
S':'
asbag69
(g90
g71
NtRp1534
(dp1535
g74
(dp1536
sg83
g1521
sg76
(lp1537
g69
(g70
g71
NtRp1538
(dp1539
g74
(dp1540
g82
I4
ssg83
g1534
sg76
(lp1541
g1357
asbasbasbag69
(g85
g71
NtRp1542
(dp1543
g74
(dp1544
sg83
g859
sg76
(lp1545
g69
(g90
g71
NtRp1546
(dp1547
g74
(dp1548
g94
g95
ssg83
g1542
sg76
(lp1549
S'server_port'
p1550
asbag69
(g90
g71
NtRp1551
(dp1552
g74
(dp1553
g101
g102
ssg83
g1542
sg76
(lp1554
S':'
asbag69
(g90
g71
NtRp1555
(dp1556
g74
(dp1557
sg83
g1542
sg76
(lp1558
g69
(g70
g71
NtRp1559
(dp1560
g74
(dp1561
g82
I4
ssg83
g1555
sg76
(lp1562
S'8000'
p1563
asbasbasbag69
(g85
g71
NtRp1564
(dp1565
g74
(dp1566
sg83
g859
sg76
(lp1567
g69
(g90
g71
NtRp1568
(dp1569
g74
(dp1570
g94
g95
ssg83
g1564
sg76
(lp1571
S'server_protocol'
p1572
asbag69
(g90
g71
NtRp1573
(dp1574
g74
(dp1575
g101
g102
ssg83
g1564
sg76
(lp1576
S':'
asbag69
(g90
g71
NtRp1577
(dp1578
g74
(dp1579
sg83
g1564
sg76
(lp1580
g69
(g70
g71
NtRp1581
(dp1582
g74
(dp1583
g82
I4
ssg83
g1577
sg76
(lp1584
S'HTTP/1.1'
p1585
asbasbasbag69
(g85
g71
NtRp1586
(dp1587
g74
(dp1588
sg83
g859
sg76
(lp1589
g69
(g90
g71
NtRp1590
(dp1591
g74
(dp1592
g94
g95
ssg83
g1586
sg76
(lp1593
S'server_software'
p1594
asbag69
(g90
g71
NtRp1595
(dp1596
g74
(dp1597
g101
g102
ssg83
g1586
sg76
(lp1598
S':'
asbag69
(g90
g71
NtRp1599
(dp1600
g74
(dp1601
sg83
g1586
sg76
(lp1602
g69
(g70
g71
NtRp1603
(dp1604
g74
(dp1605
g82
I4
ssg83
g1599
sg76
(lp1606
S'Rocket 1.2.5'
p1607
asbasbasbag69
(g85
g71
NtRp1608
(dp1609
g74
(dp1610
sg83
g859
sg76
(lp1611
g69
(g90
g71
NtRp1612
(dp1613
g74
(dp1614
g94
g95
ssg83
g1608
sg76
(lp1615
S'web2py_path'
p1616
asbag69
(g90
g71
NtRp1617
(dp1618
g74
(dp1619
g101
g102
ssg83
g1608
sg76
(lp1620
S':'
asbag69
(g90
g71
NtRp1621
(dp1622
g74
(dp1623
sg83
g1608
sg76
(lp1624
g69
(g70
g71
NtRp1625
(dp1626
g74
(dp1627
g82
I4
ssg83
g1621
sg76
(lp1628
g906
asbasbasbag69
(g85
g71
NtRp1629
(dp1630
g74
(dp1631
sg83
g859
sg76
(lp1632
g69
(g90
g71
NtRp1633
(dp1634
g74
(dp1635
g94
g95
ssg83
g1629
sg76
(lp1636
S'web2py_version'
p1637
asbag69
(g90
g71
NtRp1638
(dp1639
g74
(dp1640
g101
g102
ssg83
g1629
sg76
(lp1641
S':'
asbag69
(g90
g71
NtRp1642
(dp1643
g74
(dp1644
sg83
g1629
sg76
(lp1645
g69
(g70
g71
NtRp1646
(dp1647
g74
(dp1648
g82
I4
ssg83
g1642
sg76
(lp1649
g69
(g78
g71
NtRp1650
(dp1651
g74
(dp1652
g82
I3
ssg83
Nsg76
(lp1653
g69
(g85
g71
NtRp1654
(dp1655
g74
(dp1656
sg83
g1650
sg76
(lp1657
g69
(g90
g71
NtRp1658
(dp1659
g74
(dp1660
sg83
g1654
sg76
(lp1661
g69
(g70
g71
NtRp1662
(dp1663
g74
(dp1664
g82
I3
ssg83
g1658
sg76
(lp1665
S'2'
asbasbasbag69
(g85
g71
NtRp1666
(dp1667
g74
(dp1668
sg83
g1650
sg76
(lp1669
g69
(g90
g71
NtRp1670
(dp1671
g74
(dp1672
sg83
g1666
sg76
(lp1673
g69
(g70
g71
NtRp1674
(dp1675
g74
(dp1676
g82
I3
ssg83
g1670
sg76
(lp1677
S'2'
asbasbasbag69
(g85
g71
NtRp1678
(dp1679
g74
(dp1680
sg83
g1650
sg76
(lp1681
g69
(g90
g71
NtRp1682
(dp1683
g74
(dp1684
sg83
g1678
sg76
(lp1685
g69
(g70
g71
NtRp1686
(dp1687
g74
(dp1688
g82
I3
ssg83
g1682
sg76
(lp1689
S'1'
asbasbasbag69
(g85
g71
NtRp1690
(dp1691
g74
(dp1692
sg83
g1650
sg76
(lp1693
g69
(g90
g71
NtRp1694
(dp1695
g74
(dp1696
sg83
g1690
sg76
(lp1697
g69
(g70
g71
NtRp1698
(dp1699
g74
(dp1700
g82
I3
ssg83
g1694
sg76
(lp1701
S'datetime.datetime(2012, 10, 21, 16, 57, 4)'
p1702
asbasbasbag69
(g85
g71
NtRp1703
(dp1704
g74
(dp1705
sg83
g1650
sg76
(lp1706
g69
(g90
g71
NtRp1707
(dp1708
g74
(dp1709
sg83
g1703
sg76
(lp1710
g69
(g70
g71
NtRp1711
(dp1712
g74
(dp1713
g82
I3
ssg83
g1707
sg76
(lp1714
S'stable'
p1715
asbasbasbasbasbasbasbag69
(g85
g71
NtRp1716
(dp1717
g74
(dp1718
sg83
g859
sg76
(lp1719
g69
(g90
g71
NtRp1720
(dp1721
g74
(dp1722
g94
g95
ssg83
g1716
sg76
(lp1723
S'wsgi_errors'
p1724
asbag69
(g90
g71
NtRp1725
(dp1726
g74
(dp1727
g101
g102
ssg83
g1716
sg76
(lp1728
S':'
asbag69
(g90
g71
NtRp1729
(dp1730
g74
(dp1731
sg83
g1716
sg76
(lp1732
g69
(g70
g71
NtRp1733
(dp1734
g74
(dp1735
g82
I4
ssg83
g1729
sg76
(lp1736
S"<open file '<stderr>', mode 'w' at 0x7f97a1c89270>"
p1737
asbasbasbag69
(g85
g71
NtRp1738
(dp1739
g74
(dp1740
sg83
g859
sg76
(lp1741
g69
(g90
g71
NtRp1742
(dp1743
g74
(dp1744
g94
g95
ssg83
g1738
sg76
(lp1745
S'wsgi_file_wrapper'
p1746
asbag69
(g90
g71
NtRp1747
(dp1748
g74
(dp1749
g101
g102
ssg83
g1738
sg76
(lp1750
S':'
asbag69
(g90
g71
NtRp1751
(dp1752
g74
(dp1753
sg83
g1738
sg76
(lp1754
g69
(g70
g71
NtRp1755
(dp1756
g74
(dp1757
g82
I4
ssg83
g1751
sg76
(lp1758
S'<class wsgiref.util.FileWrapper at 0x1ac1808>'
p1759
asbasbasbag69
(g85
g71
NtRp1760
(dp1761
g74
(dp1762
sg83
g859
sg76
(lp1763
g69
(g90
g71
NtRp1764
(dp1765
g74
(dp1766
g94
g95
ssg83
g1760
sg76
(lp1767
S'wsgi_input'
p1768
asbag69
(g90
g71
NtRp1769
(dp1770
g74
(dp1771
g101
g102
ssg83
g1760
sg76
(lp1772
S':'
asbag69
(g90
g71
NtRp1773
(dp1774
g74
(dp1775
sg83
g1760
sg76
(lp1776
g69
(g70
g71
NtRp1777
(dp1778
g74
(dp1779
g82
I4
ssg83
g1773
sg76
(lp1780
S'<socket._fileobject object at 0x7f975c1f18d0>'
p1781
asbasbasbag69
(g85
g71
NtRp1782
(dp1783
g74
(dp1784
sg83
g859
sg76
(lp1785
g69
(g90
g71
NtRp1786
(dp1787
g74
(dp1788
g94
g95
ssg83
g1782
sg76
(lp1789
S'wsgi_multiprocess'
p1790
asbag69
(g90
g71
NtRp1791
(dp1792
g74
(dp1793
g101
g102
ssg83
g1782
sg76
(lp1794
S':'
asbag69
(g90
g71
NtRp1795
(dp1796
g74
(dp1797
sg83
g1782
sg76
(lp1798
g69
(g70
g71
NtRp1799
(dp1800
g74
(dp1801
g82
I4
ssg83
g1795
sg76
(lp1802
g112
asbasbasbag69
(g85
g71
NtRp1803
(dp1804
g74
(dp1805
sg83
g859
sg76
(lp1806
g69
(g90
g71
NtRp1807
(dp1808
g74
(dp1809
g94
g95
ssg83
g1803
sg76
(lp1810
S'wsgi_multithread'
p1811
asbag69
(g90
g71
NtRp1812
(dp1813
g74
(dp1814
g101
g102
ssg83
g1803
sg76
(lp1815
S':'
asbag69
(g90
g71
NtRp1816
(dp1817
g74
(dp1818
sg83
g1803
sg76
(lp1819
g69
(g70
g71
NtRp1820
(dp1821
g74
(dp1822
g82
I4
ssg83
g1816
sg76
(lp1823
S'True'
p1824
asbasbasbag69
(g85
g71
NtRp1825
(dp1826
g74
(dp1827
sg83
g859
sg76
(lp1828
g69
(g90
g71
NtRp1829
(dp1830
g74
(dp1831
g94
g95
ssg83
g1825
sg76
(lp1832
S'wsgi_run_once'
p1833
asbag69
(g90
g71
NtRp1834
(dp1835
g74
(dp1836
g101
g102
ssg83
g1825
sg76
(lp1837
S':'
asbag69
(g90
g71
NtRp1838
(dp1839
g74
(dp1840
sg83
g1825
sg76
(lp1841
g69
(g70
g71
NtRp1842
(dp1843
g74
(dp1844
g82
I4
ssg83
g1838
sg76
(lp1845
g112
asbasbasbag69
(g85
g71
NtRp1846
(dp1847
g74
(dp1848
sg83
g859
sg76
(lp1849
g69
(g90
g71
NtRp1850
(dp1851
g74
(dp1852
g94
g95
ssg83
g1846
sg76
(lp1853
S'wsgi_url_scheme'
p1854
asbag69
(g90
g71
NtRp1855
(dp1856
g74
(dp1857
g101
g102
ssg83
g1846
sg76
(lp1858
S':'
asbag69
(g90
g71
NtRp1859
(dp1860
g74
(dp1861
sg83
g1846
sg76
(lp1862
g69
(g70
g71
NtRp1863
(dp1864
g74
(dp1865
g82
I4
ssg83
g1859
sg76
(lp1866
S'http'
p1867
asbasbasbag69
(g85
g71
NtRp1868
(dp1869
g74
(dp1870
sg83
g859
sg76
(lp1871
g69
(g90
g71
NtRp1872
(dp1873
g74
(dp1874
g94
g95
ssg83
g1868
sg76
(lp1875
S'wsgi_version'
p1876
asbag69
(g90
g71
NtRp1877
(dp1878
g74
(dp1879
g101
g102
ssg83
g1868
sg76
(lp1880
S':'
asbag69
(g90
g71
NtRp1881
(dp1882
g74
(dp1883
sg83
g1868
sg76
(lp1884
g69
(g70
g71
NtRp1885
(dp1886
g74
(dp1887
g82
I4
ssg83
g1881
sg76
(lp1888
g69
(g78
g71
NtRp1889
(dp1890
g74
(dp1891
g82
I3
ssg83
Nsg76
(lp1892
g69
(g85
g71
NtRp1893
(dp1894
g74
(dp1895
sg83
g1889
sg76
(lp1896
g69
(g90
g71
NtRp1897
(dp1898
g74
(dp1899
sg83
g1893
sg76
(lp1900
g69
(g70
g71
NtRp1901
(dp1902
g74
(dp1903
g82
I3
ssg83
g1897
sg76
(lp1904
S'1'
asbasbasbag69
(g85
g71
NtRp1905
(dp1906
g74
(dp1907
sg83
g1889
sg76
(lp1908
g69
(g90
g71
NtRp1909
(dp1910
g74
(dp1911
sg83
g1905
sg76
(lp1912
g69
(g70
g71
NtRp1913
(dp1914
g74
(dp1915
g82
I3
ssg83
g1909
sg76
(lp1916
S'0'
asbasbasbasbasbasbasbasbasbasbasbag69
(g85
g71
NtRp1917
(dp1918
g74
(dp1919
sg83
g79
sg76
(lp1920
g69
(g90
g71
NtRp1921
(dp1922
g74
(dp1923
g94
g95
ssg83
g1917
sg76
(lp1924
S'extension'
p1925
asbag69
(g90
g71
NtRp1926
(dp1927
g74
(dp1928
g101
g102
ssg83
g1917
sg76
(lp1929
S':'
asbag69
(g90
g71
NtRp1930
(dp1931
g74
(dp1932
sg83
g1917
sg76
(lp1933
g69
(g70
g71
NtRp1934
(dp1935
g74
(dp1936
g82
I5
ssg83
g1930
sg76
(lp1937
S'html'
p1938
asbasbasbag69
(g85
g71
NtRp1939
(dp1940
g74
(dp1941
sg83
g79
sg76
(lp1942
g69
(g90
g71
NtRp1943
(dp1944
g74
(dp1945
g94
g95
ssg83
g1939
sg76
(lp1946
S'folder'
p1947
asbag69
(g90
g71
NtRp1948
(dp1949
g74
(dp1950
g101
g102
ssg83
g1939
sg76
(lp1951
S':'
asbag69
(g90
g71
NtRp1952
(dp1953
g74
(dp1954
sg83
g1939
sg76
(lp1955
g69
(g70
g71
NtRp1956
(dp1957
g74
(dp1958
g82
I5
ssg83
g1952
sg76
(lp1959
S'/home/wionel/Desktop/web2py/applications/music/'
p1960
asbasbasbag69
(g85
g71
NtRp1961
(dp1962
g74
(dp1963
sg83
g79
sg76
(lp1964
g69
(g90
g71
NtRp1965
(dp1966
g74
(dp1967
g94
g95
ssg83
g1961
sg76
(lp1968
S'function'
p1969
asbag69
(g90
g71
NtRp1970
(dp1971
g74
(dp1972
g101
g102
ssg83
g1961
sg76
(lp1973
S':'
asbag69
(g90
g71
NtRp1974
(dp1975
g74
(dp1976
sg83
g1961
sg76
(lp1977
g69
(g70
g71
NtRp1978
(dp1979
g74
(dp1980
g82
I5
ssg83
g1974
sg76
(lp1981
S'index'
p1982
asbasbasbag69
(g85
g71
NtRp1983
(dp1984
g74
(dp1985
sg83
g79
sg76
(lp1986
g69
(g90
g71
NtRp1987
(dp1988
g74
(dp1989
g94
g95
ssg83
g1983
sg76
(lp1990
S'get_vars'
p1991
asbag69
(g90
g71
NtRp1992
(dp1993
g74
(dp1994
g101
g102
ssg83
g1983
sg76
(lp1995
S':'
asbag69
(g90
g71
NtRp1996
(dp1997
g74
(dp1998
sg83
g1983
sg76
(lp1999
g69
(g70
g71
NtRp2000
(dp2001
g74
(dp2002
g82
I5
ssg83
g1996
sg76
(lp2003
g69
(g78
g71
NtRp2004
(dp2005
g74
(dp2006
g82
I4
ssg83
Nsg76
(lp2007
sbasbasbasbag69
(g85
g71
NtRp2008
(dp2009
g74
(dp2010
sg83
g79
sg76
(lp2011
g69
(g90
g71
NtRp2012
(dp2013
g74
(dp2014
g94
g95
ssg83
g2008
sg76
(lp2015
S'global_settings'
p2016
asbag69
(g90
g71
NtRp2017
(dp2018
g74
(dp2019
g101
g102
ssg83
g2008
sg76
(lp2020
S':'
asbag69
(g90
g71
NtRp2021
(dp2022
g74
(dp2023
sg83
g2008
sg76
(lp2024
g69
(g70
g71
NtRp2025
(dp2026
g74
(dp2027
g82
I5
ssg83
g2021
sg76
(lp2028
g69
(g78
g71
NtRp2029
(dp2030
g74
(dp2031
g82
I4
ssg83
Nsg76
(lp2032
g69
(g85
g71
NtRp2033
(dp2034
g74
(dp2035
sg83
g2029
sg76
(lp2036
g69
(g90
g71
NtRp2037
(dp2038
g74
(dp2039
g94
g95
ssg83
g2033
sg76
(lp2040
g871
asbag69
(g90
g71
NtRp2041
(dp2042
g74
(dp2043
g101
g102
ssg83
g2033
sg76
(lp2044
S':'
asbag69
(g90
g71
NtRp2045
(dp2046
g74
(dp2047
sg83
g2033
sg76
(lp2048
g69
(g70
g71
NtRp2049
(dp2050
g74
(dp2051
g82
I4
ssg83
g2045
sg76
(lp2052
S"set(['/home/wionel/Desktop/web2py/applications/admin/', '/home/wionel/Desktop/web2py/applications/welcome/', '/home/wionel/Desktop/web2py/applications/music/'])"
p2053
asbasbasbag69
(g85
g71
NtRp2054
(dp2055
g74
(dp2056
sg83
g2029
sg76
(lp2057
g69
(g90
g71
NtRp2058
(dp2059
g74
(dp2060
g94
g95
ssg83
g2054
sg76
(lp2061
g893
asbag69
(g90
g71
NtRp2062
(dp2063
g74
(dp2064
g101
g102
ssg83
g2054
sg76
(lp2065
S':'
asbag69
(g90
g71
NtRp2066
(dp2067
g74
(dp2068
sg83
g2054
sg76
(lp2069
g69
(g70
g71
NtRp2070
(dp2071
g74
(dp2072
g82
I4
ssg83
g2066
sg76
(lp2073
g906
asbasbasbag69
(g85
g71
NtRp2074
(dp2075
g74
(dp2076
sg83
g2029
sg76
(lp2077
g69
(g90
g71
NtRp2078
(dp2079
g74
(dp2080
g94
g95
ssg83
g2074
sg76
(lp2081
g915
asbag69
(g90
g71
NtRp2082
(dp2083
g74
(dp2084
g101
g102
ssg83
g2074
sg76
(lp2085
S':'
asbag69
(g90
g71
NtRp2086
(dp2087
g74
(dp2088
sg83
g2074
sg76
(lp2089
g69
(g70
g71
NtRp2090
(dp2091
g74
(dp2092
g82
I4
ssg83
g2086
sg76
(lp2093
g69
(g78
g71
NtRp2094
(dp2095
g74
(dp2096
g82
I3
ssg83
Nsg76
(lp2097
sbasbasbasbag69
(g85
g71
NtRp2098
(dp2099
g74
(dp2100
sg83
g2029
sg76
(lp2101
g69
(g90
g71
NtRp2102
(dp2103
g74
(dp2104
g94
g95
ssg83
g2098
sg76
(lp2105
g940
asbag69
(g90
g71
NtRp2106
(dp2107
g74
(dp2108
g101
g102
ssg83
g2098
sg76
(lp2109
S':'
asbag69
(g90
g71
NtRp2110
(dp2111
g74
(dp2112
sg83
g2098
sg76
(lp2113
g69
(g70
g71
NtRp2114
(dp2115
g74
(dp2116
g82
I4
ssg83
g2110
sg76
(lp2117
S"<Values at 0x1b69488: {'verbose': False, 'ip': '127.0.0.1', 'with_scheduler': False, 'ips': ['127.0.1.1'], 'shutdown_timeout': 5, 'taskbar': False, 'port': 8000, 'maxthreads': None, 'softcron': False, 'server_name': 'Rohan', 'bpython': False, 'nogui': False, 'pid_filename': 'httpserver.pid', 'extcron': False, 'runcron': False, 'run_system_tests': False, 'test': None, 'folder': '/home/wionel/Desktop/web2py', 'config': '', 'minthreads': None, 'winservice': '', 'shell': None, 'run': '', 'log_filename': 'httpserver.log', 'debuglevel': 30, 'args': [''], 'socket_timeout': 5, 'ssl_ca_certificate': None, 'scheduler': None, 'profiler_filename': None, 'ssl_private_key': '', 'scheduler_groups': None, 'password': '<ask>', 'request_queue_size': 5, 'ssl_certificate': '', 'cronjob': False, 'numthreads': None, 'quiet': False, 'interfaces': None, 'import_models': False, 'timeout': 10, 'plain': False, 'nobanner': False}>"
p2118
asbasbasbag69
(g85
g71
NtRp2119
(dp2120
g74
(dp2121
sg83
g2029
sg76
(lp2122
g69
(g90
g71
NtRp2123
(dp2124
g74
(dp2125
g94
g95
ssg83
g2119
sg76
(lp2126
g962
asbag69
(g90
g71
NtRp2127
(dp2128
g74
(dp2129
g101
g102
ssg83
g2119
sg76
(lp2130
S':'
asbag69
(g90
g71
NtRp2131
(dp2132
g74
(dp2133
sg83
g2119
sg76
(lp2134
g69
(g70
g71
NtRp2135
(dp2136
g74
(dp2137
g82
I4
ssg83
g2131
sg76
(lp2138
S'set([])'
p2139
asbasbasbag69
(g85
g71
NtRp2140
(dp2141
g74
(dp2142
sg83
g2029
sg76
(lp2143
g69
(g90
g71
NtRp2144
(dp2145
g74
(dp2146
g94
g95
ssg83
g2140
sg76
(lp2147
g984
asbag69
(g90
g71
NtRp2148
(dp2149
g74
(dp2150
g101
g102
ssg83
g2140
sg76
(lp2151
S':'
asbag69
(g90
g71
NtRp2152
(dp2153
g74
(dp2154
sg83
g2140
sg76
(lp2155
g69
(g70
g71
NtRp2156
(dp2157
g74
(dp2158
g82
I4
ssg83
g2152
sg76
(lp2159
g112
asbasbasbag69
(g85
g71
NtRp2160
(dp2161
g74
(dp2162
sg83
g2029
sg76
(lp2163
g69
(g90
g71
NtRp2164
(dp2165
g74
(dp2166
g94
g95
ssg83
g2160
sg76
(lp2167
g1005
asbag69
(g90
g71
NtRp2168
(dp2169
g74
(dp2170
g101
g102
ssg83
g2160
sg76
(lp2171
S':'
asbag69
(g90
g71
NtRp2172
(dp2173
g74
(dp2174
sg83
g2160
sg76
(lp2175
g69
(g70
g71
NtRp2176
(dp2177
g74
(dp2178
g82
I4
ssg83
g2172
sg76
(lp2179
g1018
asbasbasbag69
(g85
g71
NtRp2180
(dp2181
g74
(dp2182
sg83
g2029
sg76
(lp2183
g69
(g90
g71
NtRp2184
(dp2185
g74
(dp2186
g94
g95
ssg83
g2180
sg76
(lp2187
g1247
asbag69
(g90
g71
NtRp2188
(dp2189
g74
(dp2190
g101
g102
ssg83
g2180
sg76
(lp2191
S':'
asbag69
(g90
g71
NtRp2192
(dp2193
g74
(dp2194
sg83
g2180
sg76
(lp2195
g69
(g70
g71
NtRp2196
(dp2197
g74
(dp2198
g82
I4
ssg83
g2192
sg76
(lp2199
g112
asbasbasbag69
(g85
g71
NtRp2200
(dp2201
g74
(dp2202
sg83
g2029
sg76
(lp2203
g69
(g90
g71
NtRp2204
(dp2205
g74
(dp2206
g94
g95
ssg83
g2200
sg76
(lp2207
g1268
asbag69
(g90
g71
NtRp2208
(dp2209
g74
(dp2210
g101
g102
ssg83
g2200
sg76
(lp2211
S':'
asbag69
(g90
g71
NtRp2212
(dp2213
g74
(dp2214
sg83
g2200
sg76
(lp2215
g69
(g70
g71
NtRp2216
(dp2217
g74
(dp2218
g82
I4
ssg83
g2212
sg76
(lp2219
g112
asbasbasbag69
(g85
g71
NtRp2220
(dp2221
g74
(dp2222
sg83
g2029
sg76
(lp2223
g69
(g90
g71
NtRp2224
(dp2225
g74
(dp2226
g94
g95
ssg83
g2220
sg76
(lp2227
g1289
asbag69
(g90
g71
NtRp2228
(dp2229
g74
(dp2230
g101
g102
ssg83
g2220
sg76
(lp2231
S':'
asbag69
(g90
g71
NtRp2232
(dp2233
g74
(dp2234
sg83
g2220
sg76
(lp2235
g69
(g70
g71
NtRp2236
(dp2237
g74
(dp2238
g82
I4
ssg83
g2232
sg76
(lp2239
g69
(g78
g71
NtRp2240
(dp2241
g74
(dp2242
g82
I3
ssg83
Nsg76
(lp2243
g69
(g85
g71
NtRp2244
(dp2245
g74
(dp2246
sg83
g2240
sg76
(lp2247
g69
(g90
g71
NtRp2248
(dp2249
g74
(dp2250
sg83
g2244
sg76
(lp2251
g69
(g70
g71
NtRp2252
(dp2253
g74
(dp2254
g82
I3
ssg83
g2248
sg76
(lp2255
g1318
asbasbasbag69
(g85
g71
NtRp2256
(dp2257
g74
(dp2258
sg83
g2240
sg76
(lp2259
g69
(g90
g71
NtRp2260
(dp2261
g74
(dp2262
sg83
g2256
sg76
(lp2263
g69
(g70
g71
NtRp2264
(dp2265
g74
(dp2266
g82
I3
ssg83
g2260
sg76
(lp2267
g1331
asbasbasbag69
(g85
g71
NtRp2268
(dp2269
g74
(dp2270
sg83
g2240
sg76
(lp2271
g69
(g90
g71
NtRp2272
(dp2273
g74
(dp2274
sg83
g2268
sg76
(lp2275
g69
(g70
g71
NtRp2276
(dp2277
g74
(dp2278
g82
I3
ssg83
g2272
sg76
(lp2279
g1344
asbasbasbag69
(g85
g71
NtRp2280
(dp2281
g74
(dp2282
sg83
g2240
sg76
(lp2283
g69
(g90
g71
NtRp2284
(dp2285
g74
(dp2286
sg83
g2280
sg76
(lp2287
g69
(g70
g71
NtRp2288
(dp2289
g74
(dp2290
g82
I3
ssg83
g2284
sg76
(lp2291
g1357
asbasbasbag69
(g85
g71
NtRp2292
(dp2293
g74
(dp2294
sg83
g2240
sg76
(lp2295
g69
(g90
g71
NtRp2296
(dp2297
g74
(dp2298
sg83
g2292
sg76
(lp2299
g69
(g70
g71
NtRp2300
(dp2301
g74
(dp2302
g82
I3
ssg83
g2296
sg76
(lp2303
g1370
asbasbasbasbasbasbasbag69
(g85
g71
NtRp2304
(dp2305
g74
(dp2306
sg83
g2029
sg76
(lp2307
g69
(g90
g71
NtRp2308
(dp2309
g74
(dp2310
g94
g95
ssg83
g2304
sg76
(lp2311
g1637
asbag69
(g90
g71
NtRp2312
(dp2313
g74
(dp2314
g101
g102
ssg83
g2304
sg76
(lp2315
S':'
asbag69
(g90
g71
NtRp2316
(dp2317
g74
(dp2318
sg83
g2304
sg76
(lp2319
g69
(g70
g71
NtRp2320
(dp2321
g74
(dp2322
g82
I4
ssg83
g2316
sg76
(lp2323
g69
(g78
g71
NtRp2324
(dp2325
g74
(dp2326
g82
I3
ssg83
Nsg76
(lp2327
g69
(g85
g71
NtRp2328
(dp2329
g74
(dp2330
sg83
g2324
sg76
(lp2331
g69
(g90
g71
NtRp2332
(dp2333
g74
(dp2334
sg83
g2328
sg76
(lp2335
g69
(g70
g71
NtRp2336
(dp2337
g74
(dp2338
g82
I3
ssg83
g2332
sg76
(lp2339
S'2'
asbasbasbag69
(g85
g71
NtRp2340
(dp2341
g74
(dp2342
sg83
g2324
sg76
(lp2343
g69
(g90
g71
NtRp2344
(dp2345
g74
(dp2346
sg83
g2340
sg76
(lp2347
g69
(g70
g71
NtRp2348
(dp2349
g74
(dp2350
g82
I3
ssg83
g2344
sg76
(lp2351
S'2'
asbasbasbag69
(g85
g71
NtRp2352
(dp2353
g74
(dp2354
sg83
g2324
sg76
(lp2355
g69
(g90
g71
NtRp2356
(dp2357
g74
(dp2358
sg83
g2352
sg76
(lp2359
g69
(g70
g71
NtRp2360
(dp2361
g74
(dp2362
g82
I3
ssg83
g2356
sg76
(lp2363
S'1'
asbasbasbag69
(g85
g71
NtRp2364
(dp2365
g74
(dp2366
sg83
g2324
sg76
(lp2367
g69
(g90
g71
NtRp2368
(dp2369
g74
(dp2370
sg83
g2364
sg76
(lp2371
g69
(g70
g71
NtRp2372
(dp2373
g74
(dp2374
g82
I3
ssg83
g2368
sg76
(lp2375
S'datetime.datetime(2012, 10, 21, 16, 57, 4)'
p2376
asbasbasbag69
(g85
g71
NtRp2377
(dp2378
g74
(dp2379
sg83
g2324
sg76
(lp2380
g69
(g90
g71
NtRp2381
(dp2382
g74
(dp2383
sg83
g2377
sg76
(lp2384
g69
(g70
g71
NtRp2385
(dp2386
g74
(dp2387
g82
I3
ssg83
g2381
sg76
(lp2388
g1715
asbasbasbasbasbasbasbasbasbasbasbag69
(g85
g71
NtRp2389
(dp2390
g74
(dp2391
sg83
g79
sg76
(lp2392
g69
(g90
g71
NtRp2393
(dp2394
g74
(dp2395
g94
g95
ssg83
g2389
sg76
(lp2396
S'is_https'
p2397
asbag69
(g90
g71
NtRp2398
(dp2399
g74
(dp2400
g101
g102
ssg83
g2389
sg76
(lp2401
S':'
asbag69
(g90
g71
NtRp2402
(dp2403
g74
(dp2404
sg83
g2389
sg76
(lp2405
g69
(g70
g71
NtRp2406
(dp2407
g74
(dp2408
g82
I5
ssg83
g2402
sg76
(lp2409
g112
asbasbasbag69
(g85
g71
NtRp2410
(dp2411
g74
(dp2412
sg83
g79
sg76
(lp2413
g69
(g90
g71
NtRp2414
(dp2415
g74
(dp2416
g94
g95
ssg83
g2410
sg76
(lp2417
S'is_local'
p2418
asbag69
(g90
g71
NtRp2419
(dp2420
g74
(dp2421
g101
g102
ssg83
g2410
sg76
(lp2422
S':'
asbag69
(g90
g71
NtRp2423
(dp2424
g74
(dp2425
sg83
g2410
sg76
(lp2426
g69
(g70
g71
NtRp2427
(dp2428
g74
(dp2429
g82
I5
ssg83
g2423
sg76
(lp2430
g1824
asbasbasbag69
(g85
g71
NtRp2431
(dp2432
g74
(dp2433
sg83
g79
sg76
(lp2434
g69
(g90
g71
NtRp2435
(dp2436
g74
(dp2437
g94
g95
ssg83
g2431
sg76
(lp2438
S'is_restful'
p2439
asbag69
(g90
g71
NtRp2440
(dp2441
g74
(dp2442
g101
g102
ssg83
g2431
sg76
(lp2443
S':'
asbag69
(g90
g71
NtRp2444
(dp2445
g74
(dp2446
sg83
g2431
sg76
(lp2447
g69
(g70
g71
NtRp2448
(dp2449
g74
(dp2450
g82
I5
ssg83
g2444
sg76
(lp2451
g112
asbasbasbag69
(g85
g71
NtRp2452
(dp2453
g74
(dp2454
sg83
g79
sg76
(lp2455
g69
(g90
g71
NtRp2456
(dp2457
g74
(dp2458
g94
g95
ssg83
g2452
sg76
(lp2459
S'now'
p2460
asbag69
(g90
g71
NtRp2461
(dp2462
g74
(dp2463
g101
g102
ssg83
g2452
sg76
(lp2464
S':'
asbag69
(g90
g71
NtRp2465
(dp2466
g74
(dp2467
sg83
g2452
sg76
(lp2468
g69
(g70
g71
NtRp2469
(dp2470
g74
(dp2471
g82
I5
ssg83
g2465
sg76
(lp2472
S'datetime.datetime(2012, 11, 16, 10, 49, 43, 632247)'
p2473
asbasbasbag69
(g85
g71
NtRp2474
(dp2475
g74
(dp2476
sg83
g79
sg76
(lp2477
g69
(g90
g71
NtRp2478
(dp2479
g74
(dp2480
g94
g95
ssg83
g2474
sg76
(lp2481
S'post_vars'
p2482
asbag69
(g90
g71
NtRp2483
(dp2484
g74
(dp2485
g101
g102
ssg83
g2474
sg76
(lp2486
S':'
asbag69
(g90
g71
NtRp2487
(dp2488
g74
(dp2489
sg83
g2474
sg76
(lp2490
g69
(g70
g71
NtRp2491
(dp2492
g74
(dp2493
g82
I5
ssg83
g2487
sg76
(lp2494
g69
(g78
g71
NtRp2495
(dp2496
g74
(dp2497
g82
I4
ssg83
Nsg76
(lp2498
sbasbasbasbag69
(g85
g71
NtRp2499
(dp2500
g74
(dp2501
sg83
g79
sg76
(lp2502
g69
(g90
g71
NtRp2503
(dp2504
g74
(dp2505
g94
g95
ssg83
g2499
sg76
(lp2506
S'raw_args'
p2507
asbag69
(g90
g71
NtRp2508
(dp2509
g74
(dp2510
g101
g102
ssg83
g2499
sg76
(lp2511
S':'
asbag69
(g90
g71
NtRp2512
(dp2513
g74
(dp2514
sg83
g2499
sg76
(lp2515
g69
(g70
g71
NtRp2516
(dp2517
g74
(dp2518
g82
I5
ssg83
g2512
sg76
(lp2519
S''
asbasbasbag69
(g85
g71
NtRp2520
(dp2521
g74
(dp2522
sg83
g79
sg76
(lp2523
g69
(g90
g71
NtRp2524
(dp2525
g74
(dp2526
g94
g95
ssg83
g2520
sg76
(lp2527
S'raw_extension'
p2528
asbag69
(g90
g71
NtRp2529
(dp2530
g74
(dp2531
g101
g102
ssg83
g2520
sg76
(lp2532
S':'
asbag69
(g90
g71
NtRp2533
(dp2534
g74
(dp2535
sg83
g2520
sg76
(lp2536
g69
(g70
g71
NtRp2537
(dp2538
g74
(dp2539
g82
I5
ssg83
g2533
sg76
(lp2540
S'None'
p2541
asbasbasbag69
(g85
g71
NtRp2542
(dp2543
g74
(dp2544
sg83
g79
sg76
(lp2545
g69
(g90
g71
NtRp2546
(dp2547
g74
(dp2548
g94
g95
ssg83
g2542
sg76
(lp2549
S'url'
p2550
asbag69
(g90
g71
NtRp2551
(dp2552
g74
(dp2553
g101
g102
ssg83
g2542
sg76
(lp2554
S':'
asbag69
(g90
g71
NtRp2555
(dp2556
g74
(dp2557
sg83
g2542
sg76
(lp2558
g69
(g70
g71
NtRp2559
(dp2560
g74
(dp2561
g82
I5
ssg83
g2555
sg76
(lp2562
g1392
asbasbasbag69
(g85
g71
NtRp2563
(dp2564
g74
(dp2565
sg83
g79
sg76
(lp2566
g69
(g90
g71
NtRp2567
(dp2568
g74
(dp2569
g94
g95
ssg83
g2563
sg76
(lp2570
S'utcnow'
p2571
asbag69
(g90
g71
NtRp2572
(dp2573
g74
(dp2574
g101
g102
ssg83
g2563
sg76
(lp2575
S':'
asbag69
(g90
g71
NtRp2576
(dp2577
g74
(dp2578
sg83
g2563
sg76
(lp2579
g69
(g70
g71
NtRp2580
(dp2581
g74
(dp2582
g82
I5
ssg83
g2576
sg76
(lp2583
S'datetime.datetime(2012, 11, 16, 5, 19, 43, 632278)'
p2584
asbasbasbag69
(g85
g71
NtRp2585
(dp2586
g74
(dp2587
sg83
g79
sg76
(lp2588
g69
(g90
g71
NtRp2589
(dp2590
g74
(dp2591
g94
g95
ssg83
g2585
sg76
(lp2592
S'uuid'
p2593
asbag69
(g90
g71
NtRp2594
(dp2595
g74
(dp2596
g101
g102
ssg83
g2585
sg76
(lp2597
S':'
asbag69
(g90
g71
NtRp2598
(dp2599
g74
(dp2600
sg83
g2585
sg76
(lp2601
g69
(g70
g71
NtRp2602
(dp2603
g74
(dp2604
g82
I5
ssg83
g2598
sg76
(lp2605
S'music/127.0.0.1.2012-11-16.10-49-43.4787e7e5-cf2f-455a-ba6e-f442777b268c'
p2606
asbasbasbag69
(g85
g71
NtRp2607
(dp2608
g74
(dp2609
sg83
g79
sg76
(lp2610
g69
(g90
g71
NtRp2611
(dp2612
g74
(dp2613
g94
g95
ssg83
g2607
sg76
(lp2614
S'vars'
p2615
asbag69
(g90
g71
NtRp2616
(dp2617
g74
(dp2618
g101
g102
ssg83
g2607
sg76
(lp2619
S':'
asbag69
(g90
g71
NtRp2620
(dp2621
g74
(dp2622
sg83
g2607
sg76
(lp2623
g69
(g70
g71
NtRp2624
(dp2625
g74
(dp2626
g82
I5
ssg83
g2620
sg76
(lp2627
g69
(g78
g71
NtRp2628
(dp2629
g74
(dp2630
g82
I4
ssg83
Nsg76
(lp2631
sbasbasbasbag69
(g85
g71
NtRp2632
(dp2633
g74
(dp2634
sg83
g79
sg76
(lp2635
g69
(g90
g71
NtRp2636
(dp2637
g74
(dp2638
g94
g95
ssg83
g2632
sg76
(lp2639
S'wsgi'
p2640
asbag69
(g90
g71
NtRp2641
(dp2642
g74
(dp2643
g101
g102
ssg83
g2632
sg76
(lp2644
S':'
asbag69
(g90
g71
NtRp2645
(dp2646
g74
(dp2647
sg83
g2632
sg76
(lp2648
g69
(g70
g71
NtRp2649
(dp2650
g74
(dp2651
g82
I5
ssg83
g2645
sg76
(lp2652
g69
(g78
g71
NtRp2653
(dp2654
g74
(dp2655
g82
I4
ssg83
Nsg76
(lp2656
g69
(g85
g71
NtRp2657
(dp2658
g74
(dp2659
sg83
g2653
sg76
(lp2660
g69
(g90
g71
NtRp2661
(dp2662
g74
(dp2663
g94
g95
ssg83
g2657
sg76
(lp2664
S'environ'
p2665
asbag69
(g90
g71
NtRp2666
(dp2667
g74
(dp2668
g101
g102
ssg83
g2657
sg76
(lp2669
S':'
asbag69
(g90
g71
NtRp2670
(dp2671
g74
(dp2672
sg83
g2657
sg76
(lp2673
g69
(g70
g71
NtRp2674
(dp2675
g74
(dp2676
g82
I4
ssg83
g2670
sg76
(lp2677
g69
(g78
g71
NtRp2678
(dp2679
g74
(dp2680
g82
I3
ssg83
Nsg76
(lp2681
g69
(g85
g71
NtRp2682
(dp2683
g74
(dp2684
sg83
g2678
sg76
(lp2685
g69
(g90
g71
NtRp2686
(dp2687
g74
(dp2688
g94
g95
ssg83
g2682
sg76
(lp2689
S'HTTP_ACCEPT'
p2690
asbag69
(g90
g71
NtRp2691
(dp2692
g74
(dp2693
g101
g102
ssg83
g2682
sg76
(lp2694
S':'
asbag69
(g90
g71
NtRp2695
(dp2696
g74
(dp2697
sg83
g2682
sg76
(lp2698
g69
(g70
g71
NtRp2699
(dp2700
g74
(dp2701
g82
I3
ssg83
g2695
sg76
(lp2702
g1040
asbasbasbag69
(g85
g71
NtRp2703
(dp2704
g74
(dp2705
sg83
g2678
sg76
(lp2706
g69
(g90
g71
NtRp2707
(dp2708
g74
(dp2709
g94
g95
ssg83
g2703
sg76
(lp2710
S'HTTP_ACCEPT_CHARSET'
p2711
asbag69
(g90
g71
NtRp2712
(dp2713
g74
(dp2714
g101
g102
ssg83
g2703
sg76
(lp2715
S':'
asbag69
(g90
g71
NtRp2716
(dp2717
g74
(dp2718
sg83
g2703
sg76
(lp2719
g69
(g70
g71
NtRp2720
(dp2721
g74
(dp2722
g82
I3
ssg83
g2716
sg76
(lp2723
g1062
asbasbasbag69
(g85
g71
NtRp2724
(dp2725
g74
(dp2726
sg83
g2678
sg76
(lp2727
g69
(g90
g71
NtRp2728
(dp2729
g74
(dp2730
g94
g95
ssg83
g2724
sg76
(lp2731
S'HTTP_ACCEPT_ENCODING'
p2732
asbag69
(g90
g71
NtRp2733
(dp2734
g74
(dp2735
g101
g102
ssg83
g2724
sg76
(lp2736
S':'
asbag69
(g90
g71
NtRp2737
(dp2738
g74
(dp2739
sg83
g2724
sg76
(lp2740
g69
(g70
g71
NtRp2741
(dp2742
g74
(dp2743
g82
I3
ssg83
g2737
sg76
(lp2744
g1084
asbasbasbag69
(g85
g71
NtRp2745
(dp2746
g74
(dp2747
sg83
g2678
sg76
(lp2748
g69
(g90
g71
NtRp2749
(dp2750
g74
(dp2751
g94
g95
ssg83
g2745
sg76
(lp2752
S'HTTP_ACCEPT_LANGUAGE'
p2753
asbag69
(g90
g71
NtRp2754
(dp2755
g74
(dp2756
g101
g102
ssg83
g2745
sg76
(lp2757
S':'
asbag69
(g90
g71
NtRp2758
(dp2759
g74
(dp2760
sg83
g2745
sg76
(lp2761
g69
(g70
g71
NtRp2762
(dp2763
g74
(dp2764
g82
I3
ssg83
g2758
sg76
(lp2765
g1106
asbasbasbag69
(g85
g71
NtRp2766
(dp2767
g74
(dp2768
sg83
g2678
sg76
(lp2769
g69
(g90
g71
NtRp2770
(dp2771
g74
(dp2772
g94
g95
ssg83
g2766
sg76
(lp2773
S'HTTP_CACHE_CONTROL'
p2774
asbag69
(g90
g71
NtRp2775
(dp2776
g74
(dp2777
g101
g102
ssg83
g2766
sg76
(lp2778
S':'
asbag69
(g90
g71
NtRp2779
(dp2780
g74
(dp2781
sg83
g2766
sg76
(lp2782
g69
(g70
g71
NtRp2783
(dp2784
g74
(dp2785
g82
I3
ssg83
g2779
sg76
(lp2786
g1128
asbasbasbag69
(g85
g71
NtRp2787
(dp2788
g74
(dp2789
sg83
g2678
sg76
(lp2790
g69
(g90
g71
NtRp2791
(dp2792
g74
(dp2793
g94
g95
ssg83
g2787
sg76
(lp2794
S'HTTP_CONNECTION'
p2795
asbag69
(g90
g71
NtRp2796
(dp2797
g74
(dp2798
g101
g102
ssg83
g2787
sg76
(lp2799
S':'
asbag69
(g90
g71
NtRp2800
(dp2801
g74
(dp2802
sg83
g2787
sg76
(lp2803
g69
(g70
g71
NtRp2804
(dp2805
g74
(dp2806
g82
I3
ssg83
g2800
sg76
(lp2807
g1150
asbasbasbag69
(g85
g71
NtRp2808
(dp2809
g74
(dp2810
sg83
g2678
sg76
(lp2811
g69
(g90
g71
NtRp2812
(dp2813
g74
(dp2814
g94
g95
ssg83
g2808
sg76
(lp2815
S'HTTP_COOKIE'
p2816
asbag69
(g90
g71
NtRp2817
(dp2818
g74
(dp2819
g101
g102
ssg83
g2808
sg76
(lp2820
S':'
asbag69
(g90
g71
NtRp2821
(dp2822
g74
(dp2823
sg83
g2808
sg76
(lp2824
g69
(g70
g71
NtRp2825
(dp2826
g74
(dp2827
g82
I3
ssg83
g2821
sg76
(lp2828
g1172
asbasbasbag69
(g85
g71
NtRp2829
(dp2830
g74
(dp2831
sg83
g2678
sg76
(lp2832
g69
(g90
g71
NtRp2833
(dp2834
g74
(dp2835
g94
g95
ssg83
g2829
sg76
(lp2836
S'HTTP_HOST'
p2837
asbag69
(g90
g71
NtRp2838
(dp2839
g74
(dp2840
g101
g102
ssg83
g2829
sg76
(lp2841
S':'
asbag69
(g90
g71
NtRp2842
(dp2843
g74
(dp2844
sg83
g2829
sg76
(lp2845
g69
(g70
g71
NtRp2846
(dp2847
g74
(dp2848
g82
I3
ssg83
g2842
sg76
(lp2849
g1194
asbasbasbag69
(g85
g71
NtRp2850
(dp2851
g74
(dp2852
sg83
g2678
sg76
(lp2853
g69
(g90
g71
NtRp2854
(dp2855
g74
(dp2856
g94
g95
ssg83
g2850
sg76
(lp2857
S'HTTP_REFERER'
p2858
asbag69
(g90
g71
NtRp2859
(dp2860
g74
(dp2861
g101
g102
ssg83
g2850
sg76
(lp2862
S':'
asbag69
(g90
g71
NtRp2863
(dp2864
g74
(dp2865
sg83
g2850
sg76
(lp2866
g69
(g70
g71
NtRp2867
(dp2868
g74
(dp2869
g82
I3
ssg83
g2863
sg76
(lp2870
g1216
asbasbasbag69
(g85
g71
NtRp2871
(dp2872
g74
(dp2873
sg83
g2678
sg76
(lp2874
g69
(g90
g71
NtRp2875
(dp2876
g74
(dp2877
g94
g95
ssg83
g2871
sg76
(lp2878
S'HTTP_USER_AGENT'
p2879
asbag69
(g90
g71
NtRp2880
(dp2881
g74
(dp2882
g101
g102
ssg83
g2871
sg76
(lp2883
S':'
asbag69
(g90
g71
NtRp2884
(dp2885
g74
(dp2886
sg83
g2871
sg76
(lp2887
g69
(g70
g71
NtRp2888
(dp2889
g74
(dp2890
g82
I3
ssg83
g2884
sg76
(lp2891
g1238
asbasbasbag69
(g85
g71
NtRp2892
(dp2893
g74
(dp2894
sg83
g2678
sg76
(lp2895
g69
(g90
g71
NtRp2896
(dp2897
g74
(dp2898
g94
g95
ssg83
g2892
sg76
(lp2899
S'PATH_INFO'
p2900
asbag69
(g90
g71
NtRp2901
(dp2902
g74
(dp2903
g101
g102
ssg83
g2892
sg76
(lp2904
S':'
asbag69
(g90
g71
NtRp2905
(dp2906
g74
(dp2907
sg83
g2892
sg76
(lp2908
g69
(g70
g71
NtRp2909
(dp2910
g74
(dp2911
g82
I3
ssg83
g2905
sg76
(lp2912
g1392
asbasbasbag69
(g85
g71
NtRp2913
(dp2914
g74
(dp2915
sg83
g2678
sg76
(lp2916
g69
(g90
g71
NtRp2917
(dp2918
g74
(dp2919
g94
g95
ssg83
g2913
sg76
(lp2920
S'QUERY_STRING'
p2921
asbag69
(g90
g71
NtRp2922
(dp2923
g74
(dp2924
g101
g102
ssg83
g2913
sg76
(lp2925
S':'
asbag69
(g90
g71
NtRp2926
(dp2927
g74
(dp2928
sg83
g2913
sg76
(lp2929
g69
(g70
g71
NtRp2930
(dp2931
g74
(dp2932
g82
I3
ssg83
g2926
sg76
(lp2933
S''
asbasbasbag69
(g85
g71
NtRp2934
(dp2935
g74
(dp2936
sg83
g2678
sg76
(lp2937
g69
(g90
g71
NtRp2938
(dp2939
g74
(dp2940
g94
g95
ssg83
g2934
sg76
(lp2941
S'REMOTE_ADDR'
p2942
asbag69
(g90
g71
NtRp2943
(dp2944
g74
(dp2945
g101
g102
ssg83
g2934
sg76
(lp2946
S':'
asbag69
(g90
g71
NtRp2947
(dp2948
g74
(dp2949
sg83
g2934
sg76
(lp2950
g69
(g70
g71
NtRp2951
(dp2952
g74
(dp2953
g82
I3
ssg83
g2947
sg76
(lp2954
g224
asbasbasbag69
(g85
g71
NtRp2955
(dp2956
g74
(dp2957
sg83
g2678
sg76
(lp2958
g69
(g90
g71
NtRp2959
(dp2960
g74
(dp2961
g94
g95
ssg83
g2955
sg76
(lp2962
S'REMOTE_PORT'
p2963
asbag69
(g90
g71
NtRp2964
(dp2965
g74
(dp2966
g101
g102
ssg83
g2955
sg76
(lp2967
S':'
asbag69
(g90
g71
NtRp2968
(dp2969
g74
(dp2970
sg83
g2955
sg76
(lp2971
g69
(g70
g71
NtRp2972
(dp2973
g74
(dp2974
g82
I3
ssg83
g2968
sg76
(lp2975
g1456
asbasbasbag69
(g85
g71
NtRp2976
(dp2977
g74
(dp2978
sg83
g2678
sg76
(lp2979
g69
(g90
g71
NtRp2980
(dp2981
g74
(dp2982
g94
g95
ssg83
g2976
sg76
(lp2983
S'REQUEST_METHOD'
p2984
asbag69
(g90
g71
NtRp2985
(dp2986
g74
(dp2987
g101
g102
ssg83
g2976
sg76
(lp2988
S':'
asbag69
(g90
g71
NtRp2989
(dp2990
g74
(dp2991
sg83
g2976
sg76
(lp2992
g69
(g70
g71
NtRp2993
(dp2994
g74
(dp2995
g82
I3
ssg83
g2989
sg76
(lp2996
g1478
asbasbasbag69
(g85
g71
NtRp2997
(dp2998
g74
(dp2999
sg83
g2678
sg76
(lp3000
g69
(g90
g71
NtRp3001
(dp3002
g74
(dp3003
g94
g95
ssg83
g2997
sg76
(lp3004
S'REQUEST_URI'
p3005
asbag69
(g90
g71
NtRp3006
(dp3007
g74
(dp3008
g101
g102
ssg83
g2997
sg76
(lp3009
S':'
asbag69
(g90
g71
NtRp3010
(dp3011
g74
(dp3012
sg83
g2997
sg76
(lp3013
g69
(g70
g71
NtRp3014
(dp3015
g74
(dp3016
g82
I3
ssg83
g3010
sg76
(lp3017
g1392
asbasbasbag69
(g85
g71
NtRp3018
(dp3019
g74
(dp3020
sg83
g2678
sg76
(lp3021
g69
(g90
g71
NtRp3022
(dp3023
g74
(dp3024
g94
g95
ssg83
g3018
sg76
(lp3025
S'SCRIPT_NAME'
p3026
asbag69
(g90
g71
NtRp3027
(dp3028
g74
(dp3029
g101
g102
ssg83
g3018
sg76
(lp3030
S':'
asbag69
(g90
g71
NtRp3031
(dp3032
g74
(dp3033
sg83
g3018
sg76
(lp3034
g69
(g70
g71
NtRp3035
(dp3036
g74
(dp3037
g82
I3
ssg83
g3031
sg76
(lp3038
S''
asbasbasbag69
(g85
g71
NtRp3039
(dp3040
g74
(dp3041
sg83
g2678
sg76
(lp3042
g69
(g90
g71
NtRp3043
(dp3044
g74
(dp3045
g94
g95
ssg83
g3039
sg76
(lp3046
S'SERVER_NAME'
p3047
asbag69
(g90
g71
NtRp3048
(dp3049
g74
(dp3050
g101
g102
ssg83
g3039
sg76
(lp3051
S':'
asbag69
(g90
g71
NtRp3052
(dp3053
g74
(dp3054
sg83
g3039
sg76
(lp3055
g69
(g70
g71
NtRp3056
(dp3057
g74
(dp3058
g82
I3
ssg83
g3052
sg76
(lp3059
g1357
asbasbasbag69
(g85
g71
NtRp3060
(dp3061
g74
(dp3062
sg83
g2678
sg76
(lp3063
g69
(g90
g71
NtRp3064
(dp3065
g74
(dp3066
g94
g95
ssg83
g3060
sg76
(lp3067
S'SERVER_PORT'
p3068
asbag69
(g90
g71
NtRp3069
(dp3070
g74
(dp3071
g101
g102
ssg83
g3060
sg76
(lp3072
S':'
asbag69
(g90
g71
NtRp3073
(dp3074
g74
(dp3075
sg83
g3060
sg76
(lp3076
g69
(g70
g71
NtRp3077
(dp3078
g74
(dp3079
g82
I3
ssg83
g3073
sg76
(lp3080
g1563
asbasbasbag69
(g85
g71
NtRp3081
(dp3082
g74
(dp3083
sg83
g2678
sg76
(lp3084
g69
(g90
g71
NtRp3085
(dp3086
g74
(dp3087
g94
g95
ssg83
g3081
sg76
(lp3088
S'SERVER_PROTOCOL'
p3089
asbag69
(g90
g71
NtRp3090
(dp3091
g74
(dp3092
g101
g102
ssg83
g3081
sg76
(lp3093
S':'
asbag69
(g90
g71
NtRp3094
(dp3095
g74
(dp3096
sg83
g3081
sg76
(lp3097
g69
(g70
g71
NtRp3098
(dp3099
g74
(dp3100
g82
I3
ssg83
g3094
sg76
(lp3101
g1585
asbasbasbag69
(g85
g71
NtRp3102
(dp3103
g74
(dp3104
sg83
g2678
sg76
(lp3105
g69
(g90
g71
NtRp3106
(dp3107
g74
(dp3108
g94
g95
ssg83
g3102
sg76
(lp3109
S'SERVER_SOFTWARE'
p3110
asbag69
(g90
g71
NtRp3111
(dp3112
g74
(dp3113
g101
g102
ssg83
g3102
sg76
(lp3114
S':'
asbag69
(g90
g71
NtRp3115
(dp3116
g74
(dp3117
sg83
g3102
sg76
(lp3118
g69
(g70
g71
NtRp3119
(dp3120
g74
(dp3121
g82
I3
ssg83
g3115
sg76
(lp3122
g1607
asbasbasbag69
(g85
g71
NtRp3123
(dp3124
g74
(dp3125
sg83
g2678
sg76
(lp3126
g69
(g90
g71
NtRp3127
(dp3128
g74
(dp3129
g94
g95
ssg83
g3123
sg76
(lp3130
S'wsgi.errors'
p3131
asbag69
(g90
g71
NtRp3132
(dp3133
g74
(dp3134
g101
g102
ssg83
g3123
sg76
(lp3135
S':'
asbag69
(g90
g71
NtRp3136
(dp3137
g74
(dp3138
sg83
g3123
sg76
(lp3139
g69
(g70
g71
NtRp3140
(dp3141
g74
(dp3142
g82
I3
ssg83
g3136
sg76
(lp3143
S"<open file '<stderr>', mode 'w' at 0x7f97a1c89270>"
p3144
asbasbasbag69
(g85
g71
NtRp3145
(dp3146
g74
(dp3147
sg83
g2678
sg76
(lp3148
g69
(g90
g71
NtRp3149
(dp3150
g74
(dp3151
g94
g95
ssg83
g3145
sg76
(lp3152
S'wsgi.file_wrapper'
p3153
asbag69
(g90
g71
NtRp3154
(dp3155
g74
(dp3156
g101
g102
ssg83
g3145
sg76
(lp3157
S':'
asbag69
(g90
g71
NtRp3158
(dp3159
g74
(dp3160
sg83
g3145
sg76
(lp3161
g69
(g70
g71
NtRp3162
(dp3163
g74
(dp3164
g82
I3
ssg83
g3158
sg76
(lp3165
S'<class wsgiref.util.FileWrapper at 0x1ac1808>'
p3166
asbasbasbag69
(g85
g71
NtRp3167
(dp3168
g74
(dp3169
sg83
g2678
sg76
(lp3170
g69
(g90
g71
NtRp3171
(dp3172
g74
(dp3173
g94
g95
ssg83
g3167
sg76
(lp3174
S'wsgi.input'
p3175
asbag69
(g90
g71
NtRp3176
(dp3177
g74
(dp3178
g101
g102
ssg83
g3167
sg76
(lp3179
S':'
asbag69
(g90
g71
NtRp3180
(dp3181
g74
(dp3182
sg83
g3167
sg76
(lp3183
g69
(g70
g71
NtRp3184
(dp3185
g74
(dp3186
g82
I3
ssg83
g3180
sg76
(lp3187
S'<cStringIO.StringO object at 0x7f9758207810>'
p3188
asbasbasbag69
(g85
g71
NtRp3189
(dp3190
g74
(dp3191
sg83
g2678
sg76
(lp3192
g69
(g90
g71
NtRp3193
(dp3194
g74
(dp3195
g94
g95
ssg83
g3189
sg76
(lp3196
S'wsgi.multiprocess'
p3197
asbag69
(g90
g71
NtRp3198
(dp3199
g74
(dp3200
g101
g102
ssg83
g3189
sg76
(lp3201
S':'
asbag69
(g90
g71
NtRp3202
(dp3203
g74
(dp3204
sg83
g3189
sg76
(lp3205
g69
(g70
g71
NtRp3206
(dp3207
g74
(dp3208
g82
I3
ssg83
g3202
sg76
(lp3209
g112
asbasbasbag69
(g85
g71
NtRp3210
(dp3211
g74
(dp3212
sg83
g2678
sg76
(lp3213
g69
(g90
g71
NtRp3214
(dp3215
g74
(dp3216
g94
g95
ssg83
g3210
sg76
(lp3217
S'wsgi.multithread'
p3218
asbag69
(g90
g71
NtRp3219
(dp3220
g74
(dp3221
g101
g102
ssg83
g3210
sg76
(lp3222
S':'
asbag69
(g90
g71
NtRp3223
(dp3224
g74
(dp3225
sg83
g3210
sg76
(lp3226
g69
(g70
g71
NtRp3227
(dp3228
g74
(dp3229
g82
I3
ssg83
g3223
sg76
(lp3230
g1824
asbasbasbag69
(g85
g71
NtRp3231
(dp3232
g74
(dp3233
sg83
g2678
sg76
(lp3234
g69
(g90
g71
NtRp3235
(dp3236
g74
(dp3237
g94
g95
ssg83
g3231
sg76
(lp3238
S'wsgi.run_once'
p3239
asbag69
(g90
g71
NtRp3240
(dp3241
g74
(dp3242
g101
g102
ssg83
g3231
sg76
(lp3243
S':'
asbag69
(g90
g71
NtRp3244
(dp3245
g74
(dp3246
sg83
g3231
sg76
(lp3247
g69
(g70
g71
NtRp3248
(dp3249
g74
(dp3250
g82
I3
ssg83
g3244
sg76
(lp3251
g112
asbasbasbag69
(g85
g71
NtRp3252
(dp3253
g74
(dp3254
sg83
g2678
sg76
(lp3255
g69
(g90
g71
NtRp3256
(dp3257
g74
(dp3258
g94
g95
ssg83
g3252
sg76
(lp3259
S'wsgi.url_scheme'
p3260
asbag69
(g90
g71
NtRp3261
(dp3262
g74
(dp3263
g101
g102
ssg83
g3252
sg76
(lp3264
S':'
asbag69
(g90
g71
NtRp3265
(dp3266
g74
(dp3267
sg83
g3252
sg76
(lp3268
g69
(g70
g71
NtRp3269
(dp3270
g74
(dp3271
g82
I3
ssg83
g3265
sg76
(lp3272
g1867
asbasbasbag69
(g85
g71
NtRp3273
(dp3274
g74
(dp3275
sg83
g2678
sg76
(lp3276
g69
(g90
g71
NtRp3277
(dp3278
g74
(dp3279
g94
g95
ssg83
g3273
sg76
(lp3280
S'wsgi.version'
p3281
asbag69
(g90
g71
NtRp3282
(dp3283
g74
(dp3284
g101
g102
ssg83
g3273
sg76
(lp3285
S':'
asbag69
(g90
g71
NtRp3286
(dp3287
g74
(dp3288
sg83
g3273
sg76
(lp3289
g69
(g70
g71
NtRp3290
(dp3291
g74
(dp3292
g82
I3
ssg83
g3286
sg76
(lp3293
S'1'
asbasbasbasbasbasbasbasbasbasbasbasbasbsS'frames'
p3294
(lp3295
(dp3296
S'file'
p3297
S'/home/wionel/Desktop/web2py/gluon/restricted.py'
p3298
sS'dump'
p3299
(dp3300
S'environment'
p3301
S"{'A': <class 'gluon.html.A'>, 'Auth': <class 'gluon.tools.Auth'>, 'B': <class 'gluon.html.B'>, 'BEAUTIFY': <class 'gluon.html.BEAUTIFY'>, 'BODY': <class 'gluon.html.BODY'>, 'BR': <class 'gluon.html.BR'>, 'BUTTON': <class 'gluon.html.BUTTON'>, 'CAT': <class 'gluon.html.CAT'>, 'CENTER': <class 'gluon.html.CENTER'>, 'CLEANUP': <class 'gluon.validators.CLEANUP'>, ...}"
p3302
sS'ccode'
p3303
S'<code object <module> at 0x7f97542419b0, file "/...lications/music/controllers/default.py", line 13>'
p3304
ssS'lnum'
p3305
I212
sS'lines'
p3306
(dp3307
I207
S'    try:'
p3308
sI208
S'        if isinstance(code, types.CodeType):'
p3309
sI209
S'            ccode = code'
p3310
sI210
S'        else:'
p3311
sI211
S'            ccode = compile2(code, layer)'
p3312
sI212
S'        exec ccode in environment'
p3313
sI213
S'    except HTTP:'
p3314
sI214
S'        raise'
p3315
sI215
S'    except RestrictedError:'
p3316
sI216
S'        # do not encapsulate (obfuscate) the original RestrictedError'
p3317
ssS'call'
p3318
S"(code='# -*- coding: utf-8 -*-\\n# this file is released ...=crud())\\n\\nresponse._vars=response._caller(index)\\n', environment={'A': <class 'gluon.html.A'>, 'Auth': <class 'gluon.tools.Auth'>, 'B': <class 'gluon.html.B'>, 'BEAUTIFY': <class 'gluon.html.BEAUTIFY'>, 'BODY': <class 'gluon.html.BODY'>, 'BR': <class 'gluon.html.BR'>, 'BUTTON': <class 'gluon.html.BUTTON'>, 'CAT': <class 'gluon.html.CAT'>, 'CENTER': <class 'gluon.html.CENTER'>, 'CLEANUP': <class 'gluon.validators.CLEANUP'>, ...}, layer='/home/wionel/Desktop/web2py/applications/music/controllers/default.py')"
p3319
sS'func'
p3320
S'restricted'
p3321
sa(dp3322
g3297
S'/home/wionel/Desktop/web2py/applications/music/controllers/default.py'
p3323
sg3299
(dp3324
sg3305
I148
sg3306
(dp3325
I137
S'    http://..../[app]/default/data/update/[table]/[id]'
p3326
sI138
S'    http://..../[app]/default/data/delete/[table]/[id]'
p3327
sI139
S'    http://..../[app]/default/data/select/[table]'
p3328
sI140
S'    http://..../[app]/default/data/search/[table]'
p3329
sI141
S'    but URLs must be signed, i.e. linked with'
p3330
sI142
S"      A('table',_href=URL('data/tables',user_signature=True))"
p3331
sI143
S'    or with the signed load operator'
p3332
sI144
S"      LOAD('default','data.load',args='tables',ajax=True,user_signature=True)"
p3333
sI145
S'    """'
p3334
sI146
S'    return dict(form=crud())'
p3335
ssg3318
S'()'
p3336
sg3320
S'<module>'
p3337
sa(dp3338
g3297
S'/home/wionel/Desktop/web2py/gluon/globals.py'
p3339
sg3299
(dp3340
S'self'
p3341
S'undefined'
p3342
sS'f'
S'<function index>'
p3343
ssg3305
I188
sg3306
(dp3344
I192
S''
sI183
S'        self.menu = []             # used by the default view layout'
p3345
sI184
S'        self.files = []            # used by web2py_ajax.html'
p3346
sI185
S'        self.generic_patterns = []  # patterns to allow generic views'
p3347
sI186
S"        self.delimiters = ('{{', '}}')"
p3348
sI187
S'        self._vars = None'
p3349
sI188
S'        self._caller = lambda f: f()'
p3350
sI189
S'        self._view_environment = None'
p3351
sI190
S'        self._custom_commit = None'
p3352
sI191
S'        self._custom_rollback = None'
p3353
ssg3318
S'(f=<function index>)'
p3354
sg3320
S'<lambda>'
p3355
sa(dp3356
g3297
S'/home/wionel/Desktop/web2py/applications/music/controllers/default.py'
p3357
sg3299
(dp3358
S').select'
p3359
g3342
sS'global db'
p3360
S'<DAL uri="sqlite://storage.sqlite">'
p3361
sS'playlistName'
p3362
S"'Soft Rock Playlist'"
p3363
sS'db.playlist.shared'
p3364
S'<gluon.dal.Field object>'
p3365
sS'playlist_exist'
p3366
g3342
sS'isloggedin'
p3367
g3342
sS'message'
p3368
S"'Wel-Come To IIIT Music Store !!'"
p3369
sS'public_playlists'
p3370
g3342
sS'db.playlist'
p3371
S'<Table playlist (id,user_id,name,songlist,shared)>'
p3372
sS'builtindict'
p3373
S"<type 'dict'>"
p3374
sS'songs'
p3375
S"[<Row {'title': 'song 7', 'id': 8, 'file': 'song....205b7777772e444a4d617a612e436f6d5d2e6d7033.mp3'}>, <Row {'title': 'song 3', 'id': 4, 'file': 'song....205b7777772e444a4d617a612e436f6d5d2e6d7033.mp3'}>, <Row {'title': 'song 2', 'id': 2, 'file': 'song....205b7777772e444a4d617a612e436f6d5d2e6d7033.mp3'}>, <Row {'title': 'song 1', 'id': 1, 'file': 'song....6920486177612053612054686120576f682e6d7033.mp3'}>]"
p3376
ssg3305
I29
sg3306
(dp3377
I32
S'           try :'
p3378
sI33
S'                row = db(db.playlist.user_id==request.args[0]).select().first()'
p3379
sI24
S'            for id in songIds:'
p3380
sI25
S'                songs.append(db(db.song.id==id).select().first())'
p3381
sI26
S'            pass'
p3382
sI27
S"            message = 'Wel-Come To IIIT Music Store !!'"
p3383
sI28
S''
sI29
S"            return dict(message=message ,isloggedin='true', playlist_exist='true', songs=songs, playlistName=playlistName,public_playlists= db(db.playlist.shared in [2,1]).select())"
p3384
sI30
S''
sI31
S'    else:'
p3385
ssg3318
S'()'
p3386
sg3320
S'index'
p3387
sa(dp3388
g3297
S'/home/wionel/Desktop/web2py/gluon/dal.py'
p3389
sg3299
(dp3390
S'self.query'
p3391
g1824
sS'adapter.select'
p3392
S'<bound method SQLiteAdapter.select of <gluon.dal.SQLiteAdapter object>>'
p3393
sS'fields'
p3394
S'[]'
p3395
sS'adapter'
p3396
S'<gluon.dal.SQLiteAdapter object>'
p3397
sS'attributes'
p3398
g21
sS'self'
p3399
S'<Set 1>'
p3400
ssg3305
I8788
sg3306
(dp3401
I8783
S"                                    attributes.get('join',None),"
p3402
sI8784
S"                                    attributes.get('left',None),"
p3403
sI8785
S"                                    attributes.get('orderby',None),"
p3404
sI8786
S"                                    attributes.get('groupby',None))"
p3405
sI8787
S'        fields = adapter.expand_all(fields, tablenames)'
p3406
sI8788
S'        return adapter.select(self.query,fields,attributes)'
p3407
sI8789
S''
sI8790
S'    def nested_select(self,*fields,**attributes):'
p3408
sI8791
S'        return Expression(self.db,self._select(*fields,**attributes))'
p3409
sI8792
S''
ssg3318
S'(self=<Set 1>, *fields=[], **attributes={})'
p3410
sg3320
S'select'
p3411
sa(dp3412
g3297
S'/home/wionel/Desktop/web2py/gluon/dal.py'
p3413
sg3299
(dp3414
S'fields'
p3415
S'[]'
p3416
sS'self'
p3417
S'<gluon.dal.SQLiteAdapter object>'
p3418
sS').select'
p3419
S'<bound method SQLiteAdapter.select of <gluon.dal.SQLiteAdapter object>>'
p3420
sS'attributes'
p3421
g21
sS'global SQLiteAdapter'
p3422
S"<class 'gluon.dal.SQLiteAdapter'>"
p3423
sS'query'
p3424
g1824
sS'builtinsuper'
p3425
S"<type 'super'>"
p3426
ssg3305
I2128
sg3306
(dp3427
I2123
S'        Note that the entire database, rather than one record, is locked'
p3428
sI2124
S'        (it will be locked eventually anyway by the following UPDATE).'
p3429
sI2125
S'        """'
p3430
sI2126
S"        if attributes.get('for_update', False) and not 'cache' in attributes:"
p3431
sI2127
S"            self.execute('BEGIN IMMEDIATE TRANSACTION;')"
p3432
sI2128
S'        return super(SQLiteAdapter, self).select(query, fields, attributes)'
p3433
sI2129
S''
sI2130
S'class SpatiaLiteAdapter(SQLiteAdapter):'
p3434
sI2131
S"    drivers = ('sqlite3','sqlite2')"
p3435
sI2132
S''
ssg3318
S'(self=<gluon.dal.SQLiteAdapter object>, query=True, fields=[], attributes={})'
p3436
sg3320
g3411
sa(dp3437
g3297
S'/home/wionel/Desktop/web2py/gluon/dal.py'
p3438
sg3299
(dp3439
S'self._select'
p3440
S'<bound method SQLiteAdapter._select of <gluon.dal.SQLiteAdapter object>>'
p3441
sS'fields'
p3442
S'[]'
p3443
sS'self'
p3444
S'<gluon.dal.SQLiteAdapter object>'
p3445
sS'sql'
p3446
g3342
sS'query'
p3447
g1824
sS'attributes'
p3448
g21
ssg3305
I1603
sg3306
(dp3449
I1600
S'        """'
p3450
sI1601
S'        Always returns a Rows object, possibly empty.'
p3451
sI1602
S'        """'
p3452
sI1603
S'        sql = self._select(query, fields, attributes)'
p3453
sI1604
S"        cache = attributes.get('cache', None)"
p3454
sI1605
S"        if cache and attributes.get('cacheable',False):"
p3455
sI1606
S"            del attributes['cache']"
p3456
sI1607
S'            (cache_model, time_expire) = cache'
p3457
sI1598
S''
sI1599
S'    def select(self, query, fields, attributes):'
p3458
ssg3318
S'(self=<gluon.dal.SQLiteAdapter object>, query=True, fields=[], attributes={})'
p3459
sg3320
g3411
sa(dp3460
g3297
S'/home/wionel/Desktop/web2py/gluon/dal.py'
p3461
sg3299
(dp3462
S'builtinSyntaxError'
p3463
S"<type 'exceptions.SyntaxError'>"
p3464
ssg3305
I1459
sg3306
(dp3465
I1454
S''
sI1455
S'        if use_common_filters(query):'
p3466
sI1456
S'            query = self.common_filter(query,tablenames)'
p3467
sI1457
S''
sI1458
S'        if len(tablenames) < 1:'
p3468
sI1459
S"            raise SyntaxError, 'Set: no tables selected'"
p3469
sI1460
S"        sql_f = ', '.join(map(self.expand, fields))"
p3470
sI1461
S"        self._colnames = [c.strip() for c in sql_f.split(', ')]"
p3471
sI1462
S'        if query:'
p3472
sI1463
S"            sql_w = ' WHERE ' + self.expand(query)"
p3473
ssg3318
S'(self=<gluon.dal.SQLiteAdapter object>, query=True, fields=[], attributes={})'
p3474
sg3320
S'_select'
p3475
sasS'pyver'
p3476
S'Python 2.7.3: /usr/bin/python'
p3477
sS'session'
p3478
g69
(g70
g71
NtRp3479
(dp3480
g74
(dp3481
sg76
(lp3482
g69
(g78
g71
NtRp3483
(dp3484
g74
(dp3485
g82
I5
ssg83
Nsg76
(lp3486
g69
(g85
g71
NtRp3487
(dp3488
g74
(dp3489
sg83
g3483
sg76
(lp3490
g69
(g90
g71
NtRp3491
(dp3492
g74
(dp3493
g94
g95
ssg83
g3487
sg76
(lp3494
S'auth'
p3495
asbag69
(g90
g71
NtRp3496
(dp3497
g74
(dp3498
g101
g102
ssg83
g3487
sg76
(lp3499
S':'
asbag69
(g90
g71
NtRp3500
(dp3501
g74
(dp3502
sg83
g3487
sg76
(lp3503
g69
(g70
g71
NtRp3504
(dp3505
g74
(dp3506
g82
I5
ssg83
g3500
sg76
(lp3507
g69
(g78
g71
NtRp3508
(dp3509
g74
(dp3510
g82
I4
ssg83
Nsg76
(lp3511
g69
(g85
g71
NtRp3512
(dp3513
g74
(dp3514
sg83
g3508
sg76
(lp3515
g69
(g90
g71
NtRp3516
(dp3517
g74
(dp3518
g94
g95
ssg83
g3512
sg76
(lp3519
S'expiration'
p3520
asbag69
(g90
g71
NtRp3521
(dp3522
g74
(dp3523
g101
g102
ssg83
g3512
sg76
(lp3524
S':'
asbag69
(g90
g71
NtRp3525
(dp3526
g74
(dp3527
sg83
g3512
sg76
(lp3528
g69
(g70
g71
NtRp3529
(dp3530
g74
(dp3531
g82
I4
ssg83
g3525
sg76
(lp3532
S'3600'
p3533
asbasbasbag69
(g85
g71
NtRp3534
(dp3535
g74
(dp3536
sg83
g3508
sg76
(lp3537
g69
(g90
g71
NtRp3538
(dp3539
g74
(dp3540
g94
g95
ssg83
g3534
sg76
(lp3541
S'hmac_key'
p3542
asbag69
(g90
g71
NtRp3543
(dp3544
g74
(dp3545
g101
g102
ssg83
g3534
sg76
(lp3546
S':'
asbag69
(g90
g71
NtRp3547
(dp3548
g74
(dp3549
sg83
g3534
sg76
(lp3550
g69
(g70
g71
NtRp3551
(dp3552
g74
(dp3553
g82
I4
ssg83
g3547
sg76
(lp3554
S'be74a6b5-5b20-41c8-aadb-e405ad5894a4'
p3555
asbasbasbag69
(g85
g71
NtRp3556
(dp3557
g74
(dp3558
sg83
g3508
sg76
(lp3559
g69
(g90
g71
NtRp3560
(dp3561
g74
(dp3562
g94
g95
ssg83
g3556
sg76
(lp3563
S'last_visit'
p3564
asbag69
(g90
g71
NtRp3565
(dp3566
g74
(dp3567
g101
g102
ssg83
g3556
sg76
(lp3568
S':'
asbag69
(g90
g71
NtRp3569
(dp3570
g74
(dp3571
sg83
g3556
sg76
(lp3572
g69
(g70
g71
NtRp3573
(dp3574
g74
(dp3575
g82
I4
ssg83
g3569
sg76
(lp3576
S'datetime.datetime(2012, 11, 16, 10, 45, 29, 855792)'
p3577
asbasbasbag69
(g85
g71
NtRp3578
(dp3579
g74
(dp3580
sg83
g3508
sg76
(lp3581
g69
(g90
g71
NtRp3582
(dp3583
g74
(dp3584
g94
g95
ssg83
g3578
sg76
(lp3585
S'remember'
p3586
asbag69
(g90
g71
NtRp3587
(dp3588
g74
(dp3589
g101
g102
ssg83
g3578
sg76
(lp3590
S':'
asbag69
(g90
g71
NtRp3591
(dp3592
g74
(dp3593
sg83
g3578
sg76
(lp3594
g69
(g70
g71
NtRp3595
(dp3596
g74
(dp3597
g82
I4
ssg83
g3591
sg76
(lp3598
g112
asbasbasbag69
(g85
g71
NtRp3599
(dp3600
g74
(dp3601
sg83
g3508
sg76
(lp3602
g69
(g90
g71
NtRp3603
(dp3604
g74
(dp3605
g94
g95
ssg83
g3599
sg76
(lp3606
S'user'
p3607
asbag69
(g90
g71
NtRp3608
(dp3609
g74
(dp3610
g101
g102
ssg83
g3599
sg76
(lp3611
S':'
asbag69
(g90
g71
NtRp3612
(dp3613
g74
(dp3614
sg83
g3599
sg76
(lp3615
g69
(g70
g71
NtRp3616
(dp3617
g74
(dp3618
g82
I4
ssg83
g3612
sg76
(lp3619
g69
(g78
g71
NtRp3620
(dp3621
g74
(dp3622
g82
I3
ssg83
Nsg76
(lp3623
g69
(g85
g71
NtRp3624
(dp3625
g74
(dp3626
sg83
g3620
sg76
(lp3627
g69
(g90
g71
NtRp3628
(dp3629
g74
(dp3630
g94
g95
ssg83
g3624
sg76
(lp3631
S'email'
p3632
asbag69
(g90
g71
NtRp3633
(dp3634
g74
(dp3635
g101
g102
ssg83
g3624
sg76
(lp3636
S':'
asbag69
(g90
g71
NtRp3637
(dp3638
g74
(dp3639
sg83
g3624
sg76
(lp3640
g69
(g70
g71
NtRp3641
(dp3642
g74
(dp3643
g82
I3
ssg83
g3637
sg76
(lp3644
S'shhrohan19@gmail.com'
p3645
asbasbasbag69
(g85
g71
NtRp3646
(dp3647
g74
(dp3648
sg83
g3620
sg76
(lp3649
g69
(g90
g71
NtRp3650
(dp3651
g74
(dp3652
g94
g95
ssg83
g3646
sg76
(lp3653
S'first_name'
p3654
asbag69
(g90
g71
NtRp3655
(dp3656
g74
(dp3657
g101
g102
ssg83
g3646
sg76
(lp3658
S':'
asbag69
(g90
g71
NtRp3659
(dp3660
g74
(dp3661
sg83
g3646
sg76
(lp3662
g69
(g70
g71
NtRp3663
(dp3664
g74
(dp3665
g82
I3
ssg83
g3659
sg76
(lp3666
S'Rohan'
p3667
asbasbasbag69
(g85
g71
NtRp3668
(dp3669
g74
(dp3670
sg83
g3620
sg76
(lp3671
g69
(g90
g71
NtRp3672
(dp3673
g74
(dp3674
g94
g95
ssg83
g3668
sg76
(lp3675
S'id'
p3676
asbag69
(g90
g71
NtRp3677
(dp3678
g74
(dp3679
g101
g102
ssg83
g3668
sg76
(lp3680
S':'
asbag69
(g90
g71
NtRp3681
(dp3682
g74
(dp3683
sg83
g3668
sg76
(lp3684
g69
(g70
g71
NtRp3685
(dp3686
g74
(dp3687
g82
I3
ssg83
g3681
sg76
(lp3688
S'1'
asbasbasbag69
(g85
g71
NtRp3689
(dp3690
g74
(dp3691
sg83
g3620
sg76
(lp3692
g69
(g90
g71
NtRp3693
(dp3694
g74
(dp3695
g94
g95
ssg83
g3689
sg76
(lp3696
S'last_name'
p3697
asbag69
(g90
g71
NtRp3698
(dp3699
g74
(dp3700
g101
g102
ssg83
g3689
sg76
(lp3701
S':'
asbag69
(g90
g71
NtRp3702
(dp3703
g74
(dp3704
sg83
g3689
sg76
(lp3705
g69
(g70
g71
NtRp3706
(dp3707
g74
(dp3708
g82
I3
ssg83
g3702
sg76
(lp3709
S'Shah'
p3710
asbasbasbag69
(g85
g71
NtRp3711
(dp3712
g74
(dp3713
sg83
g3620
sg76
(lp3714
g69
(g90
g71
NtRp3715
(dp3716
g74
(dp3717
g94
g95
ssg83
g3711
sg76
(lp3718
S'registration_id'
p3719
asbag69
(g90
g71
NtRp3720
(dp3721
g74
(dp3722
g101
g102
ssg83
g3711
sg76
(lp3723
S':'
asbag69
(g90
g71
NtRp3724
(dp3725
g74
(dp3726
sg83
g3711
sg76
(lp3727
g69
(g70
g71
NtRp3728
(dp3729
g74
(dp3730
g82
I3
ssg83
g3724
sg76
(lp3731
S''
asbasbasbag69
(g85
g71
NtRp3732
(dp3733
g74
(dp3734
sg83
g3620
sg76
(lp3735
g69
(g90
g71
NtRp3736
(dp3737
g74
(dp3738
g94
g95
ssg83
g3732
sg76
(lp3739
S'registration_key'
p3740
asbag69
(g90
g71
NtRp3741
(dp3742
g74
(dp3743
g101
g102
ssg83
g3732
sg76
(lp3744
S':'
asbag69
(g90
g71
NtRp3745
(dp3746
g74
(dp3747
sg83
g3732
sg76
(lp3748
g69
(g70
g71
NtRp3749
(dp3750
g74
(dp3751
g82
I3
ssg83
g3745
sg76
(lp3752
S''
asbasbasbag69
(g85
g71
NtRp3753
(dp3754
g74
(dp3755
sg83
g3620
sg76
(lp3756
g69
(g90
g71
NtRp3757
(dp3758
g74
(dp3759
g94
g95
ssg83
g3753
sg76
(lp3760
S'reset_password_key'
p3761
asbag69
(g90
g71
NtRp3762
(dp3763
g74
(dp3764
g101
g102
ssg83
g3753
sg76
(lp3765
S':'
asbag69
(g90
g71
NtRp3766
(dp3767
g74
(dp3768
sg83
g3753
sg76
(lp3769
g69
(g70
g71
NtRp3770
(dp3771
g74
(dp3772
g82
I3
ssg83
g3766
sg76
(lp3773
S''
asbasbasbasbasbasbasbag69
(g85
g71
NtRp3774
(dp3775
g74
(dp3776
sg83
g3508
sg76
(lp3777
g69
(g90
g71
NtRp3778
(dp3779
g74
(dp3780
g94
g95
ssg83
g3774
sg76
(lp3781
S'user_groups'
p3782
asbag69
(g90
g71
NtRp3783
(dp3784
g74
(dp3785
g101
g102
ssg83
g3774
sg76
(lp3786
S':'
asbag69
(g90
g71
NtRp3787
(dp3788
g74
(dp3789
sg83
g3774
sg76
(lp3790
g69
(g70
g71
NtRp3791
(dp3792
g74
(dp3793
g82
I4
ssg83
g3787
sg76
(lp3794
g69
(g78
g71
NtRp3795
(dp3796
g74
(dp3797
g82
I3
ssg83
Nsg76
(lp3798
g69
(g85
g71
NtRp3799
(dp3800
g74
(dp3801
sg83
g3795
sg76
(lp3802
g69
(g90
g71
NtRp3803
(dp3804
g74
(dp3805
g94
g95
ssg83
g3799
sg76
(lp3806
S'1'
asbag69
(g90
g71
NtRp3807
(dp3808
g74
(dp3809
g101
g102
ssg83
g3799
sg76
(lp3810
S':'
asbag69
(g90
g71
NtRp3811
(dp3812
g74
(dp3813
sg83
g3799
sg76
(lp3814
g69
(g70
g71
NtRp3815
(dp3816
g74
(dp3817
g82
I3
ssg83
g3811
sg76
(lp3818
S'user_1'
p3819
asbasbasbasbasbasbasbasbasbasbasbag69
(g85
g71
NtRp3820
(dp3821
g74
(dp3822
sg83
g3483
sg76
(lp3823
g69
(g90
g71
NtRp3824
(dp3825
g74
(dp3826
g94
g95
ssg83
g3820
sg76
(lp3827
S'flash'
p3828
asbag69
(g90
g71
NtRp3829
(dp3830
g74
(dp3831
g101
g102
ssg83
g3820
sg76
(lp3832
S':'
asbag69
(g90
g71
NtRp3833
(dp3834
g74
(dp3835
sg83
g3820
sg76
(lp3836
g69
(g70
g71
NtRp3837
(dp3838
g74
(dp3839
g82
I5
ssg83
g3833
sg76
(lp3840
S'None'
p3841
asbasbasbag69
(g85
g71
NtRp3842
(dp3843
g74
(dp3844
sg83
g3483
sg76
(lp3845
g69
(g90
g71
NtRp3846
(dp3847
g74
(dp3848
g94
g95
ssg83
g3842
sg76
(lp3849
S'last_orderby'
p3850
asbag69
(g90
g71
NtRp3851
(dp3852
g74
(dp3853
g101
g102
ssg83
g3842
sg76
(lp3854
S':'
asbag69
(g90
g71
NtRp3855
(dp3856
g74
(dp3857
sg83
g3842
sg76
(lp3858
g69
(g70
g71
NtRp3859
(dp3860
g74
(dp3861
g82
I5
ssg83
g3855
sg76
(lp3862
S'None'
p3863
asbasbasbag69
(g85
g71
NtRp3864
(dp3865
g74
(dp3866
sg83
g3483
sg76
(lp3867
g69
(g90
g71
NtRp3868
(dp3869
g74
(dp3870
g94
g95
ssg83
g3864
sg76
(lp3871
S'last_query'
p3872
asbag69
(g90
g71
NtRp3873
(dp3874
g74
(dp3875
g101
g102
ssg83
g3864
sg76
(lp3876
S':'
asbag69
(g90
g71
NtRp3877
(dp3878
g74
(dp3879
sg83
g3864
sg76
(lp3880
g69
(g70
g71
NtRp3881
(dp3882
g74
(dp3883
g82
I5
ssg83
g3877
sg76
(lp3884
S'db.playlist.id>0'
p3885
asbasbasbasbasbsS'etype'
p3886
S"<type 'exceptions.SyntaxError'>"
p3887
sS'date'
p3888
S'Fri Nov 16 10:49:43 2012'
p3889
sS'response'
p3890
g69
(g70
g71
NtRp3891
(dp3892
g74
(dp3893
sg76
(lp3894
g69
(g78
g71
NtRp3895
(dp3896
g74
(dp3897
g82
I5
ssg83
Nsg76
(lp3898
g69
(g85
g71
NtRp3899
(dp3900
g74
(dp3901
sg83
g3895
sg76
(lp3902
g69
(g90
g71
NtRp3903
(dp3904
g74
(dp3905
g94
g95
ssg83
g3899
sg76
(lp3906
g167
asbag69
(g90
g71
NtRp3907
(dp3908
g74
(dp3909
g101
g102
ssg83
g3899
sg76
(lp3910
S':'
asbag69
(g90
g71
NtRp3911
(dp3912
g74
(dp3913
sg83
g3899
sg76
(lp3914
g69
(g70
g71
NtRp3915
(dp3916
g74
(dp3917
g82
I5
ssg83
g3911
sg76
(lp3918
S'<cStringIO.StringO object at 0x1b72e68>'
p3919
asbasbasbag69
(g85
g71
NtRp3920
(dp3921
g74
(dp3922
sg83
g3895
sg76
(lp3923
g69
(g90
g71
NtRp3924
(dp3925
g74
(dp3926
g94
g95
ssg83
g3920
sg76
(lp3927
g255
asbag69
(g90
g71
NtRp3928
(dp3929
g74
(dp3930
g101
g102
ssg83
g3920
sg76
(lp3931
S':'
asbag69
(g90
g71
NtRp3932
(dp3933
g74
(dp3934
sg83
g3920
sg76
(lp3935
g69
(g70
g71
NtRp3936
(dp3937
g74
(dp3938
g82
I5
ssg83
g3932
sg76
(lp3939
g69
(g78
g71
NtRp3940
(dp3941
g74
(dp3942
g82
I4
ssg83
Nsg76
(lp3943
g69
(g85
g71
NtRp3944
(dp3945
g74
(dp3946
sg83
g3940
sg76
(lp3947
g69
(g90
g71
NtRp3948
(dp3949
g74
(dp3950
g94
g95
ssg83
g3944
sg76
(lp3951
S'session_id_music'
p3952
asbag69
(g90
g71
NtRp3953
(dp3954
g74
(dp3955
g101
g102
ssg83
g3944
sg76
(lp3956
S':'
asbag69
(g90
g71
NtRp3957
(dp3958
g74
(dp3959
sg83
g3944
sg76
(lp3960
g69
(g70
g71
NtRp3961
(dp3962
g74
(dp3963
g82
I4
ssg83
g3957
sg76
(lp3964
g487
ag69
(g78
g71
NtRp3965
(dp3966
g74
(dp3967
g82
I3
ssg83
Nsg76
(lp3968
g69
(g85
g71
NtRp3969
(dp3970
g74
(dp3971
sg83
g3965
sg76
(lp3972
g69
(g90
g71
NtRp3973
(dp3974
g74
(dp3975
g94
g95
ssg83
g3969
sg76
(lp3976
g306
asbag69
(g90
g71
NtRp3977
(dp3978
g74
(dp3979
g101
g102
ssg83
g3969
sg76
(lp3980
S':'
asbag69
(g90
g71
NtRp3981
(dp3982
g74
(dp3983
sg83
g3969
sg76
(lp3984
g69
(g70
g71
NtRp3985
(dp3986
g74
(dp3987
g82
I3
ssg83
g3981
sg76
(lp3988
S''
asbasbasbag69
(g85
g71
NtRp3989
(dp3990
g74
(dp3991
sg83
g3965
sg76
(lp3992
g69
(g90
g71
NtRp3993
(dp3994
g74
(dp3995
g94
g95
ssg83
g3989
sg76
(lp3996
g327
asbag69
(g90
g71
NtRp3997
(dp3998
g74
(dp3999
g101
g102
ssg83
g3989
sg76
(lp4000
S':'
asbag69
(g90
g71
NtRp4001
(dp4002
g74
(dp4003
sg83
g3989
sg76
(lp4004
g69
(g70
g71
NtRp4005
(dp4006
g74
(dp4007
g82
I3
ssg83
g4001
sg76
(lp4008
S''
asbasbasbag69
(g85
g71
NtRp4009
(dp4010
g74
(dp4011
sg83
g3965
sg76
(lp4012
g69
(g90
g71
NtRp4013
(dp4014
g74
(dp4015
g94
g95
ssg83
g4009
sg76
(lp4016
g348
asbag69
(g90
g71
NtRp4017
(dp4018
g74
(dp4019
g101
g102
ssg83
g4009
sg76
(lp4020
S':'
asbag69
(g90
g71
NtRp4021
(dp4022
g74
(dp4023
sg83
g4009
sg76
(lp4024
g69
(g70
g71
NtRp4025
(dp4026
g74
(dp4027
g82
I3
ssg83
g4021
sg76
(lp4028
S''
asbasbasbag69
(g85
g71
NtRp4029
(dp4030
g74
(dp4031
sg83
g3965
sg76
(lp4032
g69
(g90
g71
NtRp4033
(dp4034
g74
(dp4035
g94
g95
ssg83
g4029
sg76
(lp4036
g369
asbag69
(g90
g71
NtRp4037
(dp4038
g74
(dp4039
g101
g102
ssg83
g4029
sg76
(lp4040
S':'
asbag69
(g90
g71
NtRp4041
(dp4042
g74
(dp4043
sg83
g4029
sg76
(lp4044
g69
(g70
g71
NtRp4045
(dp4046
g74
(dp4047
g82
I3
ssg83
g4041
sg76
(lp4048
S''
asbasbasbag69
(g85
g71
NtRp4049
(dp4050
g74
(dp4051
sg83
g3965
sg76
(lp4052
g69
(g90
g71
NtRp4053
(dp4054
g74
(dp4055
g94
g95
ssg83
g4049
sg76
(lp4056
g390
asbag69
(g90
g71
NtRp4057
(dp4058
g74
(dp4059
g101
g102
ssg83
g4049
sg76
(lp4060
S':'
asbag69
(g90
g71
NtRp4061
(dp4062
g74
(dp4063
sg83
g4049
sg76
(lp4064
g69
(g70
g71
NtRp4065
(dp4066
g74
(dp4067
g82
I3
ssg83
g4061
sg76
(lp4068
S''
asbasbasbag69
(g85
g71
NtRp4069
(dp4070
g74
(dp4071
sg83
g3965
sg76
(lp4072
g69
(g90
g71
NtRp4073
(dp4074
g74
(dp4075
g94
g95
ssg83
g4069
sg76
(lp4076
g411
asbag69
(g90
g71
NtRp4077
(dp4078
g74
(dp4079
g101
g102
ssg83
g4069
sg76
(lp4080
S':'
asbag69
(g90
g71
NtRp4081
(dp4082
g74
(dp4083
sg83
g4069
sg76
(lp4084
g69
(g70
g71
NtRp4085
(dp4086
g74
(dp4087
g82
I3
ssg83
g4081
sg76
(lp4088
S'/'
asbasbasbag69
(g85
g71
NtRp4089
(dp4090
g74
(dp4091
sg83
g3965
sg76
(lp4092
g69
(g90
g71
NtRp4093
(dp4094
g74
(dp4095
g94
g95
ssg83
g4089
sg76
(lp4096
g432
asbag69
(g90
g71
NtRp4097
(dp4098
g74
(dp4099
g101
g102
ssg83
g4089
sg76
(lp4100
S':'
asbag69
(g90
g71
NtRp4101
(dp4102
g74
(dp4103
sg83
g4089
sg76
(lp4104
g69
(g70
g71
NtRp4105
(dp4106
g74
(dp4107
g82
I3
ssg83
g4101
sg76
(lp4108
S''
asbasbasbag69
(g85
g71
NtRp4109
(dp4110
g74
(dp4111
sg83
g3965
sg76
(lp4112
g69
(g90
g71
NtRp4113
(dp4114
g74
(dp4115
g94
g95
ssg83
g4109
sg76
(lp4116
g453
asbag69
(g90
g71
NtRp4117
(dp4118
g74
(dp4119
g101
g102
ssg83
g4109
sg76
(lp4120
S':'
asbag69
(g90
g71
NtRp4121
(dp4122
g74
(dp4123
sg83
g4109
sg76
(lp4124
g69
(g70
g71
NtRp4125
(dp4126
g74
(dp4127
g82
I3
ssg83
g4121
sg76
(lp4128
S''
asbasbasbasbasbasbasbasbasbasbasbag69
(g85
g71
NtRp4129
(dp4130
g74
(dp4131
sg83
g3895
sg76
(lp4132
g69
(g90
g71
NtRp4133
(dp4134
g74
(dp4135
g94
g95
ssg83
g4129
sg76
(lp4136
S'delimiters'
p4137
asbag69
(g90
g71
NtRp4138
(dp4139
g74
(dp4140
g101
g102
ssg83
g4129
sg76
(lp4141
S':'
asbag69
(g90
g71
NtRp4142
(dp4143
g74
(dp4144
sg83
g4129
sg76
(lp4145
g69
(g70
g71
NtRp4146
(dp4147
g74
(dp4148
g82
I5
ssg83
g4142
sg76
(lp4149
g69
(g78
g71
NtRp4150
(dp4151
g74
(dp4152
g82
I4
ssg83
Nsg76
(lp4153
g69
(g85
g71
NtRp4154
(dp4155
g74
(dp4156
sg83
g4150
sg76
(lp4157
g69
(g90
g71
NtRp4158
(dp4159
g74
(dp4160
sg83
g4154
sg76
(lp4161
g69
(g70
g71
NtRp4162
(dp4163
g74
(dp4164
g82
I4
ssg83
g4158
sg76
(lp4165
S'{{'
p4166
asbasbasbag69
(g85
g71
NtRp4167
(dp4168
g74
(dp4169
sg83
g4150
sg76
(lp4170
g69
(g90
g71
NtRp4171
(dp4172
g74
(dp4173
sg83
g4167
sg76
(lp4174
g69
(g70
g71
NtRp4175
(dp4176
g74
(dp4177
g82
I4
ssg83
g4171
sg76
(lp4178
S'}}'
p4179
asbasbasbasbasbasbasbag69
(g85
g71
NtRp4180
(dp4181
g74
(dp4182
sg83
g3895
sg76
(lp4183
g69
(g90
g71
NtRp4184
(dp4185
g74
(dp4186
g94
g95
ssg83
g4180
sg76
(lp4187
S'files'
p4188
asbag69
(g90
g71
NtRp4189
(dp4190
g74
(dp4191
g101
g102
ssg83
g4180
sg76
(lp4192
S':'
asbag69
(g90
g71
NtRp4193
(dp4194
g74
(dp4195
sg83
g4180
sg76
(lp4196
g69
(g70
g71
NtRp4197
(dp4198
g74
(dp4199
g82
I5
ssg83
g4193
sg76
(lp4200
g69
(g78
g71
NtRp4201
(dp4202
g74
(dp4203
g82
I4
ssg83
Nsg76
(lp4204
sbasbasbasbag69
(g85
g71
NtRp4205
(dp4206
g74
(dp4207
sg83
g3895
sg76
(lp4208
g69
(g90
g71
NtRp4209
(dp4210
g74
(dp4211
g94
g95
ssg83
g4205
sg76
(lp4212
S'flash'
p4213
asbag69
(g90
g71
NtRp4214
(dp4215
g74
(dp4216
g101
g102
ssg83
g4205
sg76
(lp4217
S':'
asbag69
(g90
g71
NtRp4218
(dp4219
g74
(dp4220
sg83
g4205
sg76
(lp4221
g69
(g70
g71
NtRp4222
(dp4223
g74
(dp4224
g82
I5
ssg83
g4218
sg76
(lp4225
S''
asbasbasbag69
(g85
g71
NtRp4226
(dp4227
g74
(dp4228
sg83
g3895
sg76
(lp4229
g69
(g90
g71
NtRp4230
(dp4231
g74
(dp4232
g94
g95
ssg83
g4226
sg76
(lp4233
S'generic_patterns'
p4234
asbag69
(g90
g71
NtRp4235
(dp4236
g74
(dp4237
g101
g102
ssg83
g4226
sg76
(lp4238
S':'
asbag69
(g90
g71
NtRp4239
(dp4240
g74
(dp4241
sg83
g4226
sg76
(lp4242
g69
(g70
g71
NtRp4243
(dp4244
g74
(dp4245
g82
I5
ssg83
g4239
sg76
(lp4246
g69
(g78
g71
NtRp4247
(dp4248
g74
(dp4249
g82
I4
ssg83
Nsg76
(lp4250
g69
(g85
g71
NtRp4251
(dp4252
g74
(dp4253
sg83
g4247
sg76
(lp4254
g69
(g90
g71
NtRp4255
(dp4256
g74
(dp4257
sg83
g4251
sg76
(lp4258
g69
(g70
g71
NtRp4259
(dp4260
g74
(dp4261
g82
I4
ssg83
g4255
sg76
(lp4262
S'*'
asbasbasbasbasbasbasbag69
(g85
g71
NtRp4263
(dp4264
g74
(dp4265
sg83
g3895
sg76
(lp4266
g69
(g90
g71
NtRp4267
(dp4268
g74
(dp4269
g94
g95
ssg83
g4263
sg76
(lp4270
S'google_analytics_id'
p4271
asbag69
(g90
g71
NtRp4272
(dp4273
g74
(dp4274
g101
g102
ssg83
g4263
sg76
(lp4275
S':'
asbag69
(g90
g71
NtRp4276
(dp4277
g74
(dp4278
sg83
g4263
sg76
(lp4279
g69
(g70
g71
NtRp4280
(dp4281
g74
(dp4282
g82
I5
ssg83
g4276
sg76
(lp4283
S'None'
p4284
asbasbasbag69
(g85
g71
NtRp4285
(dp4286
g74
(dp4287
sg83
g3895
sg76
(lp4288
g69
(g90
g71
NtRp4289
(dp4290
g74
(dp4291
g94
g95
ssg83
g4285
sg76
(lp4292
S'headers'
p4293
asbag69
(g90
g71
NtRp4294
(dp4295
g74
(dp4296
g101
g102
ssg83
g4285
sg76
(lp4297
S':'
asbag69
(g90
g71
NtRp4298
(dp4299
g74
(dp4300
sg83
g4285
sg76
(lp4301
g69
(g70
g71
NtRp4302
(dp4303
g74
(dp4304
g82
I5
ssg83
g4298
sg76
(lp4305
g69
(g78
g71
NtRp4306
(dp4307
g74
(dp4308
g82
I4
ssg83
Nsg76
(lp4309
g69
(g85
g71
NtRp4310
(dp4311
g74
(dp4312
sg83
g4306
sg76
(lp4313
g69
(g90
g71
NtRp4314
(dp4315
g74
(dp4316
g94
g95
ssg83
g4310
sg76
(lp4317
S'X-Powered-By'
p4318
asbag69
(g90
g71
NtRp4319
(dp4320
g74
(dp4321
g101
g102
ssg83
g4310
sg76
(lp4322
S':'
asbag69
(g90
g71
NtRp4323
(dp4324
g74
(dp4325
sg83
g4310
sg76
(lp4326
g69
(g70
g71
NtRp4327
(dp4328
g74
(dp4329
g82
I4
ssg83
g4323
sg76
(lp4330
S'web2py'
p4331
asbasbasbasbasbasbasbag69
(g85
g71
NtRp4332
(dp4333
g74
(dp4334
sg83
g3895
sg76
(lp4335
g69
(g90
g71
NtRp4336
(dp4337
g74
(dp4338
g94
g95
ssg83
g4332
sg76
(lp4339
S'menu'
p4340
asbag69
(g90
g71
NtRp4341
(dp4342
g74
(dp4343
g101
g102
ssg83
g4332
sg76
(lp4344
S':'
asbag69
(g90
g71
NtRp4345
(dp4346
g74
(dp4347
sg83
g4332
sg76
(lp4348
g69
(g70
g71
NtRp4349
(dp4350
g74
(dp4351
g82
I5
ssg83
g4345
sg76
(lp4352
g69
(g78
g71
NtRp4353
(dp4354
g74
(dp4355
g82
I4
ssg83
Nsg76
(lp4356
g69
(g85
g71
NtRp4357
(dp4358
g74
(dp4359
sg83
g4353
sg76
(lp4360
g69
(g90
g71
NtRp4361
(dp4362
g74
(dp4363
sg83
g4357
sg76
(lp4364
g69
(g70
g71
NtRp4365
(dp4366
g74
(dp4367
g82
I4
ssg83
g4361
sg76
(lp4368
g69
(g78
g71
NtRp4369
(dp4370
g74
(dp4371
g82
I3
ssg83
Nsg76
(lp4372
g69
(g85
g71
NtRp4373
(dp4374
g74
(dp4375
sg83
g4369
sg76
(lp4376
g69
(g90
g71
NtRp4377
(dp4378
g74
(dp4379
sg83
g4373
sg76
(lp4380
g69
(g70
g71
NtRp4381
(dp4382
g74
(dp4383
g82
I3
ssg83
g4377
sg76
(lp4384
cgluon.languages
lazyT_unpickle
p4385
(S's\x04\x00\x00\x00Home'
tRp4386
asbasbasbag69
(g85
g71
NtRp4387
(dp4388
g74
(dp4389
sg83
g4369
sg76
(lp4390
g69
(g90
g71
NtRp4391
(dp4392
g74
(dp4393
sg83
g4387
sg76
(lp4394
g69
(g70
g71
NtRp4395
(dp4396
g74
(dp4397
g82
I3
ssg83
g4391
sg76
(lp4398
g112
asbasbasbag69
(g85
g71
NtRp4399
(dp4400
g74
(dp4401
sg83
g4369
sg76
(lp4402
g69
(g90
g71
NtRp4403
(dp4404
g74
(dp4405
sg83
g4399
sg76
(lp4406
g69
(g70
g71
NtRp4407
(dp4408
g74
(dp4409
g82
I3
ssg83
g4403
sg76
(lp4410
S'/music/default/index'
p4411
asbasbasbag69
(g85
g71
NtRp4412
(dp4413
g74
(dp4414
sg83
g4369
sg76
(lp4415
g69
(g90
g71
NtRp4416
(dp4417
g74
(dp4418
sg83
g4412
sg76
(lp4419
g69
(g70
g71
NtRp4420
(dp4421
g74
(dp4422
g82
I3
ssg83
g4416
sg76
(lp4423
g69
(g78
g71
NtRp4424
(dp4425
g74
(dp4426
g82
I2
ssg83
Nsg76
(lp4427
sbasbasbasbasbasbasbasbag69
(g85
g71
NtRp4428
(dp4429
g74
(dp4430
sg83
g4353
sg76
(lp4431
g69
(g90
g71
NtRp4432
(dp4433
g74
(dp4434
sg83
g4428
sg76
(lp4435
g69
(g70
g71
NtRp4436
(dp4437
g74
(dp4438
g82
I4
ssg83
g4432
sg76
(lp4439
g69
(g78
g71
NtRp4440
(dp4441
g74
(dp4442
g82
I3
ssg83
Nsg76
(lp4443
g69
(g85
g71
NtRp4444
(dp4445
g74
(dp4446
sg83
g4440
sg76
(lp4447
g69
(g90
g71
NtRp4448
(dp4449
g74
(dp4450
sg83
g4444
sg76
(lp4451
g69
(g70
g71
NtRp4452
(dp4453
g74
(dp4454
g82
I3
ssg83
g4448
sg76
(lp4455
g69
(cgluon.html
SPAN
p4456
g71
NtRp4457
(dp4458
g74
(dp4459
S'_class'
p4460
S'highlighted'
p4461
ssg83
Nsg76
(lp4462
g4331
asbasbasbasbag69
(g85
g71
NtRp4463
(dp4464
g74
(dp4465
sg83
g4440
sg76
(lp4466
g69
(g90
g71
NtRp4467
(dp4468
g74
(dp4469
sg83
g4463
sg76
(lp4470
g69
(g70
g71
NtRp4471
(dp4472
g74
(dp4473
g82
I3
ssg83
g4467
sg76
(lp4474
g112
asbasbasbag69
(g85
g71
NtRp4475
(dp4476
g74
(dp4477
sg83
g4440
sg76
(lp4478
g69
(g90
g71
NtRp4479
(dp4480
g74
(dp4481
sg83
g4475
sg76
(lp4482
g69
(g70
g71
NtRp4483
(dp4484
g74
(dp4485
g82
I3
ssg83
g4479
sg76
(lp4486
S'http://web2py.com'
p4487
asbasbasbag69
(g85
g71
NtRp4488
(dp4489
g74
(dp4490
sg83
g4440
sg76
(lp4491
g69
(g90
g71
NtRp4492
(dp4493
g74
(dp4494
sg83
g4488
sg76
(lp4495
g69
(g70
g71
NtRp4496
(dp4497
g74
(dp4498
g82
I3
ssg83
g4492
sg76
(lp4499
g69
(g78
g71
NtRp4500
(dp4501
g74
(dp4502
g82
I2
ssg83
Nsg76
(lp4503
g69
(g85
g71
NtRp4504
(dp4505
g74
(dp4506
sg83
g4500
sg76
(lp4507
g69
(g90
g71
NtRp4508
(dp4509
g74
(dp4510
sg83
g4504
sg76
(lp4511
g69
(g70
g71
NtRp4512
(dp4513
g74
(dp4514
g82
I2
ssg83
g4508
sg76
(lp4515
g69
(g78
g71
NtRp4516
(dp4517
g74
(dp4518
g82
I1
ssg83
Nsg76
(lp4519
g69
(g85
g71
NtRp4520
(dp4521
g74
(dp4522
sg83
g4516
sg76
(lp4523
g69
(g90
g71
NtRp4524
(dp4525
g74
(dp4526
sg83
g4520
sg76
(lp4527
g69
(g70
g71
NtRp4528
(dp4529
g74
(dp4530
g82
I1
ssg83
g4524
sg76
(lp4531
g4385
(S's\x08\x00\x00\x00My Sites'
tRp4532
asbasbasbag69
(g85
g71
NtRp4533
(dp4534
g74
(dp4535
sg83
g4516
sg76
(lp4536
g69
(g90
g71
NtRp4537
(dp4538
g74
(dp4539
sg83
g4533
sg76
(lp4540
g69
(g70
g71
NtRp4541
(dp4542
g74
(dp4543
g82
I1
ssg83
g4537
sg76
(lp4544
I00
asbasbasbag69
(g85
g71
NtRp4545
(dp4546
g74
(dp4547
sg83
g4516
sg76
(lp4548
g69
(g90
g71
NtRp4549
(dp4550
g74
(dp4551
sg83
g4545
sg76
(lp4552
g69
(g70
g71
NtRp4553
(dp4554
g74
(dp4555
g82
I1
ssg83
g4549
sg76
(lp4556
S'/admin/default/site'
p4557
asbasbasbasbasbasbasbag69
(g85
g71
NtRp4558
(dp4559
g74
(dp4560
sg83
g4500
sg76
(lp4561
g69
(g90
g71
NtRp4562
(dp4563
g74
(dp4564
sg83
g4558
sg76
(lp4565
g69
(g70
g71
NtRp4566
(dp4567
g74
(dp4568
g82
I2
ssg83
g4562
sg76
(lp4569
g69
(g78
g71
NtRp4570
(dp4571
g74
(dp4572
g82
I1
ssg83
Nsg76
(lp4573
g69
(g85
g71
NtRp4574
(dp4575
g74
(dp4576
sg83
g4570
sg76
(lp4577
g69
(g90
g71
NtRp4578
(dp4579
g74
(dp4580
sg83
g4574
sg76
(lp4581
g69
(g70
g71
NtRp4582
(dp4583
g74
(dp4584
g82
I1
ssg83
g4578
sg76
(lp4585
g4385
(S's\x08\x00\x00\x00This App'
tRp4586
asbasbasbag69
(g85
g71
NtRp4587
(dp4588
g74
(dp4589
sg83
g4570
sg76
(lp4590
g69
(g90
g71
NtRp4591
(dp4592
g74
(dp4593
sg83
g4587
sg76
(lp4594
g69
(g70
g71
NtRp4595
(dp4596
g74
(dp4597
g82
I1
ssg83
g4591
sg76
(lp4598
I00
asbasbasbag69
(g85
g71
NtRp4599
(dp4600
g74
(dp4601
sg83
g4570
sg76
(lp4602
g69
(g90
g71
NtRp4603
(dp4604
g74
(dp4605
sg83
g4599
sg76
(lp4606
g69
(g70
g71
NtRp4607
(dp4608
g74
(dp4609
g82
I1
ssg83
g4603
sg76
(lp4610
S'/admin/default/design/music'
p4611
asbasbasbag69
(g85
g71
NtRp4612
(dp4613
g74
(dp4614
sg83
g4570
sg76
(lp4615
g69
(g90
g71
NtRp4616
(dp4617
g74
(dp4618
sg83
g4612
sg76
(lp4619
g69
(g70
g71
NtRp4620
(dp4621
g74
(dp4622
g82
I1
ssg83
g4616
sg76
(lp4623
(lp4624
(g4385
(S's\n\x00\x00\x00Controller'
tRp4625
I00
S'/admin/default/edit/music/controllers/default.py'
tp4626
a(g4385
(S's\x04\x00\x00\x00View'
tRp4627
I00
S'/admin/default/edit/music/views/default/index.html'
tp4628
a(g4385
(S's\x06\x00\x00\x00Layout'
tRp4629
I00
S'/admin/default/edit/music/views/layout.html'
tp4630
a(g4385
(S's\n\x00\x00\x00Stylesheet'
tRp4631
I00
S'/admin/default/edit/music/static/css/web2py.css'
tp4632
a(g4385
(S's\x08\x00\x00\x00DB Model'
tRp4633
I00
S'/admin/default/edit/music/models/db.py'
tp4634
a(g4385
(S's\n\x00\x00\x00Menu Model'
tRp4635
I00
S'/admin/default/edit/music/models/menu.py'
tp4636
a(g4385
(S's\x08\x00\x00\x00Database'
tRp4637
I00
S'/music/appadmin/index'
tp4638
a(g4385
(S's\x06\x00\x00\x00Errors'
tRp4639
I00
S'/admin/default/errors/music'
tp4640
a(g4385
(S's\x05\x00\x00\x00About'
tRp4641
I00
S'/admin/default/about/music'
tp4642
aasbasbasbasbasbasbasbag69
(g85
g71
NtRp4643
(dp4644
g74
(dp4645
sg83
g4500
sg76
(lp4646
g69
(g90
g71
NtRp4647
(dp4648
g74
(dp4649
sg83
g4643
sg76
(lp4650
g69
(g70
g71
NtRp4651
(dp4652
g74
(dp4653
g82
I2
ssg83
g4647
sg76
(lp4654
g69
(g78
g71
NtRp4655
(dp4656
g74
(dp4657
g82
I1
ssg83
Nsg76
(lp4658
g69
(g85
g71
NtRp4659
(dp4660
g74
(dp4661
sg83
g4655
sg76
(lp4662
g69
(g90
g71
NtRp4663
(dp4664
g74
(dp4665
sg83
g4659
sg76
(lp4666
g69
(g70
g71
NtRp4667
(dp4668
g74
(dp4669
g82
I1
ssg83
g4663
sg76
(lp4670
S'web2py.com'
p4671
asbasbasbag69
(g85
g71
NtRp4672
(dp4673
g74
(dp4674
sg83
g4655
sg76
(lp4675
g69
(g90
g71
NtRp4676
(dp4677
g74
(dp4678
sg83
g4672
sg76
(lp4679
g69
(g70
g71
NtRp4680
(dp4681
g74
(dp4682
g82
I1
ssg83
g4676
sg76
(lp4683
I00
asbasbasbag69
(g85
g71
NtRp4684
(dp4685
g74
(dp4686
sg83
g4655
sg76
(lp4687
g69
(g90
g71
NtRp4688
(dp4689
g74
(dp4690
sg83
g4684
sg76
(lp4691
g69
(g70
g71
NtRp4692
(dp4693
g74
(dp4694
g82
I1
ssg83
g4688
sg76
(lp4695
S'http://www.web2py.com'
p4696
asbasbasbag69
(g85
g71
NtRp4697
(dp4698
g74
(dp4699
sg83
g4655
sg76
(lp4700
g69
(g90
g71
NtRp4701
(dp4702
g74
(dp4703
sg83
g4697
sg76
(lp4704
g69
(g70
g71
NtRp4705
(dp4706
g74
(dp4707
g82
I1
ssg83
g4701
sg76
(lp4708
(lp4709
(g4385
(S's\x08\x00\x00\x00Download'
tRp4710
I00
S'http://www.web2py.com/examples/default/download'
p4711
tp4712
a(g4385
(S's\x07\x00\x00\x00Support'
tRp4713
I00
S'http://www.web2py.com/examples/default/support'
p4714
tp4715
a(g4385
(S's\x04\x00\x00\x00Demo'
tRp4716
I00
S'http://web2py.com/demo_admin'
p4717
tp4718
a(g4385
(S's\x0e\x00\x00\x00Quick Examples'
tRp4719
I00
S'http://web2py.com/examples/default/examples'
p4720
tp4721
a(g4385
(S's\x03\x00\x00\x00FAQ'
tRp4722
I00
S'http://web2py.com/AlterEgo'
p4723
tp4724
a(g4385
(S's\x06\x00\x00\x00Videos'
tRp4725
I00
S'http://www.web2py.com/examples/default/videos/'
p4726
tp4727
a(g4385
(S's\x11\x00\x00\x00Free Applications'
tRp4728
I00
S'http://web2py.com/appliances'
p4729
tp4730
a(g4385
(S's\x07\x00\x00\x00Plugins'
tRp4731
I00
S'http://web2py.com/plugins'
p4732
tp4733
a(g4385
(S's\x07\x00\x00\x00Layouts'
tRp4734
I00
S'http://web2py.com/layouts'
p4735
tp4736
a(g4385
(S's\x07\x00\x00\x00Recipes'
tRp4737
I00
S'http://web2pyslices.com/'
p4738
tp4739
a(g4385
(S's\x08\x00\x00\x00Semantic'
tRp4740
I00
S'http://web2py.com/semantic'
p4741
tp4742
aasbasbasbasbasbasbasbag69
(g85
g71
NtRp4743
(dp4744
g74
(dp4745
sg83
g4500
sg76
(lp4746
g69
(g90
g71
NtRp4747
(dp4748
g74
(dp4749
sg83
g4743
sg76
(lp4750
g69
(g70
g71
NtRp4751
(dp4752
g74
(dp4753
g82
I2
ssg83
g4747
sg76
(lp4754
g69
(g78
g71
NtRp4755
(dp4756
g74
(dp4757
g82
I1
ssg83
Nsg76
(lp4758
g69
(g85
g71
NtRp4759
(dp4760
g74
(dp4761
sg83
g4755
sg76
(lp4762
g69
(g90
g71
NtRp4763
(dp4764
g74
(dp4765
sg83
g4759
sg76
(lp4766
g69
(g70
g71
NtRp4767
(dp4768
g74
(dp4769
g82
I1
ssg83
g4763
sg76
(lp4770
g4385
(S's\r\x00\x00\x00Documentation'
tRp4771
asbasbasbag69
(g85
g71
NtRp4772
(dp4773
g74
(dp4774
sg83
g4755
sg76
(lp4775
g69
(g90
g71
NtRp4776
(dp4777
g74
(dp4778
sg83
g4772
sg76
(lp4779
g69
(g70
g71
NtRp4780
(dp4781
g74
(dp4782
g82
I1
ssg83
g4776
sg76
(lp4783
I00
asbasbasbag69
(g85
g71
NtRp4784
(dp4785
g74
(dp4786
sg83
g4755
sg76
(lp4787
g69
(g90
g71
NtRp4788
(dp4789
g74
(dp4790
sg83
g4784
sg76
(lp4791
g69
(g70
g71
NtRp4792
(dp4793
g74
(dp4794
g82
I1
ssg83
g4788
sg76
(lp4795
S'http://www.web2py.com/book'
p4796
asbasbasbag69
(g85
g71
NtRp4797
(dp4798
g74
(dp4799
sg83
g4755
sg76
(lp4800
g69
(g90
g71
NtRp4801
(dp4802
g74
(dp4803
sg83
g4797
sg76
(lp4804
g69
(g70
g71
NtRp4805
(dp4806
g74
(dp4807
g82
I1
ssg83
g4801
sg76
(lp4808
(lp4809
(g4385
(S's\x07\x00\x00\x00Preface'
tRp4810
I00
S'http://www.web2py.com/book/default/chapter/00'
p4811
tp4812
a(g4385
(S's\x0c\x00\x00\x00Introduction'
tRp4813
I00
S'http://www.web2py.com/book/default/chapter/01'
p4814
tp4815
a(g4385
(S's\x06\x00\x00\x00Python'
tRp4816
I00
S'http://www.web2py.com/book/default/chapter/02'
p4817
tp4818
a(g4385
(S's\x08\x00\x00\x00Overview'
tRp4819
I00
S'http://www.web2py.com/book/default/chapter/03'
p4820
tp4821
a(g4385
(S's\x08\x00\x00\x00The Core'
tRp4822
I00
S'http://www.web2py.com/book/default/chapter/04'
p4823
tp4824
a(g4385
(S's\t\x00\x00\x00The Views'
tRp4825
I00
S'http://www.web2py.com/book/default/chapter/05'
p4826
tp4827
a(g4385
(S's\x08\x00\x00\x00Database'
tRp4828
I00
S'http://www.web2py.com/book/default/chapter/06'
p4829
tp4830
a(g4385
(S's\x14\x00\x00\x00Forms and Validators'
tRp4831
I00
S'http://www.web2py.com/book/default/chapter/07'
p4832
tp4833
a(g4385
(S's\r\x00\x00\x00Email and SMS'
tRp4834
I00
S'http://www.web2py.com/book/default/chapter/08'
p4835
tp4836
a(g4385
(S's\x0e\x00\x00\x00Access Control'
tRp4837
I00
S'http://www.web2py.com/book/default/chapter/09'
p4838
tp4839
a(g4385
(S's\x08\x00\x00\x00Services'
tRp4840
I00
S'http://www.web2py.com/book/default/chapter/10'
p4841
tp4842
a(g4385
(S's\x0c\x00\x00\x00Ajax Recipes'
tRp4843
I00
S'http://www.web2py.com/book/default/chapter/11'
p4844
tp4845
a(g4385
(S's\x16\x00\x00\x00Components and Plugins'
tRp4846
I00
S'http://www.web2py.com/book/default/chapter/12'
p4847
tp4848
a(g4385
(S's\x12\x00\x00\x00Deployment Recipes'
tRp4849
I00
S'http://www.web2py.com/book/default/chapter/13'
p4850
tp4851
a(g4385
(S's\r\x00\x00\x00Other Recipes'
tRp4852
I00
S'http://www.web2py.com/book/default/chapter/14'
p4853
tp4854
a(g4385
(S's\r\x00\x00\x00Buy this book'
tRp4855
I00
S'http://stores.lulu.com/web2py'
p4856
tp4857
aasbasbasbasbasbasbasbag69
(g85
g71
NtRp4858
(dp4859
g74
(dp4860
sg83
g4500
sg76
(lp4861
g69
(g90
g71
NtRp4862
(dp4863
g74
(dp4864
sg83
g4858
sg76
(lp4865
g69
(g70
g71
NtRp4866
(dp4867
g74
(dp4868
g82
I2
ssg83
g4862
sg76
(lp4869
g69
(g78
g71
NtRp4870
(dp4871
g74
(dp4872
g82
I1
ssg83
Nsg76
(lp4873
g69
(g85
g71
NtRp4874
(dp4875
g74
(dp4876
sg83
g4870
sg76
(lp4877
g69
(g90
g71
NtRp4878
(dp4879
g74
(dp4880
sg83
g4874
sg76
(lp4881
g69
(g70
g71
NtRp4882
(dp4883
g74
(dp4884
g82
I1
ssg83
g4878
sg76
(lp4885
g4385
(S's\t\x00\x00\x00Community'
tRp4886
asbasbasbag69
(g85
g71
NtRp4887
(dp4888
g74
(dp4889
sg83
g4870
sg76
(lp4890
g69
(g90
g71
NtRp4891
(dp4892
g74
(dp4893
sg83
g4887
sg76
(lp4894
g69
(g70
g71
NtRp4895
(dp4896
g74
(dp4897
g82
I1
ssg83
g4891
sg76
(lp4898
I00
asbasbasbag69
(g85
g71
NtRp4899
(dp4900
g74
(dp4901
sg83
g4870
sg76
(lp4902
g69
(g90
g71
NtRp4903
(dp4904
g74
(dp4905
sg83
g4899
sg76
(lp4906
g69
(g70
g71
NtRp4907
(dp4908
g74
(dp4909
g82
I1
ssg83
g4903
sg76
(lp4910
Nasbasbasbag69
(g85
g71
NtRp4911
(dp4912
g74
(dp4913
sg83
g4870
sg76
(lp4914
g69
(g90
g71
NtRp4915
(dp4916
g74
(dp4917
sg83
g4911
sg76
(lp4918
g69
(g70
g71
NtRp4919
(dp4920
g74
(dp4921
g82
I1
ssg83
g4915
sg76
(lp4922
(lp4923
(g4385
(S's\x06\x00\x00\x00Groups'
tRp4924
I00
S'http://www.web2py.com/examples/default/usergroups'
p4925
tp4926
a(g4385
(S's\x07\x00\x00\x00Twitter'
tRp4927
I00
S'http://twitter.com/web2py'
p4928
tp4929
a(g4385
(S's\t\x00\x00\x00Live Chat'
tRp4930
I00
S'http://webchat.freenode.net/?channels=web2py'
p4931
tp4932
aasbasbasbasbasbasbasbag69
(g85
g71
NtRp4933
(dp4934
g74
(dp4935
sg83
g4500
sg76
(lp4936
g69
(g90
g71
NtRp4937
(dp4938
g74
(dp4939
sg83
g4933
sg76
(lp4940
g69
(g70
g71
NtRp4941
(dp4942
g74
(dp4943
g82
I2
ssg83
g4937
sg76
(lp4944
g69
(g78
g71
NtRp4945
(dp4946
g74
(dp4947
g82
I1
ssg83
Nsg76
(lp4948
g69
(g85
g71
NtRp4949
(dp4950
g74
(dp4951
sg83
g4945
sg76
(lp4952
g69
(g90
g71
NtRp4953
(dp4954
g74
(dp4955
sg83
g4949
sg76
(lp4956
g69
(g70
g71
NtRp4957
(dp4958
g74
(dp4959
g82
I1
ssg83
g4953
sg76
(lp4960
g4385
(S's\x07\x00\x00\x00Plugins'
tRp4961
asbasbasbag69
(g85
g71
NtRp4962
(dp4963
g74
(dp4964
sg83
g4945
sg76
(lp4965
g69
(g90
g71
NtRp4966
(dp4967
g74
(dp4968
sg83
g4962
sg76
(lp4969
g69
(g70
g71
NtRp4970
(dp4971
g74
(dp4972
g82
I1
ssg83
g4966
sg76
(lp4973
I00
asbasbasbag69
(g85
g71
NtRp4974
(dp4975
g74
(dp4976
sg83
g4945
sg76
(lp4977
g69
(g90
g71
NtRp4978
(dp4979
g74
(dp4980
sg83
g4974
sg76
(lp4981
g69
(g70
g71
NtRp4982
(dp4983
g74
(dp4984
g82
I1
ssg83
g4978
sg76
(lp4985
Nasbasbasbag69
(g85
g71
NtRp4986
(dp4987
g74
(dp4988
sg83
g4945
sg76
(lp4989
g69
(g90
g71
NtRp4990
(dp4991
g74
(dp4992
sg83
g4986
sg76
(lp4993
g69
(g70
g71
NtRp4994
(dp4995
g74
(dp4996
g82
I1
ssg83
g4990
sg76
(lp4997
(lp4998
(S'plugin_wiki'
p4999
I00
S'http://web2py.com/examples/default/download'
p5000
tp5001
a(g4385
(S's\r\x00\x00\x00Other Plugins'
tRp5002
I00
g4732
tp5003
a(g4385
(S's\x0e\x00\x00\x00Layout Plugins'
tRp5004
I00
g4735
tp5005
aasbasbasbasbasbasbasbasbasbasbasbasbasbasbasbasbasbasbasbag69
(g85
g71
NtRp5006
(dp5007
g74
(dp5008
sg83
g3895
sg76
(lp5009
g69
(g90
g71
NtRp5010
(dp5011
g74
(dp5012
g94
g95
ssg83
g5006
sg76
(lp5013
S'meta'
p5014
asbag69
(g90
g71
NtRp5015
(dp5016
g74
(dp5017
g101
g102
ssg83
g5006
sg76
(lp5018
S':'
asbag69
(g90
g71
NtRp5019
(dp5020
g74
(dp5021
sg83
g5006
sg76
(lp5022
g69
(g70
g71
NtRp5023
(dp5024
g74
(dp5025
g82
I5
ssg83
g5019
sg76
(lp5026
g69
(g78
g71
NtRp5027
(dp5028
g74
(dp5029
g82
I4
ssg83
Nsg76
(lp5030
g69
(g85
g71
NtRp5031
(dp5032
g74
(dp5033
sg83
g5027
sg76
(lp5034
g69
(g90
g71
NtRp5035
(dp5036
g74
(dp5037
g94
g95
ssg83
g5031
sg76
(lp5038
S'author'
p5039
asbag69
(g90
g71
NtRp5040
(dp5041
g74
(dp5042
g101
g102
ssg83
g5031
sg76
(lp5043
S':'
asbag69
(g90
g71
NtRp5044
(dp5045
g74
(dp5046
sg83
g5031
sg76
(lp5047
g69
(g70
g71
NtRp5048
(dp5049
g74
(dp5050
g82
I4
ssg83
g5044
sg76
(lp5051
S'Your Name <you@example.com>'
p5052
asbasbasbag69
(g85
g71
NtRp5053
(dp5054
g74
(dp5055
sg83
g5027
sg76
(lp5056
g69
(g90
g71
NtRp5057
(dp5058
g74
(dp5059
g94
g95
ssg83
g5053
sg76
(lp5060
S'description'
p5061
asbag69
(g90
g71
NtRp5062
(dp5063
g74
(dp5064
g101
g102
ssg83
g5053
sg76
(lp5065
S':'
asbag69
(g90
g71
NtRp5066
(dp5067
g74
(dp5068
sg83
g5053
sg76
(lp5069
g69
(g70
g71
NtRp5070
(dp5071
g74
(dp5072
g82
I4
ssg83
g5066
sg76
(lp5073
S'a cool new app'
p5074
asbasbasbag69
(g85
g71
NtRp5075
(dp5076
g74
(dp5077
sg83
g5027
sg76
(lp5078
g69
(g90
g71
NtRp5079
(dp5080
g74
(dp5081
g94
g95
ssg83
g5075
sg76
(lp5082
S'generator'
p5083
asbag69
(g90
g71
NtRp5084
(dp5085
g74
(dp5086
g101
g102
ssg83
g5075
sg76
(lp5087
S':'
asbag69
(g90
g71
NtRp5088
(dp5089
g74
(dp5090
sg83
g5075
sg76
(lp5091
g69
(g70
g71
NtRp5092
(dp5093
g74
(dp5094
g82
I4
ssg83
g5088
sg76
(lp5095
S'Web2py Web Framework'
p5096
asbasbasbag69
(g85
g71
NtRp5097
(dp5098
g74
(dp5099
sg83
g5027
sg76
(lp5100
g69
(g90
g71
NtRp5101
(dp5102
g74
(dp5103
g94
g95
ssg83
g5097
sg76
(lp5104
S'keywords'
p5105
asbag69
(g90
g71
NtRp5106
(dp5107
g74
(dp5108
g101
g102
ssg83
g5097
sg76
(lp5109
S':'
asbag69
(g90
g71
NtRp5110
(dp5111
g74
(dp5112
sg83
g5097
sg76
(lp5113
g69
(g70
g71
NtRp5114
(dp5115
g74
(dp5116
g82
I4
ssg83
g5110
sg76
(lp5117
S'web2py, python, framework'
p5118
asbasbasbasbasbasbasbag69
(g85
g71
NtRp5119
(dp5120
g74
(dp5121
sg83
g3895
sg76
(lp5122
g69
(g90
g71
NtRp5123
(dp5124
g74
(dp5125
g94
g95
ssg83
g5119
sg76
(lp5126
S'models_to_run'
p5127
asbag69
(g90
g71
NtRp5128
(dp5129
g74
(dp5130
g101
g102
ssg83
g5119
sg76
(lp5131
S':'
asbag69
(g90
g71
NtRp5132
(dp5133
g74
(dp5134
sg83
g5119
sg76
(lp5135
g69
(g70
g71
NtRp5136
(dp5137
g74
(dp5138
g82
I5
ssg83
g5132
sg76
(lp5139
g69
(g78
g71
NtRp5140
(dp5141
g74
(dp5142
g82
I4
ssg83
Nsg76
(lp5143
g69
(g85
g71
NtRp5144
(dp5145
g74
(dp5146
sg83
g5140
sg76
(lp5147
g69
(g90
g71
NtRp5148
(dp5149
g74
(dp5150
sg83
g5144
sg76
(lp5151
g69
(g70
g71
NtRp5152
(dp5153
g74
(dp5154
g82
I4
ssg83
g5148
sg76
(lp5155
S'^\\w+\\.py$'
p5156
asbasbasbag69
(g85
g71
NtRp5157
(dp5158
g74
(dp5159
sg83
g5140
sg76
(lp5160
g69
(g90
g71
NtRp5161
(dp5162
g74
(dp5163
sg83
g5157
sg76
(lp5164
g69
(g70
g71
NtRp5165
(dp5166
g74
(dp5167
g82
I4
ssg83
g5161
sg76
(lp5168
S'^default/\\w+\\.py$'
p5169
asbasbasbag69
(g85
g71
NtRp5170
(dp5171
g74
(dp5172
sg83
g5140
sg76
(lp5173
g69
(g90
g71
NtRp5174
(dp5175
g74
(dp5176
sg83
g5170
sg76
(lp5177
g69
(g70
g71
NtRp5178
(dp5179
g74
(dp5180
g82
I4
ssg83
g5174
sg76
(lp5181
S'^default/index/\\w+\\.py$'
p5182
asbasbasbasbasbasbasbag69
(g85
g71
NtRp5183
(dp5184
g74
(dp5185
sg83
g3895
sg76
(lp5186
g69
(g90
g71
NtRp5187
(dp5188
g74
(dp5189
g94
g95
ssg83
g5183
sg76
(lp5190
S'postprocessing'
p5191
asbag69
(g90
g71
NtRp5192
(dp5193
g74
(dp5194
g101
g102
ssg83
g5183
sg76
(lp5195
S':'
asbag69
(g90
g71
NtRp5196
(dp5197
g74
(dp5198
sg83
g5183
sg76
(lp5199
g69
(g70
g71
NtRp5200
(dp5201
g74
(dp5202
g82
I5
ssg83
g5196
sg76
(lp5203
g69
(g78
g71
NtRp5204
(dp5205
g74
(dp5206
g82
I4
ssg83
Nsg76
(lp5207
sbasbasbasbag69
(g85
g71
NtRp5208
(dp5209
g74
(dp5210
sg83
g3895
sg76
(lp5211
g69
(g90
g71
NtRp5212
(dp5213
g74
(dp5214
g94
g95
ssg83
g5208
sg76
(lp5215
S'session_cookie_expires'
p5216
asbag69
(g90
g71
NtRp5217
(dp5218
g74
(dp5219
g101
g102
ssg83
g5208
sg76
(lp5220
S':'
asbag69
(g90
g71
NtRp5221
(dp5222
g74
(dp5223
sg83
g5208
sg76
(lp5224
g69
(g70
g71
NtRp5225
(dp5226
g74
(dp5227
g82
I5
ssg83
g5221
sg76
(lp5228
S'None'
p5229
asbasbasbag69
(g85
g71
NtRp5230
(dp5231
g74
(dp5232
sg83
g3895
sg76
(lp5233
g69
(g90
g71
NtRp5234
(dp5235
g74
(dp5236
g94
g95
ssg83
g5230
sg76
(lp5237
S'session_data_name'
p5238
asbag69
(g90
g71
NtRp5239
(dp5240
g74
(dp5241
g101
g102
ssg83
g5230
sg76
(lp5242
S':'
asbag69
(g90
g71
NtRp5243
(dp5244
g74
(dp5245
sg83
g5230
sg76
(lp5246
g69
(g70
g71
NtRp5247
(dp5248
g74
(dp5249
g82
I5
ssg83
g5243
sg76
(lp5250
S'session_data_music'
p5251
asbasbasbag69
(g85
g71
NtRp5252
(dp5253
g74
(dp5254
sg83
g3895
sg76
(lp5255
g69
(g90
g71
NtRp5256
(dp5257
g74
(dp5258
g94
g95
ssg83
g5252
sg76
(lp5259
S'session_file'
p5260
asbag69
(g90
g71
NtRp5261
(dp5262
g74
(dp5263
g101
g102
ssg83
g5252
sg76
(lp5264
S':'
asbag69
(g90
g71
NtRp5265
(dp5266
g74
(dp5267
sg83
g5252
sg76
(lp5268
g69
(g70
g71
NtRp5269
(dp5270
g74
(dp5271
g82
I5
ssg83
g5265
sg76
(lp5272
S"<open file '/home/wionel/Desktop/web2py/applications/music/sessions/127.0.0.1-92da3b83-fed7-44df-b88a-33b15f1ac0a2', mode 'rb+' at 0x7f97940f2ed0>"
p5273
asbasbasbag69
(g85
g71
NtRp5274
(dp5275
g74
(dp5276
sg83
g3895
sg76
(lp5277
g69
(g90
g71
NtRp5278
(dp5279
g74
(dp5280
g94
g95
ssg83
g5274
sg76
(lp5281
S'session_filename'
p5282
asbag69
(g90
g71
NtRp5283
(dp5284
g74
(dp5285
g101
g102
ssg83
g5274
sg76
(lp5286
S':'
asbag69
(g90
g71
NtRp5287
(dp5288
g74
(dp5289
sg83
g5274
sg76
(lp5290
g69
(g70
g71
NtRp5291
(dp5292
g74
(dp5293
g82
I5
ssg83
g5287
sg76
(lp5294
S'/home/wionel/Desktop/web2py/applications/music/sessions/127.0.0.1-92da3b83-fed7-44df-b88a-33b15f1ac0a2'
p5295
asbasbasbag69
(g85
g71
NtRp5296
(dp5297
g74
(dp5298
sg83
g3895
sg76
(lp5299
g69
(g90
g71
NtRp5300
(dp5301
g74
(dp5302
g94
g95
ssg83
g5296
sg76
(lp5303
S'session_id'
p5304
asbag69
(g90
g71
NtRp5305
(dp5306
g74
(dp5307
g101
g102
ssg83
g5296
sg76
(lp5308
S':'
asbag69
(g90
g71
NtRp5309
(dp5310
g74
(dp5311
sg83
g5296
sg76
(lp5312
g69
(g70
g71
NtRp5313
(dp5314
g74
(dp5315
g82
I5
ssg83
g5309
sg76
(lp5316
g487
asbasbasbag69
(g85
g71
NtRp5317
(dp5318
g74
(dp5319
sg83
g3895
sg76
(lp5320
g69
(g90
g71
NtRp5321
(dp5322
g74
(dp5323
g94
g95
ssg83
g5317
sg76
(lp5324
S'session_id_name'
p5325
asbag69
(g90
g71
NtRp5326
(dp5327
g74
(dp5328
g101
g102
ssg83
g5317
sg76
(lp5329
S':'
asbag69
(g90
g71
NtRp5330
(dp5331
g74
(dp5332
sg83
g5317
sg76
(lp5333
g69
(g70
g71
NtRp5334
(dp5335
g74
(dp5336
g82
I5
ssg83
g5330
sg76
(lp5337
g3952
asbasbasbag69
(g85
g71
NtRp5338
(dp5339
g74
(dp5340
sg83
g3895
sg76
(lp5341
g69
(g90
g71
NtRp5342
(dp5343
g74
(dp5344
g94
g95
ssg83
g5338
sg76
(lp5345
S'session_locked'
p5346
asbag69
(g90
g71
NtRp5347
(dp5348
g74
(dp5349
g101
g102
ssg83
g5338
sg76
(lp5350
S':'
asbag69
(g90
g71
NtRp5351
(dp5352
g74
(dp5353
sg83
g5338
sg76
(lp5354
g69
(g70
g71
NtRp5355
(dp5356
g74
(dp5357
g82
I5
ssg83
g5351
sg76
(lp5358
g1824
asbasbasbag69
(g85
g71
NtRp5359
(dp5360
g74
(dp5361
sg83
g3895
sg76
(lp5362
g69
(g90
g71
NtRp5363
(dp5364
g74
(dp5365
g94
g95
ssg83
g5359
sg76
(lp5366
S'session_new'
p5367
asbag69
(g90
g71
NtRp5368
(dp5369
g74
(dp5370
g101
g102
ssg83
g5359
sg76
(lp5371
S':'
asbag69
(g90
g71
NtRp5372
(dp5373
g74
(dp5374
sg83
g5359
sg76
(lp5375
g69
(g70
g71
NtRp5376
(dp5377
g74
(dp5378
g82
I5
ssg83
g5372
sg76
(lp5379
g112
asbasbasbag69
(g85
g71
NtRp5380
(dp5381
g74
(dp5382
sg83
g3895
sg76
(lp5383
g69
(g90
g71
NtRp5384
(dp5385
g74
(dp5386
g94
g95
ssg83
g5380
sg76
(lp5387
S'session_storage_type'
p5388
asbag69
(g90
g71
NtRp5389
(dp5390
g74
(dp5391
g101
g102
ssg83
g5380
sg76
(lp5392
S':'
asbag69
(g90
g71
NtRp5393
(dp5394
g74
(dp5395
sg83
g5380
sg76
(lp5396
g69
(g70
g71
NtRp5397
(dp5398
g74
(dp5399
g82
I5
ssg83
g5393
sg76
(lp5400
g3297
asbasbasbag69
(g85
g71
NtRp5401
(dp5402
g74
(dp5403
sg83
g3895
sg76
(lp5404
g69
(g90
g71
NtRp5405
(dp5406
g74
(dp5407
g94
g95
ssg83
g5401
sg76
(lp5408
S'status'
p5409
asbag69
(g90
g71
NtRp5410
(dp5411
g74
(dp5412
g101
g102
ssg83
g5401
sg76
(lp5413
S':'
asbag69
(g90
g71
NtRp5414
(dp5415
g74
(dp5416
sg83
g5401
sg76
(lp5417
g69
(g70
g71
NtRp5418
(dp5419
g74
(dp5420
g82
I5
ssg83
g5414
sg76
(lp5421
S'200'
p5422
asbasbasbag69
(g85
g71
NtRp5423
(dp5424
g74
(dp5425
sg83
g3895
sg76
(lp5426
g69
(g90
g71
NtRp5427
(dp5428
g74
(dp5429
g94
g95
ssg83
g5423
sg76
(lp5430
S'subtitle'
p5431
asbag69
(g90
g71
NtRp5432
(dp5433
g74
(dp5434
g101
g102
ssg83
g5423
sg76
(lp5435
S':'
asbag69
(g90
g71
NtRp5436
(dp5437
g74
(dp5438
sg83
g5423
sg76
(lp5439
g69
(g70
g71
NtRp5440
(dp5441
g74
(dp5442
g82
I5
ssg83
g5436
sg76
(lp5443
g4385
(S's\r\x00\x00\x00customize me!'
tRp5444
asbasbasbag69
(g85
g71
NtRp5445
(dp5446
g74
(dp5447
sg83
g3895
sg76
(lp5448
g69
(g90
g71
NtRp5449
(dp5450
g74
(dp5451
g94
g95
ssg83
g5445
sg76
(lp5452
S'title'
p5453
asbag69
(g90
g71
NtRp5454
(dp5455
g74
(dp5456
g101
g102
ssg83
g5445
sg76
(lp5457
S':'
asbag69
(g90
g71
NtRp5458
(dp5459
g74
(dp5460
sg83
g5445
sg76
(lp5461
g69
(g70
g71
NtRp5462
(dp5463
g74
(dp5464
g82
I5
ssg83
g5458
sg76
(lp5465
S'Music'
p5466
asbasbasbag69
(g85
g71
NtRp5467
(dp5468
g74
(dp5469
sg83
g3895
sg76
(lp5470
g69
(g90
g71
NtRp5471
(dp5472
g74
(dp5473
g94
g95
ssg83
g5467
sg76
(lp5474
S'view'
p5475
asbag69
(g90
g71
NtRp5476
(dp5477
g74
(dp5478
g101
g102
ssg83
g5467
sg76
(lp5479
S':'
asbag69
(g90
g71
NtRp5480
(dp5481
g74
(dp5482
sg83
g5467
sg76
(lp5483
g69
(g70
g71
NtRp5484
(dp5485
g74
(dp5486
g82
I5
ssg83
g5480
sg76
(lp5487
S'default/index.html'
p5488
asbasbasbasbasbsS'locals'
p5489
(dp5490
S'tables'
p5491
S'<bound method SQLiteAdapter.tables of <gluon.dal.SQLiteAdapter object>>'
p5492
sS'fields'
p5493
S'[]'
p5494
sS'self'
p5495
S'<gluon.dal.SQLiteAdapter object>'
p5496
sS'tablenames'
p5497
S'[]'
p5498
sS'query'
p5499
g1824
sg74
g21
sS'args_get'
p5500
S'<built-in method get of dict object>'
p5501
sssS'traceback'
p5502
S'Traceback (most recent call last):\n  File "/home/wionel/Desktop/web2py/gluon/restricted.py", line 212, in restricted\n    exec ccode in environment\n  File "/home/wionel/Desktop/web2py/applications/music/controllers/default.py", line 148, in <module>\n  File "/home/wionel/Desktop/web2py/gluon/globals.py", line 188, in <lambda>\n    self._caller = lambda f: f()\n  File "/home/wionel/Desktop/web2py/applications/music/controllers/default.py", line 29, in index\n    return dict(message=message ,isloggedin=\'true\', playlist_exist=\'true\', songs=songs, playlistName=playlistName,public_playlists= db(db.playlist.shared in [2,1]).select())\n  File "/home/wionel/Desktop/web2py/gluon/dal.py", line 8788, in select\n    return adapter.select(self.query,fields,attributes)\n  File "/home/wionel/Desktop/web2py/gluon/dal.py", line 2128, in select\n    return super(SQLiteAdapter, self).select(query, fields, attributes)\n  File "/home/wionel/Desktop/web2py/gluon/dal.py", line 1603, in select\n    sql = self._select(query, fields, attributes)\n  File "/home/wionel/Desktop/web2py/gluon/dal.py", line 1459, in _select\n    raise SyntaxError, \'Set: no tables selected\'\nSyntaxError: Set: no tables selected\n'
p5503
s.