(dp1
S'output'
p2
S"<type 'exceptions.UnboundLocalError'> local variable 'id' referenced before assignment"
p3
sS'layer'
p4
S'/home/wionel/Desktop/web2py/applications/music/controllers/default.py'
p5
sS'code'
p6
S'# -*- coding: utf-8 -*-\n# this file is released under public domain and you can use without limitations\n\n#########################################################################\n## This is a samples controller\n## - index is the default action of any application\n## - user is required for authentication and authorization\n## - download is for downloading files uploaded in the db (does streaming)\n## - call exposes all registered services (none by default)\n#########################################################################\n\n\ndef index():\n    """\n    example action using the internationalization operator T and flash\n    rendered by views/default/index.html or views/generic.html\n\n    if you need a simple wiki simple replace the two lines below with:\n    return auth.wiki()\n    \n                row=db((db.people.name==request.args(0))&  \n               (db.people.company_id==db.company.id)).select().first()\n """\n    if(auth.is_logged_in()):\n        id = auth.user_id\n        row=db(db.playlist.user_id==id).select().first()\n        if (str(row)=="None"):\n            response.flash = T("You do no have playlist configured!")\n            return dict(message=T(\'Wel-Come To IIIT Music Store !!\'),isloggedin=\'true\')\n        else:\n            songIds=row.songlist.split(",")\n            songs = [];\n            playlistName = row.name\n            for id in songIds:\n                songs.append(db(db.song.id==id).select().first())\n            pass  \n            #response.flash = T(str(songs[0].title))\n            message = \'Wel-Come To IIIT Music Store !!\'\n            return dict(message=T(message) ,isloggedin=\'true\', playlist_exist=\'true\', songs=songs, playlistName=playlistName)\n            pass\n    else:\n        response.flash = T("Please log in listen to your playlist!")\n        return dict(message=T(\'Wel-Come To IIIT Music Store !!\'))\n    pass\n    \ndef playlist():\n    message=T(\'Wel-Come To IIIT Music Store !!\');\n    if(auth.is_logged_in()):\n        user_id = auth.user_id\n        row=db(db.playlist.user_id == user_id).select().first()    \n        if (str(row)!="None"):\n            songs = []\n            p_songs = []\n            all_songs = db(db.song).select()        \n            songIds = row.songlist.split(",")\n            for song in all_songs:\n                if str(song[\'id\']) not in songIds:\n                        songs.append(song)\n                pass\n            pass\n            for id in songIds:\n                p_songs.append(db(db.song.id==id).select().first())\n            pass \n        return dict(title="Edit Playlist",songlist = \',\'.join(songIds),message=message,isloggedin=\'true\',songs=songs,p_songs=p_songs)\n    else:\n       return dict(message=message,isloggedin=\'true\',songs=db(db.song).select())\n\ndef save():\n    user_id=auth.user_id;\n    playlist_name = request.vars.playlist_name;\n    songlist= request.vars.songlist;\n    \n    row=db(db.playlist.user_id == user_id).select().first()    \n    if (str(row)!="None"):\n        row.update_record(songlist=songlist)\n        if(id!=-1):\n            response.flash(T("Playlist updated succesfully!!"))\n        else:\n            response.flash(T("Error occured. PLease login again !!"))\n        pass\n    else:\n        id = db.playlist.insert(user_id=user_id,name=playlist_name,songlist=songlist)\n        if(id!=-1):\n            response.flash(T("Playlist created succesfully!!"))\n        else:\n            response.flash(T("Error occured. PLease login again !!"))\n        pass\n    pass\n    redirect(URL(\'index\'))\n    \ndef edit():\n\n    redirect(URL(\'playlist\'))\n\ndef user():\n    """\n    exposes:\n    http://..../[app]/default/user/login\n    http://..../[app]/default/user/logout\n    http://..../[app]/default/user/register\n    http://..../[app]/default/user/profile\n    http://..../[app]/default/user/retrieve_password\n    http://..../[app]/default/user/change_password\n    use @auth.requires_login()\n        @auth.requires_membership(\'group name\')\n        @auth.requires_permission(\'read\',\'table name\',record_id)\n    to decorate functions that need access control\n    """\n    return dict(form=auth())\n\n\ndef download():\n    """\n    allows downloading of uploaded files\n    http://..../[app]/default/download/[filename]\n    """\n    return response.download(request, db)\n\n\ndef call():\n    """\n    exposes services. for example:\n    http://..../[app]/default/call/jsonrpc\n    decorate with @services.jsonrpc the functions to expose\n    supports xml, json, xmlrpc, jsonrpc, amfrpc, rss, csv\n    """\n    return service()\n\n\n@auth.requires_signature()\ndef data():\n    """\n    http://..../[app]/default/data/tables\n    http://..../[app]/default/data/create/[table]\n    http://..../[app]/default/data/read/[table]/[id]\n    http://..../[app]/default/data/update/[table]/[id]\n    http://..../[app]/default/data/delete/[table]/[id]\n    http://..../[app]/default/data/select/[table]\n    http://..../[app]/default/data/search/[table]\n    but URLs must be signed, i.e. linked with\n      A(\'table\',_href=URL(\'data/tables\',user_signature=True))\n    or with the signed load operator\n      LOAD(\'default\',\'data.load\',args=\'tables\',ajax=True,user_signature=True)\n    """\n    return dict(form=crud())\n\nresponse._vars=response._caller(save)\n'
p7
sS'snapshot'
p8
(dp9
S'exception'
p10
(dp11
S'__hash__'
p12
S"<method-wrapper '__hash__' of exceptions.UnboundLocalError object>"
p13
sS'__setattr__'
p14
S"<method-wrapper '__setattr__' of exceptions.UnboundLocalError object>"
p15
sS'__reduce_ex__'
p16
S'<built-in method __reduce_ex__ of exceptions.UnboundLocalError object>'
p17
sS'__getslice__'
p18
S"<method-wrapper '__getslice__' of exceptions.UnboundLocalError object>"
p19
sS'__getitem__'
p20
S"<method-wrapper '__getitem__' of exceptions.UnboundLocalError object>"
p21
sS'__setstate__'
p22
S'<built-in method __setstate__ of exceptions.UnboundLocalError object>'
p23
sS'args'
p24
S'("local variable \'id\' referenced before assignment",)'
p25
sS'__reduce__'
p26
S'<built-in method __reduce__ of exceptions.UnboundLocalError object>'
p27
sS'__str__'
p28
S"<method-wrapper '__str__' of exceptions.UnboundLocalError object>"
p29
sS'__format__'
p30
S'<built-in method __format__ of exceptions.UnboundLocalError object>'
p31
sS'__getattribute__'
p32
S"<method-wrapper '__getattribute__' of exceptions.UnboundLocalError object>"
p33
sS'__class__'
p34
S"<type 'exceptions.UnboundLocalError'>"
p35
sS'__unicode__'
p36
S'<built-in method __unicode__ of exceptions.UnboundLocalError object>'
p37
sS'__delattr__'
p38
S"<method-wrapper '__delattr__' of exceptions.UnboundLocalError object>"
p39
sS'__subclasshook__'
p40
S'<built-in method __subclasshook__ of type object>'
p41
sS'__repr__'
p42
S"<method-wrapper '__repr__' of exceptions.UnboundLocalError object>"
p43
sS'__dict__'
p44
S'{}'
p45
sS'__sizeof__'
p46
S'<built-in method __sizeof__ of exceptions.UnboundLocalError object>'
p47
sS'__doc__'
p48
S"'Local name referenced but not bound to a value.'"
p49
sS'__init__'
p50
S"<method-wrapper '__init__' of exceptions.UnboundLocalError object>"
p51
sS'__new__'
p52
S'<built-in method __new__ of type object>'
p53
ssS'evalue'
p54
S"local variable 'id' referenced before assignment"
p55
sS'request'
p56
ccopy_reg
_reconstructor
p57
(cgluon.html
BEAUTIFY
p58
c__builtin__
object
p59
NtRp60
(dp61
S'attributes'
p62
(dp63
sS'components'
p64
(lp65
g57
(cgluon.html
TABLE
p66
g59
NtRp67
(dp68
g62
(dp69
S'level'
p70
I5
ssS'parent'
p71
Nsg64
(lp72
g57
(cgluon.html
TR
p73
g59
NtRp74
(dp75
g62
(dp76
sg71
g67
sg64
(lp77
g57
(cgluon.html
TD
p78
g59
NtRp79
(dp80
g62
(dp81
S'_style'
p82
S'font-weight:bold;vertical-align:top'
p83
ssg71
g74
sg64
(lp84
S'ajax'
p85
asbag57
(g78
g59
NtRp86
(dp87
g62
(dp88
S'_valign'
p89
S'top'
p90
ssg71
g74
sg64
(lp91
S':'
asbag57
(g78
g59
NtRp92
(dp93
g62
(dp94
sg71
g74
sg64
(lp95
g57
(g58
g59
NtRp96
(dp97
g62
(dp98
g70
I5
ssg71
g92
sg64
(lp99
S'False'
p100
asbasbasbag57
(g73
g59
NtRp101
(dp102
g62
(dp103
sg71
g67
sg64
(lp104
g57
(g78
g59
NtRp105
(dp106
g62
(dp107
g82
g83
ssg71
g101
sg64
(lp108
S'application'
p109
asbag57
(g78
g59
NtRp110
(dp111
g62
(dp112
g89
g90
ssg71
g101
sg64
(lp113
S':'
asbag57
(g78
g59
NtRp114
(dp115
g62
(dp116
sg71
g101
sg64
(lp117
g57
(g58
g59
NtRp118
(dp119
g62
(dp120
g70
I5
ssg71
g114
sg64
(lp121
S'music'
p122
asbasbasbag57
(g73
g59
NtRp123
(dp124
g62
(dp125
sg71
g67
sg64
(lp126
g57
(g78
g59
NtRp127
(dp128
g62
(dp129
g82
g83
ssg71
g123
sg64
(lp130
g24
asbag57
(g78
g59
NtRp131
(dp132
g62
(dp133
g89
g90
ssg71
g123
sg64
(lp134
S':'
asbag57
(g78
g59
NtRp135
(dp136
g62
(dp137
sg71
g123
sg64
(lp138
g57
(g58
g59
NtRp139
(dp140
g62
(dp141
g70
I5
ssg71
g135
sg64
(lp142
g57
(g66
g59
NtRp143
(dp144
g62
(dp145
g70
I4
ssg71
Nsg64
(lp146
sbasbasbasbag57
(g73
g59
NtRp147
(dp148
g62
(dp149
sg71
g67
sg64
(lp150
g57
(g78
g59
NtRp151
(dp152
g62
(dp153
g82
g83
ssg71
g147
sg64
(lp154
S'body'
p155
asbag57
(g78
g59
NtRp156
(dp157
g62
(dp158
g89
g90
ssg71
g147
sg64
(lp159
S':'
asbag57
(g78
g59
NtRp160
(dp161
g62
(dp162
sg71
g147
sg64
(lp163
g57
(g58
g59
NtRp164
(dp165
g62
(dp166
g70
I5
ssg71
g160
sg64
(lp167
S"<open file '<fdopen>', mode 'w+b' at 0x7f80e41984b0>"
p168
asbasbasbag57
(g73
g59
NtRp169
(dp170
g62
(dp171
sg71
g67
sg64
(lp172
g57
(g78
g59
NtRp173
(dp174
g62
(dp175
g82
g83
ssg71
g169
sg64
(lp176
S'cid'
p177
asbag57
(g78
g59
NtRp178
(dp179
g62
(dp180
g89
g90
ssg71
g169
sg64
(lp181
S':'
asbag57
(g78
g59
NtRp182
(dp183
g62
(dp184
sg71
g169
sg64
(lp185
g57
(g58
g59
NtRp186
(dp187
g62
(dp188
g70
I5
ssg71
g182
sg64
(lp189
S'None'
p190
asbasbasbag57
(g73
g59
NtRp191
(dp192
g62
(dp193
sg71
g67
sg64
(lp194
g57
(g78
g59
NtRp195
(dp196
g62
(dp197
g82
g83
ssg71
g191
sg64
(lp198
S'client'
p199
asbag57
(g78
g59
NtRp200
(dp201
g62
(dp202
g89
g90
ssg71
g191
sg64
(lp203
S':'
asbag57
(g78
g59
NtRp204
(dp205
g62
(dp206
sg71
g191
sg64
(lp207
g57
(g58
g59
NtRp208
(dp209
g62
(dp210
g70
I5
ssg71
g204
sg64
(lp211
S'127.0.0.1'
p212
asbasbasbag57
(g73
g59
NtRp213
(dp214
g62
(dp215
sg71
g67
sg64
(lp216
g57
(g78
g59
NtRp217
(dp218
g62
(dp219
g82
g83
ssg71
g213
sg64
(lp220
S'controller'
p221
asbag57
(g78
g59
NtRp222
(dp223
g62
(dp224
g89
g90
ssg71
g213
sg64
(lp225
S':'
asbag57
(g78
g59
NtRp226
(dp227
g62
(dp228
sg71
g213
sg64
(lp229
g57
(g58
g59
NtRp230
(dp231
g62
(dp232
g70
I5
ssg71
g226
sg64
(lp233
S'default'
p234
asbasbasbag57
(g73
g59
NtRp235
(dp236
g62
(dp237
sg71
g67
sg64
(lp238
g57
(g78
g59
NtRp239
(dp240
g62
(dp241
g82
g83
ssg71
g235
sg64
(lp242
S'cookies'
p243
asbag57
(g78
g59
NtRp244
(dp245
g62
(dp246
g89
g90
ssg71
g235
sg64
(lp247
S':'
asbag57
(g78
g59
NtRp248
(dp249
g62
(dp250
sg71
g235
sg64
(lp251
g57
(g58
g59
NtRp252
(dp253
g62
(dp254
g70
I5
ssg71
g248
sg64
(lp255
g57
(g66
g59
NtRp256
(dp257
g62
(dp258
g70
I4
ssg71
Nsg64
(lp259
g57
(g73
g59
NtRp260
(dp261
g62
(dp262
sg71
g256
sg64
(lp263
g57
(g78
g59
NtRp264
(dp265
g62
(dp266
g82
g83
ssg71
g260
sg64
(lp267
S'session_id_admin'
p268
asbag57
(g78
g59
NtRp269
(dp270
g62
(dp271
g89
g90
ssg71
g260
sg64
(lp272
S':'
asbag57
(g78
g59
NtRp273
(dp274
g62
(dp275
sg71
g260
sg64
(lp276
g57
(g58
g59
NtRp277
(dp278
g62
(dp279
g70
I4
ssg71
g273
sg64
(lp280
S'127.0.0.1-b219e5e2-515c-4b16-b7ec-dfc8af6f68cc'
p281
ag57
(g66
g59
NtRp282
(dp283
g62
(dp284
g70
I3
ssg71
Nsg64
(lp285
g57
(g73
g59
NtRp286
(dp287
g62
(dp288
sg71
g282
sg64
(lp289
g57
(g78
g59
NtRp290
(dp291
g62
(dp292
g82
g83
ssg71
g286
sg64
(lp293
S'comment'
p294
asbag57
(g78
g59
NtRp295
(dp296
g62
(dp297
g89
g90
ssg71
g286
sg64
(lp298
S':'
asbag57
(g78
g59
NtRp299
(dp300
g62
(dp301
sg71
g286
sg64
(lp302
g57
(g58
g59
NtRp303
(dp304
g62
(dp305
g70
I3
ssg71
g299
sg64
(lp306
S''
asbasbasbag57
(g73
g59
NtRp307
(dp308
g62
(dp309
sg71
g282
sg64
(lp310
g57
(g78
g59
NtRp311
(dp312
g62
(dp313
g82
g83
ssg71
g307
sg64
(lp314
S'domain'
p315
asbag57
(g78
g59
NtRp316
(dp317
g62
(dp318
g89
g90
ssg71
g307
sg64
(lp319
S':'
asbag57
(g78
g59
NtRp320
(dp321
g62
(dp322
sg71
g307
sg64
(lp323
g57
(g58
g59
NtRp324
(dp325
g62
(dp326
g70
I3
ssg71
g320
sg64
(lp327
S''
asbasbasbag57
(g73
g59
NtRp328
(dp329
g62
(dp330
sg71
g282
sg64
(lp331
g57
(g78
g59
NtRp332
(dp333
g62
(dp334
g82
g83
ssg71
g328
sg64
(lp335
S'expires'
p336
asbag57
(g78
g59
NtRp337
(dp338
g62
(dp339
g89
g90
ssg71
g328
sg64
(lp340
S':'
asbag57
(g78
g59
NtRp341
(dp342
g62
(dp343
sg71
g328
sg64
(lp344
g57
(g58
g59
NtRp345
(dp346
g62
(dp347
g70
I3
ssg71
g341
sg64
(lp348
S''
asbasbasbag57
(g73
g59
NtRp349
(dp350
g62
(dp351
sg71
g282
sg64
(lp352
g57
(g78
g59
NtRp353
(dp354
g62
(dp355
g82
g83
ssg71
g349
sg64
(lp356
S'httponly'
p357
asbag57
(g78
g59
NtRp358
(dp359
g62
(dp360
g89
g90
ssg71
g349
sg64
(lp361
S':'
asbag57
(g78
g59
NtRp362
(dp363
g62
(dp364
sg71
g349
sg64
(lp365
g57
(g58
g59
NtRp366
(dp367
g62
(dp368
g70
I3
ssg71
g362
sg64
(lp369
S''
asbasbasbag57
(g73
g59
NtRp370
(dp371
g62
(dp372
sg71
g282
sg64
(lp373
g57
(g78
g59
NtRp374
(dp375
g62
(dp376
g82
g83
ssg71
g370
sg64
(lp377
S'max-age'
p378
asbag57
(g78
g59
NtRp379
(dp380
g62
(dp381
g89
g90
ssg71
g370
sg64
(lp382
S':'
asbag57
(g78
g59
NtRp383
(dp384
g62
(dp385
sg71
g370
sg64
(lp386
g57
(g58
g59
NtRp387
(dp388
g62
(dp389
g70
I3
ssg71
g383
sg64
(lp390
S''
asbasbasbag57
(g73
g59
NtRp391
(dp392
g62
(dp393
sg71
g282
sg64
(lp394
g57
(g78
g59
NtRp395
(dp396
g62
(dp397
g82
g83
ssg71
g391
sg64
(lp398
S'path'
p399
asbag57
(g78
g59
NtRp400
(dp401
g62
(dp402
g89
g90
ssg71
g391
sg64
(lp403
S':'
asbag57
(g78
g59
NtRp404
(dp405
g62
(dp406
sg71
g391
sg64
(lp407
g57
(g58
g59
NtRp408
(dp409
g62
(dp410
g70
I3
ssg71
g404
sg64
(lp411
S''
asbasbasbag57
(g73
g59
NtRp412
(dp413
g62
(dp414
sg71
g282
sg64
(lp415
g57
(g78
g59
NtRp416
(dp417
g62
(dp418
g82
g83
ssg71
g412
sg64
(lp419
S'secure'
p420
asbag57
(g78
g59
NtRp421
(dp422
g62
(dp423
g89
g90
ssg71
g412
sg64
(lp424
S':'
asbag57
(g78
g59
NtRp425
(dp426
g62
(dp427
sg71
g412
sg64
(lp428
g57
(g58
g59
NtRp429
(dp430
g62
(dp431
g70
I3
ssg71
g425
sg64
(lp432
S''
asbasbasbag57
(g73
g59
NtRp433
(dp434
g62
(dp435
sg71
g282
sg64
(lp436
g57
(g78
g59
NtRp437
(dp438
g62
(dp439
g82
g83
ssg71
g433
sg64
(lp440
S'version'
p441
asbag57
(g78
g59
NtRp442
(dp443
g62
(dp444
g89
g90
ssg71
g433
sg64
(lp445
S':'
asbag57
(g78
g59
NtRp446
(dp447
g62
(dp448
sg71
g433
sg64
(lp449
g57
(g58
g59
NtRp450
(dp451
g62
(dp452
g70
I3
ssg71
g446
sg64
(lp453
S''
asbasbasbasbasbasbasbag57
(g73
g59
NtRp454
(dp455
g62
(dp456
sg71
g256
sg64
(lp457
g57
(g78
g59
NtRp458
(dp459
g62
(dp460
g82
g83
ssg71
g454
sg64
(lp461
S'session_id_music'
p462
asbag57
(g78
g59
NtRp463
(dp464
g62
(dp465
g89
g90
ssg71
g454
sg64
(lp466
S':'
asbag57
(g78
g59
NtRp467
(dp468
g62
(dp469
sg71
g454
sg64
(lp470
g57
(g58
g59
NtRp471
(dp472
g62
(dp473
g70
I4
ssg71
g467
sg64
(lp474
S'127.0.0.1-adc6eb33-f19b-4659-bd7d-4019f40bbf7e'
p475
ag57
(g66
g59
NtRp476
(dp477
g62
(dp478
g70
I3
ssg71
Nsg64
(lp479
g57
(g73
g59
NtRp480
(dp481
g62
(dp482
sg71
g476
sg64
(lp483
g57
(g78
g59
NtRp484
(dp485
g62
(dp486
g82
g83
ssg71
g480
sg64
(lp487
g294
asbag57
(g78
g59
NtRp488
(dp489
g62
(dp490
g89
g90
ssg71
g480
sg64
(lp491
S':'
asbag57
(g78
g59
NtRp492
(dp493
g62
(dp494
sg71
g480
sg64
(lp495
g57
(g58
g59
NtRp496
(dp497
g62
(dp498
g70
I3
ssg71
g492
sg64
(lp499
S''
asbasbasbag57
(g73
g59
NtRp500
(dp501
g62
(dp502
sg71
g476
sg64
(lp503
g57
(g78
g59
NtRp504
(dp505
g62
(dp506
g82
g83
ssg71
g500
sg64
(lp507
g315
asbag57
(g78
g59
NtRp508
(dp509
g62
(dp510
g89
g90
ssg71
g500
sg64
(lp511
S':'
asbag57
(g78
g59
NtRp512
(dp513
g62
(dp514
sg71
g500
sg64
(lp515
g57
(g58
g59
NtRp516
(dp517
g62
(dp518
g70
I3
ssg71
g512
sg64
(lp519
S''
asbasbasbag57
(g73
g59
NtRp520
(dp521
g62
(dp522
sg71
g476
sg64
(lp523
g57
(g78
g59
NtRp524
(dp525
g62
(dp526
g82
g83
ssg71
g520
sg64
(lp527
g336
asbag57
(g78
g59
NtRp528
(dp529
g62
(dp530
g89
g90
ssg71
g520
sg64
(lp531
S':'
asbag57
(g78
g59
NtRp532
(dp533
g62
(dp534
sg71
g520
sg64
(lp535
g57
(g58
g59
NtRp536
(dp537
g62
(dp538
g70
I3
ssg71
g532
sg64
(lp539
S''
asbasbasbag57
(g73
g59
NtRp540
(dp541
g62
(dp542
sg71
g476
sg64
(lp543
g57
(g78
g59
NtRp544
(dp545
g62
(dp546
g82
g83
ssg71
g540
sg64
(lp547
g357
asbag57
(g78
g59
NtRp548
(dp549
g62
(dp550
g89
g90
ssg71
g540
sg64
(lp551
S':'
asbag57
(g78
g59
NtRp552
(dp553
g62
(dp554
sg71
g540
sg64
(lp555
g57
(g58
g59
NtRp556
(dp557
g62
(dp558
g70
I3
ssg71
g552
sg64
(lp559
S''
asbasbasbag57
(g73
g59
NtRp560
(dp561
g62
(dp562
sg71
g476
sg64
(lp563
g57
(g78
g59
NtRp564
(dp565
g62
(dp566
g82
g83
ssg71
g560
sg64
(lp567
g378
asbag57
(g78
g59
NtRp568
(dp569
g62
(dp570
g89
g90
ssg71
g560
sg64
(lp571
S':'
asbag57
(g78
g59
NtRp572
(dp573
g62
(dp574
sg71
g560
sg64
(lp575
g57
(g58
g59
NtRp576
(dp577
g62
(dp578
g70
I3
ssg71
g572
sg64
(lp579
S''
asbasbasbag57
(g73
g59
NtRp580
(dp581
g62
(dp582
sg71
g476
sg64
(lp583
g57
(g78
g59
NtRp584
(dp585
g62
(dp586
g82
g83
ssg71
g580
sg64
(lp587
g399
asbag57
(g78
g59
NtRp588
(dp589
g62
(dp590
g89
g90
ssg71
g580
sg64
(lp591
S':'
asbag57
(g78
g59
NtRp592
(dp593
g62
(dp594
sg71
g580
sg64
(lp595
g57
(g58
g59
NtRp596
(dp597
g62
(dp598
g70
I3
ssg71
g592
sg64
(lp599
S''
asbasbasbag57
(g73
g59
NtRp600
(dp601
g62
(dp602
sg71
g476
sg64
(lp603
g57
(g78
g59
NtRp604
(dp605
g62
(dp606
g82
g83
ssg71
g600
sg64
(lp607
g420
asbag57
(g78
g59
NtRp608
(dp609
g62
(dp610
g89
g90
ssg71
g600
sg64
(lp611
S':'
asbag57
(g78
g59
NtRp612
(dp613
g62
(dp614
sg71
g600
sg64
(lp615
g57
(g58
g59
NtRp616
(dp617
g62
(dp618
g70
I3
ssg71
g612
sg64
(lp619
S''
asbasbasbag57
(g73
g59
NtRp620
(dp621
g62
(dp622
sg71
g476
sg64
(lp623
g57
(g78
g59
NtRp624
(dp625
g62
(dp626
g82
g83
ssg71
g620
sg64
(lp627
g441
asbag57
(g78
g59
NtRp628
(dp629
g62
(dp630
g89
g90
ssg71
g620
sg64
(lp631
S':'
asbag57
(g78
g59
NtRp632
(dp633
g62
(dp634
sg71
g620
sg64
(lp635
g57
(g58
g59
NtRp636
(dp637
g62
(dp638
g70
I3
ssg71
g632
sg64
(lp639
S''
asbasbasbasbasbasbasbag57
(g73
g59
NtRp640
(dp641
g62
(dp642
sg71
g256
sg64
(lp643
g57
(g78
g59
NtRp644
(dp645
g62
(dp646
g82
g83
ssg71
g640
sg64
(lp647
S'session_id_welcome'
p648
asbag57
(g78
g59
NtRp649
(dp650
g62
(dp651
g89
g90
ssg71
g640
sg64
(lp652
S':'
asbag57
(g78
g59
NtRp653
(dp654
g62
(dp655
sg71
g640
sg64
(lp656
g57
(g58
g59
NtRp657
(dp658
g62
(dp659
g70
I4
ssg71
g653
sg64
(lp660
S'127.0.0.1-cf1e1d48-8570-440d-98a4-a34b5cb99250'
p661
ag57
(g66
g59
NtRp662
(dp663
g62
(dp664
g70
I3
ssg71
Nsg64
(lp665
g57
(g73
g59
NtRp666
(dp667
g62
(dp668
sg71
g662
sg64
(lp669
g57
(g78
g59
NtRp670
(dp671
g62
(dp672
g82
g83
ssg71
g666
sg64
(lp673
g294
asbag57
(g78
g59
NtRp674
(dp675
g62
(dp676
g89
g90
ssg71
g666
sg64
(lp677
S':'
asbag57
(g78
g59
NtRp678
(dp679
g62
(dp680
sg71
g666
sg64
(lp681
g57
(g58
g59
NtRp682
(dp683
g62
(dp684
g70
I3
ssg71
g678
sg64
(lp685
S''
asbasbasbag57
(g73
g59
NtRp686
(dp687
g62
(dp688
sg71
g662
sg64
(lp689
g57
(g78
g59
NtRp690
(dp691
g62
(dp692
g82
g83
ssg71
g686
sg64
(lp693
g315
asbag57
(g78
g59
NtRp694
(dp695
g62
(dp696
g89
g90
ssg71
g686
sg64
(lp697
S':'
asbag57
(g78
g59
NtRp698
(dp699
g62
(dp700
sg71
g686
sg64
(lp701
g57
(g58
g59
NtRp702
(dp703
g62
(dp704
g70
I3
ssg71
g698
sg64
(lp705
S''
asbasbasbag57
(g73
g59
NtRp706
(dp707
g62
(dp708
sg71
g662
sg64
(lp709
g57
(g78
g59
NtRp710
(dp711
g62
(dp712
g82
g83
ssg71
g706
sg64
(lp713
g336
asbag57
(g78
g59
NtRp714
(dp715
g62
(dp716
g89
g90
ssg71
g706
sg64
(lp717
S':'
asbag57
(g78
g59
NtRp718
(dp719
g62
(dp720
sg71
g706
sg64
(lp721
g57
(g58
g59
NtRp722
(dp723
g62
(dp724
g70
I3
ssg71
g718
sg64
(lp725
S''
asbasbasbag57
(g73
g59
NtRp726
(dp727
g62
(dp728
sg71
g662
sg64
(lp729
g57
(g78
g59
NtRp730
(dp731
g62
(dp732
g82
g83
ssg71
g726
sg64
(lp733
g357
asbag57
(g78
g59
NtRp734
(dp735
g62
(dp736
g89
g90
ssg71
g726
sg64
(lp737
S':'
asbag57
(g78
g59
NtRp738
(dp739
g62
(dp740
sg71
g726
sg64
(lp741
g57
(g58
g59
NtRp742
(dp743
g62
(dp744
g70
I3
ssg71
g738
sg64
(lp745
S''
asbasbasbag57
(g73
g59
NtRp746
(dp747
g62
(dp748
sg71
g662
sg64
(lp749
g57
(g78
g59
NtRp750
(dp751
g62
(dp752
g82
g83
ssg71
g746
sg64
(lp753
g378
asbag57
(g78
g59
NtRp754
(dp755
g62
(dp756
g89
g90
ssg71
g746
sg64
(lp757
S':'
asbag57
(g78
g59
NtRp758
(dp759
g62
(dp760
sg71
g746
sg64
(lp761
g57
(g58
g59
NtRp762
(dp763
g62
(dp764
g70
I3
ssg71
g758
sg64
(lp765
S''
asbasbasbag57
(g73
g59
NtRp766
(dp767
g62
(dp768
sg71
g662
sg64
(lp769
g57
(g78
g59
NtRp770
(dp771
g62
(dp772
g82
g83
ssg71
g766
sg64
(lp773
g399
asbag57
(g78
g59
NtRp774
(dp775
g62
(dp776
g89
g90
ssg71
g766
sg64
(lp777
S':'
asbag57
(g78
g59
NtRp778
(dp779
g62
(dp780
sg71
g766
sg64
(lp781
g57
(g58
g59
NtRp782
(dp783
g62
(dp784
g70
I3
ssg71
g778
sg64
(lp785
S''
asbasbasbag57
(g73
g59
NtRp786
(dp787
g62
(dp788
sg71
g662
sg64
(lp789
g57
(g78
g59
NtRp790
(dp791
g62
(dp792
g82
g83
ssg71
g786
sg64
(lp793
g420
asbag57
(g78
g59
NtRp794
(dp795
g62
(dp796
g89
g90
ssg71
g786
sg64
(lp797
S':'
asbag57
(g78
g59
NtRp798
(dp799
g62
(dp800
sg71
g786
sg64
(lp801
g57
(g58
g59
NtRp802
(dp803
g62
(dp804
g70
I3
ssg71
g798
sg64
(lp805
S''
asbasbasbag57
(g73
g59
NtRp806
(dp807
g62
(dp808
sg71
g662
sg64
(lp809
g57
(g78
g59
NtRp810
(dp811
g62
(dp812
g82
g83
ssg71
g806
sg64
(lp813
g441
asbag57
(g78
g59
NtRp814
(dp815
g62
(dp816
g89
g90
ssg71
g806
sg64
(lp817
S':'
asbag57
(g78
g59
NtRp818
(dp819
g62
(dp820
sg71
g806
sg64
(lp821
g57
(g58
g59
NtRp822
(dp823
g62
(dp824
g70
I3
ssg71
g818
sg64
(lp825
S''
asbasbasbasbasbasbasbasbasbasbasbag57
(g73
g59
NtRp826
(dp827
g62
(dp828
sg71
g67
sg64
(lp829
g57
(g78
g59
NtRp830
(dp831
g62
(dp832
g82
g83
ssg71
g826
sg64
(lp833
S'env'
p834
asbag57
(g78
g59
NtRp835
(dp836
g62
(dp837
g89
g90
ssg71
g826
sg64
(lp838
S':'
asbag57
(g78
g59
NtRp839
(dp840
g62
(dp841
sg71
g826
sg64
(lp842
g57
(g58
g59
NtRp843
(dp844
g62
(dp845
g70
I5
ssg71
g839
sg64
(lp846
g57
(g66
g59
NtRp847
(dp848
g62
(dp849
g70
I4
ssg71
Nsg64
(lp850
g57
(g73
g59
NtRp851
(dp852
g62
(dp853
sg71
g847
sg64
(lp854
g57
(g78
g59
NtRp855
(dp856
g62
(dp857
g82
g83
ssg71
g851
sg64
(lp858
S'app_folders'
p859
asbag57
(g78
g59
NtRp860
(dp861
g62
(dp862
g89
g90
ssg71
g851
sg64
(lp863
S':'
asbag57
(g78
g59
NtRp864
(dp865
g62
(dp866
sg71
g851
sg64
(lp867
g57
(g58
g59
NtRp868
(dp869
g62
(dp870
g70
I4
ssg71
g864
sg64
(lp871
S"set(['/home/wionel/Desktop/web2py/applications/admin/', '/home/wionel/Desktop/web2py/applications/welcome/', '/home/wionel/Desktop/web2py/applications/music/'])"
p872
asbasbasbag57
(g73
g59
NtRp873
(dp874
g62
(dp875
sg71
g847
sg64
(lp876
g57
(g78
g59
NtRp877
(dp878
g62
(dp879
g82
g83
ssg71
g873
sg64
(lp880
S'applications_parent'
p881
asbag57
(g78
g59
NtRp882
(dp883
g62
(dp884
g89
g90
ssg71
g873
sg64
(lp885
S':'
asbag57
(g78
g59
NtRp886
(dp887
g62
(dp888
sg71
g873
sg64
(lp889
g57
(g58
g59
NtRp890
(dp891
g62
(dp892
g70
I4
ssg71
g886
sg64
(lp893
S'/home/wionel/Desktop/web2py'
p894
asbasbasbag57
(g73
g59
NtRp895
(dp896
g62
(dp897
sg71
g847
sg64
(lp898
g57
(g78
g59
NtRp899
(dp900
g62
(dp901
g82
g83
ssg71
g895
sg64
(lp902
S'cmd_args'
p903
asbag57
(g78
g59
NtRp904
(dp905
g62
(dp906
g89
g90
ssg71
g895
sg64
(lp907
S':'
asbag57
(g78
g59
NtRp908
(dp909
g62
(dp910
sg71
g895
sg64
(lp911
g57
(g58
g59
NtRp912
(dp913
g62
(dp914
g70
I4
ssg71
g908
sg64
(lp915
g57
(g66
g59
NtRp916
(dp917
g62
(dp918
g70
I3
ssg71
Nsg64
(lp919
sbasbasbasbag57
(g73
g59
NtRp920
(dp921
g62
(dp922
sg71
g847
sg64
(lp923
g57
(g78
g59
NtRp924
(dp925
g62
(dp926
g82
g83
ssg71
g920
sg64
(lp927
S'cmd_options'
p928
asbag57
(g78
g59
NtRp929
(dp930
g62
(dp931
g89
g90
ssg71
g920
sg64
(lp932
S':'
asbag57
(g78
g59
NtRp933
(dp934
g62
(dp935
sg71
g920
sg64
(lp936
g57
(g58
g59
NtRp937
(dp938
g62
(dp939
g70
I4
ssg71
g933
sg64
(lp940
S"<Values at 0x2d6d488: {'verbose': False, 'ip': '127.0.0.1', 'with_scheduler': False, 'ips': ['127.0.1.1'], 'shutdown_timeout': 5, 'taskbar': False, 'port': 8000, 'maxthreads': None, 'softcron': False, 'server_name': 'Rohan', 'bpython': False, 'nogui': False, 'pid_filename': 'httpserver.pid', 'extcron': False, 'runcron': False, 'run_system_tests': False, 'test': None, 'folder': '/home/wionel/Desktop/web2py', 'config': '', 'minthreads': None, 'winservice': '', 'shell': None, 'run': '', 'log_filename': 'httpserver.log', 'debuglevel': 30, 'args': [''], 'socket_timeout': 5, 'ssl_ca_certificate': None, 'scheduler': None, 'profiler_filename': None, 'ssl_private_key': '', 'scheduler_groups': None, 'password': '<ask>', 'request_queue_size': 5, 'ssl_certificate': '', 'cronjob': False, 'numthreads': None, 'quiet': False, 'interfaces': None, 'import_models': False, 'timeout': 10, 'plain': False, 'nobanner': False}>"
p941
asbasbasbag57
(g73
g59
NtRp942
(dp943
g62
(dp944
sg71
g847
sg64
(lp945
g57
(g78
g59
NtRp946
(dp947
g62
(dp948
g82
g83
ssg71
g942
sg64
(lp949
S'content_length'
p950
asbag57
(g78
g59
NtRp951
(dp952
g62
(dp953
g89
g90
ssg71
g942
sg64
(lp954
S':'
asbag57
(g78
g59
NtRp955
(dp956
g62
(dp957
sg71
g942
sg64
(lp958
g57
(g58
g59
NtRp959
(dp960
g62
(dp961
g70
I4
ssg71
g955
sg64
(lp962
S'72'
p963
asbasbasbag57
(g73
g59
NtRp964
(dp965
g62
(dp966
sg71
g847
sg64
(lp967
g57
(g78
g59
NtRp968
(dp969
g62
(dp970
g82
g83
ssg71
g964
sg64
(lp971
S'content_type'
p972
asbag57
(g78
g59
NtRp973
(dp974
g62
(dp975
g89
g90
ssg71
g964
sg64
(lp976
S':'
asbag57
(g78
g59
NtRp977
(dp978
g62
(dp979
sg71
g964
sg64
(lp980
g57
(g58
g59
NtRp981
(dp982
g62
(dp983
g70
I4
ssg71
g977
sg64
(lp984
S'application/x-www-form-urlencoded'
p985
asbasbasbag57
(g73
g59
NtRp986
(dp987
g62
(dp988
sg71
g847
sg64
(lp989
g57
(g78
g59
NtRp990
(dp991
g62
(dp992
g82
g83
ssg71
g986
sg64
(lp993
S'db_sessions'
p994
asbag57
(g78
g59
NtRp995
(dp996
g62
(dp997
g89
g90
ssg71
g986
sg64
(lp998
S':'
asbag57
(g78
g59
NtRp999
(dp1000
g62
(dp1001
sg71
g986
sg64
(lp1002
g57
(g58
g59
NtRp1003
(dp1004
g62
(dp1005
g70
I4
ssg71
g999
sg64
(lp1006
S'set([])'
p1007
asbasbasbag57
(g73
g59
NtRp1008
(dp1009
g62
(dp1010
sg71
g847
sg64
(lp1011
g57
(g78
g59
NtRp1012
(dp1013
g62
(dp1014
g82
g83
ssg71
g1008
sg64
(lp1015
S'debugging'
p1016
asbag57
(g78
g59
NtRp1017
(dp1018
g62
(dp1019
g89
g90
ssg71
g1008
sg64
(lp1020
S':'
asbag57
(g78
g59
NtRp1021
(dp1022
g62
(dp1023
sg71
g1008
sg64
(lp1024
g57
(g58
g59
NtRp1025
(dp1026
g62
(dp1027
g70
I4
ssg71
g1021
sg64
(lp1028
g100
asbasbasbag57
(g73
g59
NtRp1029
(dp1030
g62
(dp1031
sg71
g847
sg64
(lp1032
g57
(g78
g59
NtRp1033
(dp1034
g62
(dp1035
g82
g83
ssg71
g1029
sg64
(lp1036
S'gluon_parent'
p1037
asbag57
(g78
g59
NtRp1038
(dp1039
g62
(dp1040
g89
g90
ssg71
g1029
sg64
(lp1041
S':'
asbag57
(g78
g59
NtRp1042
(dp1043
g62
(dp1044
sg71
g1029
sg64
(lp1045
g57
(g58
g59
NtRp1046
(dp1047
g62
(dp1048
g70
I4
ssg71
g1042
sg64
(lp1049
S'/home/wionel/Desktop/web2py'
p1050
asbasbasbag57
(g73
g59
NtRp1051
(dp1052
g62
(dp1053
sg71
g847
sg64
(lp1054
g57
(g78
g59
NtRp1055
(dp1056
g62
(dp1057
g82
g83
ssg71
g1051
sg64
(lp1058
S'http_accept'
p1059
asbag57
(g78
g59
NtRp1060
(dp1061
g62
(dp1062
g89
g90
ssg71
g1051
sg64
(lp1063
S':'
asbag57
(g78
g59
NtRp1064
(dp1065
g62
(dp1066
sg71
g1051
sg64
(lp1067
g57
(g58
g59
NtRp1068
(dp1069
g62
(dp1070
g70
I4
ssg71
g1064
sg64
(lp1071
S'text/html,application/xhtml+xml,application/xml;q=0.9,*/*;q=0.8'
p1072
asbasbasbag57
(g73
g59
NtRp1073
(dp1074
g62
(dp1075
sg71
g847
sg64
(lp1076
g57
(g78
g59
NtRp1077
(dp1078
g62
(dp1079
g82
g83
ssg71
g1073
sg64
(lp1080
S'http_accept_charset'
p1081
asbag57
(g78
g59
NtRp1082
(dp1083
g62
(dp1084
g89
g90
ssg71
g1073
sg64
(lp1085
S':'
asbag57
(g78
g59
NtRp1086
(dp1087
g62
(dp1088
sg71
g1073
sg64
(lp1089
g57
(g58
g59
NtRp1090
(dp1091
g62
(dp1092
g70
I4
ssg71
g1086
sg64
(lp1093
S'ISO-8859-1,utf-8;q=0.7,*;q=0.3'
p1094
asbasbasbag57
(g73
g59
NtRp1095
(dp1096
g62
(dp1097
sg71
g847
sg64
(lp1098
g57
(g78
g59
NtRp1099
(dp1100
g62
(dp1101
g82
g83
ssg71
g1095
sg64
(lp1102
S'http_accept_encoding'
p1103
asbag57
(g78
g59
NtRp1104
(dp1105
g62
(dp1106
g89
g90
ssg71
g1095
sg64
(lp1107
S':'
asbag57
(g78
g59
NtRp1108
(dp1109
g62
(dp1110
sg71
g1095
sg64
(lp1111
g57
(g58
g59
NtRp1112
(dp1113
g62
(dp1114
g70
I4
ssg71
g1108
sg64
(lp1115
S'gzip,deflate,sdch'
p1116
asbasbasbag57
(g73
g59
NtRp1117
(dp1118
g62
(dp1119
sg71
g847
sg64
(lp1120
g57
(g78
g59
NtRp1121
(dp1122
g62
(dp1123
g82
g83
ssg71
g1117
sg64
(lp1124
S'http_accept_language'
p1125
asbag57
(g78
g59
NtRp1126
(dp1127
g62
(dp1128
g89
g90
ssg71
g1117
sg64
(lp1129
S':'
asbag57
(g78
g59
NtRp1130
(dp1131
g62
(dp1132
sg71
g1117
sg64
(lp1133
g57
(g58
g59
NtRp1134
(dp1135
g62
(dp1136
g70
I4
ssg71
g1130
sg64
(lp1137
S'en-US,en;q=0.8'
p1138
asbasbasbag57
(g73
g59
NtRp1139
(dp1140
g62
(dp1141
sg71
g847
sg64
(lp1142
g57
(g78
g59
NtRp1143
(dp1144
g62
(dp1145
g82
g83
ssg71
g1139
sg64
(lp1146
S'http_cache_control'
p1147
asbag57
(g78
g59
NtRp1148
(dp1149
g62
(dp1150
g89
g90
ssg71
g1139
sg64
(lp1151
S':'
asbag57
(g78
g59
NtRp1152
(dp1153
g62
(dp1154
sg71
g1139
sg64
(lp1155
g57
(g58
g59
NtRp1156
(dp1157
g62
(dp1158
g70
I4
ssg71
g1152
sg64
(lp1159
S'max-age=0'
p1160
asbasbasbag57
(g73
g59
NtRp1161
(dp1162
g62
(dp1163
sg71
g847
sg64
(lp1164
g57
(g78
g59
NtRp1165
(dp1166
g62
(dp1167
g82
g83
ssg71
g1161
sg64
(lp1168
S'http_connection'
p1169
asbag57
(g78
g59
NtRp1170
(dp1171
g62
(dp1172
g89
g90
ssg71
g1161
sg64
(lp1173
S':'
asbag57
(g78
g59
NtRp1174
(dp1175
g62
(dp1176
sg71
g1161
sg64
(lp1177
g57
(g58
g59
NtRp1178
(dp1179
g62
(dp1180
g70
I4
ssg71
g1174
sg64
(lp1181
S'keep-alive'
p1182
asbasbasbag57
(g73
g59
NtRp1183
(dp1184
g62
(dp1185
sg71
g847
sg64
(lp1186
g57
(g78
g59
NtRp1187
(dp1188
g62
(dp1189
g82
g83
ssg71
g1183
sg64
(lp1190
S'http_content_length'
p1191
asbag57
(g78
g59
NtRp1192
(dp1193
g62
(dp1194
g89
g90
ssg71
g1183
sg64
(lp1195
S':'
asbag57
(g78
g59
NtRp1196
(dp1197
g62
(dp1198
sg71
g1183
sg64
(lp1199
g57
(g58
g59
NtRp1200
(dp1201
g62
(dp1202
g70
I4
ssg71
g1196
sg64
(lp1203
g963
asbasbasbag57
(g73
g59
NtRp1204
(dp1205
g62
(dp1206
sg71
g847
sg64
(lp1207
g57
(g78
g59
NtRp1208
(dp1209
g62
(dp1210
g82
g83
ssg71
g1204
sg64
(lp1211
S'http_content_type'
p1212
asbag57
(g78
g59
NtRp1213
(dp1214
g62
(dp1215
g89
g90
ssg71
g1204
sg64
(lp1216
S':'
asbag57
(g78
g59
NtRp1217
(dp1218
g62
(dp1219
sg71
g1204
sg64
(lp1220
g57
(g58
g59
NtRp1221
(dp1222
g62
(dp1223
g70
I4
ssg71
g1217
sg64
(lp1224
g985
asbasbasbag57
(g73
g59
NtRp1225
(dp1226
g62
(dp1227
sg71
g847
sg64
(lp1228
g57
(g78
g59
NtRp1229
(dp1230
g62
(dp1231
g82
g83
ssg71
g1225
sg64
(lp1232
S'http_cookie'
p1233
asbag57
(g78
g59
NtRp1234
(dp1235
g62
(dp1236
g89
g90
ssg71
g1225
sg64
(lp1237
S':'
asbag57
(g78
g59
NtRp1238
(dp1239
g62
(dp1240
sg71
g1225
sg64
(lp1241
g57
(g58
g59
NtRp1242
(dp1243
g62
(dp1244
g70
I4
ssg71
g1238
sg64
(lp1245
S'session_id_welcome=127.0.0.1-cf1e1d48-8570-440d-98a4-a34b5cb99250; session_id_music=127.0.0.1-adc6eb33-f19b-4659-bd7d-4019f40bbf7e; session_id_admin=127.0.0.1-b219e5e2-515c-4b16-b7ec-dfc8af6f68cc'
p1246
asbasbasbag57
(g73
g59
NtRp1247
(dp1248
g62
(dp1249
sg71
g847
sg64
(lp1250
g57
(g78
g59
NtRp1251
(dp1252
g62
(dp1253
g82
g83
ssg71
g1247
sg64
(lp1254
S'http_host'
p1255
asbag57
(g78
g59
NtRp1256
(dp1257
g62
(dp1258
g89
g90
ssg71
g1247
sg64
(lp1259
S':'
asbag57
(g78
g59
NtRp1260
(dp1261
g62
(dp1262
sg71
g1247
sg64
(lp1263
g57
(g58
g59
NtRp1264
(dp1265
g62
(dp1266
g70
I4
ssg71
g1260
sg64
(lp1267
S'127.0.0.1:8000'
p1268
asbasbasbag57
(g73
g59
NtRp1269
(dp1270
g62
(dp1271
sg71
g847
sg64
(lp1272
g57
(g78
g59
NtRp1273
(dp1274
g62
(dp1275
g82
g83
ssg71
g1269
sg64
(lp1276
S'http_origin'
p1277
asbag57
(g78
g59
NtRp1278
(dp1279
g62
(dp1280
g89
g90
ssg71
g1269
sg64
(lp1281
S':'
asbag57
(g78
g59
NtRp1282
(dp1283
g62
(dp1284
sg71
g1269
sg64
(lp1285
g57
(g58
g59
NtRp1286
(dp1287
g62
(dp1288
g70
I4
ssg71
g1282
sg64
(lp1289
S'http://127.0.0.1:8000'
p1290
asbasbasbag57
(g73
g59
NtRp1291
(dp1292
g62
(dp1293
sg71
g847
sg64
(lp1294
g57
(g78
g59
NtRp1295
(dp1296
g62
(dp1297
g82
g83
ssg71
g1291
sg64
(lp1298
S'http_referer'
p1299
asbag57
(g78
g59
NtRp1300
(dp1301
g62
(dp1302
g89
g90
ssg71
g1291
sg64
(lp1303
S':'
asbag57
(g78
g59
NtRp1304
(dp1305
g62
(dp1306
sg71
g1291
sg64
(lp1307
g57
(g58
g59
NtRp1308
(dp1309
g62
(dp1310
g70
I4
ssg71
g1304
sg64
(lp1311
S'http://127.0.0.1:8000/music/default/playlist'
p1312
asbasbasbag57
(g73
g59
NtRp1313
(dp1314
g62
(dp1315
sg71
g847
sg64
(lp1316
g57
(g78
g59
NtRp1317
(dp1318
g62
(dp1319
g82
g83
ssg71
g1313
sg64
(lp1320
S'http_user_agent'
p1321
asbag57
(g78
g59
NtRp1322
(dp1323
g62
(dp1324
g89
g90
ssg71
g1313
sg64
(lp1325
S':'
asbag57
(g78
g59
NtRp1326
(dp1327
g62
(dp1328
sg71
g1313
sg64
(lp1329
g57
(g58
g59
NtRp1330
(dp1331
g62
(dp1332
g70
I4
ssg71
g1326
sg64
(lp1333
S'Mozilla/5.0 (X11; Linux x86_64) AppleWebKit/537.4 (KHTML, like Gecko) Chrome/22.0.1229.92 Safari/537.4'
p1334
asbasbasbag57
(g73
g59
NtRp1335
(dp1336
g62
(dp1337
sg71
g847
sg64
(lp1338
g57
(g78
g59
NtRp1339
(dp1340
g62
(dp1341
g82
g83
ssg71
g1335
sg64
(lp1342
S'is_jython'
p1343
asbag57
(g78
g59
NtRp1344
(dp1345
g62
(dp1346
g89
g90
ssg71
g1335
sg64
(lp1347
S':'
asbag57
(g78
g59
NtRp1348
(dp1349
g62
(dp1350
sg71
g1335
sg64
(lp1351
g57
(g58
g59
NtRp1352
(dp1353
g62
(dp1354
g70
I4
ssg71
g1348
sg64
(lp1355
g100
asbasbasbag57
(g73
g59
NtRp1356
(dp1357
g62
(dp1358
sg71
g847
sg64
(lp1359
g57
(g78
g59
NtRp1360
(dp1361
g62
(dp1362
g82
g83
ssg71
g1356
sg64
(lp1363
S'is_pypy'
p1364
asbag57
(g78
g59
NtRp1365
(dp1366
g62
(dp1367
g89
g90
ssg71
g1356
sg64
(lp1368
S':'
asbag57
(g78
g59
NtRp1369
(dp1370
g62
(dp1371
sg71
g1356
sg64
(lp1372
g57
(g58
g59
NtRp1373
(dp1374
g62
(dp1375
g70
I4
ssg71
g1369
sg64
(lp1376
g100
asbasbasbag57
(g73
g59
NtRp1377
(dp1378
g62
(dp1379
sg71
g847
sg64
(lp1380
g57
(g78
g59
NtRp1381
(dp1382
g62
(dp1383
g82
g83
ssg71
g1377
sg64
(lp1384
S'local_hosts'
p1385
asbag57
(g78
g59
NtRp1386
(dp1387
g62
(dp1388
g89
g90
ssg71
g1377
sg64
(lp1389
S':'
asbag57
(g78
g59
NtRp1390
(dp1391
g62
(dp1392
sg71
g1377
sg64
(lp1393
g57
(g58
g59
NtRp1394
(dp1395
g62
(dp1396
g70
I4
ssg71
g1390
sg64
(lp1397
g57
(g66
g59
NtRp1398
(dp1399
g62
(dp1400
g70
I3
ssg71
Nsg64
(lp1401
g57
(g73
g59
NtRp1402
(dp1403
g62
(dp1404
sg71
g1398
sg64
(lp1405
g57
(g78
g59
NtRp1406
(dp1407
g62
(dp1408
sg71
g1402
sg64
(lp1409
g57
(g58
g59
NtRp1410
(dp1411
g62
(dp1412
g70
I3
ssg71
g1406
sg64
(lp1413
S'127.0.0.1'
p1414
asbasbasbag57
(g73
g59
NtRp1415
(dp1416
g62
(dp1417
sg71
g1398
sg64
(lp1418
g57
(g78
g59
NtRp1419
(dp1420
g62
(dp1421
sg71
g1415
sg64
(lp1422
g57
(g58
g59
NtRp1423
(dp1424
g62
(dp1425
g70
I3
ssg71
g1419
sg64
(lp1426
S'::ffff:127.0.0.1'
p1427
asbasbasbag57
(g73
g59
NtRp1428
(dp1429
g62
(dp1430
sg71
g1398
sg64
(lp1431
g57
(g78
g59
NtRp1432
(dp1433
g62
(dp1434
sg71
g1428
sg64
(lp1435
g57
(g58
g59
NtRp1436
(dp1437
g62
(dp1438
g70
I3
ssg71
g1432
sg64
(lp1439
S'Rohan'
p1440
asbasbasbag57
(g73
g59
NtRp1441
(dp1442
g62
(dp1443
sg71
g1398
sg64
(lp1444
g57
(g78
g59
NtRp1445
(dp1446
g62
(dp1447
sg71
g1441
sg64
(lp1448
g57
(g58
g59
NtRp1449
(dp1450
g62
(dp1451
g70
I3
ssg71
g1445
sg64
(lp1452
S'Rohan'
p1453
asbasbasbag57
(g73
g59
NtRp1454
(dp1455
g62
(dp1456
sg71
g1398
sg64
(lp1457
g57
(g78
g59
NtRp1458
(dp1459
g62
(dp1460
sg71
g1454
sg64
(lp1461
g57
(g58
g59
NtRp1462
(dp1463
g62
(dp1464
g70
I3
ssg71
g1458
sg64
(lp1465
S'127.0.1.1'
p1466
asbasbasbasbasbasbasbag57
(g73
g59
NtRp1467
(dp1468
g62
(dp1469
sg71
g847
sg64
(lp1470
g57
(g78
g59
NtRp1471
(dp1472
g62
(dp1473
g82
g83
ssg71
g1467
sg64
(lp1474
S'path_info'
p1475
asbag57
(g78
g59
NtRp1476
(dp1477
g62
(dp1478
g89
g90
ssg71
g1467
sg64
(lp1479
S':'
asbag57
(g78
g59
NtRp1480
(dp1481
g62
(dp1482
sg71
g1467
sg64
(lp1483
g57
(g58
g59
NtRp1484
(dp1485
g62
(dp1486
g70
I4
ssg71
g1480
sg64
(lp1487
S'/music/default/save'
p1488
asbasbasbag57
(g73
g59
NtRp1489
(dp1490
g62
(dp1491
sg71
g847
sg64
(lp1492
g57
(g78
g59
NtRp1493
(dp1494
g62
(dp1495
g82
g83
ssg71
g1489
sg64
(lp1496
S'query_string'
p1497
asbag57
(g78
g59
NtRp1498
(dp1499
g62
(dp1500
g89
g90
ssg71
g1489
sg64
(lp1501
S':'
asbag57
(g78
g59
NtRp1502
(dp1503
g62
(dp1504
sg71
g1489
sg64
(lp1505
g57
(g58
g59
NtRp1506
(dp1507
g62
(dp1508
g70
I4
ssg71
g1502
sg64
(lp1509
S''
asbasbasbag57
(g73
g59
NtRp1510
(dp1511
g62
(dp1512
sg71
g847
sg64
(lp1513
g57
(g78
g59
NtRp1514
(dp1515
g62
(dp1516
g82
g83
ssg71
g1510
sg64
(lp1517
S'remote_addr'
p1518
asbag57
(g78
g59
NtRp1519
(dp1520
g62
(dp1521
g89
g90
ssg71
g1510
sg64
(lp1522
S':'
asbag57
(g78
g59
NtRp1523
(dp1524
g62
(dp1525
sg71
g1510
sg64
(lp1526
g57
(g58
g59
NtRp1527
(dp1528
g62
(dp1529
g70
I4
ssg71
g1523
sg64
(lp1530
g212
asbasbasbag57
(g73
g59
NtRp1531
(dp1532
g62
(dp1533
sg71
g847
sg64
(lp1534
g57
(g78
g59
NtRp1535
(dp1536
g62
(dp1537
g82
g83
ssg71
g1531
sg64
(lp1538
S'remote_port'
p1539
asbag57
(g78
g59
NtRp1540
(dp1541
g62
(dp1542
g89
g90
ssg71
g1531
sg64
(lp1543
S':'
asbag57
(g78
g59
NtRp1544
(dp1545
g62
(dp1546
sg71
g1531
sg64
(lp1547
g57
(g58
g59
NtRp1548
(dp1549
g62
(dp1550
g70
I4
ssg71
g1544
sg64
(lp1551
S'49013'
p1552
asbasbasbag57
(g73
g59
NtRp1553
(dp1554
g62
(dp1555
sg71
g847
sg64
(lp1556
g57
(g78
g59
NtRp1557
(dp1558
g62
(dp1559
g82
g83
ssg71
g1553
sg64
(lp1560
S'request_method'
p1561
asbag57
(g78
g59
NtRp1562
(dp1563
g62
(dp1564
g89
g90
ssg71
g1553
sg64
(lp1565
S':'
asbag57
(g78
g59
NtRp1566
(dp1567
g62
(dp1568
sg71
g1553
sg64
(lp1569
g57
(g58
g59
NtRp1570
(dp1571
g62
(dp1572
g70
I4
ssg71
g1566
sg64
(lp1573
S'POST'
p1574
asbasbasbag57
(g73
g59
NtRp1575
(dp1576
g62
(dp1577
sg71
g847
sg64
(lp1578
g57
(g78
g59
NtRp1579
(dp1580
g62
(dp1581
g82
g83
ssg71
g1575
sg64
(lp1582
S'request_uri'
p1583
asbag57
(g78
g59
NtRp1584
(dp1585
g62
(dp1586
g89
g90
ssg71
g1575
sg64
(lp1587
S':'
asbag57
(g78
g59
NtRp1588
(dp1589
g62
(dp1590
sg71
g1575
sg64
(lp1591
g57
(g58
g59
NtRp1592
(dp1593
g62
(dp1594
g70
I4
ssg71
g1588
sg64
(lp1595
g1488
asbasbasbag57
(g73
g59
NtRp1596
(dp1597
g62
(dp1598
sg71
g847
sg64
(lp1599
g57
(g78
g59
NtRp1600
(dp1601
g62
(dp1602
g82
g83
ssg71
g1596
sg64
(lp1603
S'script_name'
p1604
asbag57
(g78
g59
NtRp1605
(dp1606
g62
(dp1607
g89
g90
ssg71
g1596
sg64
(lp1608
S':'
asbag57
(g78
g59
NtRp1609
(dp1610
g62
(dp1611
sg71
g1596
sg64
(lp1612
g57
(g58
g59
NtRp1613
(dp1614
g62
(dp1615
g70
I4
ssg71
g1609
sg64
(lp1616
S''
asbasbasbag57
(g73
g59
NtRp1617
(dp1618
g62
(dp1619
sg71
g847
sg64
(lp1620
g57
(g78
g59
NtRp1621
(dp1622
g62
(dp1623
g82
g83
ssg71
g1617
sg64
(lp1624
S'server_name'
p1625
asbag57
(g78
g59
NtRp1626
(dp1627
g62
(dp1628
g89
g90
ssg71
g1617
sg64
(lp1629
S':'
asbag57
(g78
g59
NtRp1630
(dp1631
g62
(dp1632
sg71
g1617
sg64
(lp1633
g57
(g58
g59
NtRp1634
(dp1635
g62
(dp1636
g70
I4
ssg71
g1630
sg64
(lp1637
g1453
asbasbasbag57
(g73
g59
NtRp1638
(dp1639
g62
(dp1640
sg71
g847
sg64
(lp1641
g57
(g78
g59
NtRp1642
(dp1643
g62
(dp1644
g82
g83
ssg71
g1638
sg64
(lp1645
S'server_port'
p1646
asbag57
(g78
g59
NtRp1647
(dp1648
g62
(dp1649
g89
g90
ssg71
g1638
sg64
(lp1650
S':'
asbag57
(g78
g59
NtRp1651
(dp1652
g62
(dp1653
sg71
g1638
sg64
(lp1654
g57
(g58
g59
NtRp1655
(dp1656
g62
(dp1657
g70
I4
ssg71
g1651
sg64
(lp1658
S'8000'
p1659
asbasbasbag57
(g73
g59
NtRp1660
(dp1661
g62
(dp1662
sg71
g847
sg64
(lp1663
g57
(g78
g59
NtRp1664
(dp1665
g62
(dp1666
g82
g83
ssg71
g1660
sg64
(lp1667
S'server_protocol'
p1668
asbag57
(g78
g59
NtRp1669
(dp1670
g62
(dp1671
g89
g90
ssg71
g1660
sg64
(lp1672
S':'
asbag57
(g78
g59
NtRp1673
(dp1674
g62
(dp1675
sg71
g1660
sg64
(lp1676
g57
(g58
g59
NtRp1677
(dp1678
g62
(dp1679
g70
I4
ssg71
g1673
sg64
(lp1680
S'HTTP/1.1'
p1681
asbasbasbag57
(g73
g59
NtRp1682
(dp1683
g62
(dp1684
sg71
g847
sg64
(lp1685
g57
(g78
g59
NtRp1686
(dp1687
g62
(dp1688
g82
g83
ssg71
g1682
sg64
(lp1689
S'server_software'
p1690
asbag57
(g78
g59
NtRp1691
(dp1692
g62
(dp1693
g89
g90
ssg71
g1682
sg64
(lp1694
S':'
asbag57
(g78
g59
NtRp1695
(dp1696
g62
(dp1697
sg71
g1682
sg64
(lp1698
g57
(g58
g59
NtRp1699
(dp1700
g62
(dp1701
g70
I4
ssg71
g1695
sg64
(lp1702
S'Rocket 1.2.5'
p1703
asbasbasbag57
(g73
g59
NtRp1704
(dp1705
g62
(dp1706
sg71
g847
sg64
(lp1707
g57
(g78
g59
NtRp1708
(dp1709
g62
(dp1710
g82
g83
ssg71
g1704
sg64
(lp1711
S'web2py_path'
p1712
asbag57
(g78
g59
NtRp1713
(dp1714
g62
(dp1715
g89
g90
ssg71
g1704
sg64
(lp1716
S':'
asbag57
(g78
g59
NtRp1717
(dp1718
g62
(dp1719
sg71
g1704
sg64
(lp1720
g57
(g58
g59
NtRp1721
(dp1722
g62
(dp1723
g70
I4
ssg71
g1717
sg64
(lp1724
g894
asbasbasbag57
(g73
g59
NtRp1725
(dp1726
g62
(dp1727
sg71
g847
sg64
(lp1728
g57
(g78
g59
NtRp1729
(dp1730
g62
(dp1731
g82
g83
ssg71
g1725
sg64
(lp1732
S'web2py_version'
p1733
asbag57
(g78
g59
NtRp1734
(dp1735
g62
(dp1736
g89
g90
ssg71
g1725
sg64
(lp1737
S':'
asbag57
(g78
g59
NtRp1738
(dp1739
g62
(dp1740
sg71
g1725
sg64
(lp1741
g57
(g58
g59
NtRp1742
(dp1743
g62
(dp1744
g70
I4
ssg71
g1738
sg64
(lp1745
g57
(g66
g59
NtRp1746
(dp1747
g62
(dp1748
g70
I3
ssg71
Nsg64
(lp1749
g57
(g73
g59
NtRp1750
(dp1751
g62
(dp1752
sg71
g1746
sg64
(lp1753
g57
(g78
g59
NtRp1754
(dp1755
g62
(dp1756
sg71
g1750
sg64
(lp1757
g57
(g58
g59
NtRp1758
(dp1759
g62
(dp1760
g70
I3
ssg71
g1754
sg64
(lp1761
S'2'
asbasbasbag57
(g73
g59
NtRp1762
(dp1763
g62
(dp1764
sg71
g1746
sg64
(lp1765
g57
(g78
g59
NtRp1766
(dp1767
g62
(dp1768
sg71
g1762
sg64
(lp1769
g57
(g58
g59
NtRp1770
(dp1771
g62
(dp1772
g70
I3
ssg71
g1766
sg64
(lp1773
S'2'
asbasbasbag57
(g73
g59
NtRp1774
(dp1775
g62
(dp1776
sg71
g1746
sg64
(lp1777
g57
(g78
g59
NtRp1778
(dp1779
g62
(dp1780
sg71
g1774
sg64
(lp1781
g57
(g58
g59
NtRp1782
(dp1783
g62
(dp1784
g70
I3
ssg71
g1778
sg64
(lp1785
S'1'
asbasbasbag57
(g73
g59
NtRp1786
(dp1787
g62
(dp1788
sg71
g1746
sg64
(lp1789
g57
(g78
g59
NtRp1790
(dp1791
g62
(dp1792
sg71
g1786
sg64
(lp1793
g57
(g58
g59
NtRp1794
(dp1795
g62
(dp1796
g70
I3
ssg71
g1790
sg64
(lp1797
S'datetime.datetime(2012, 10, 21, 16, 57, 4)'
p1798
asbasbasbag57
(g73
g59
NtRp1799
(dp1800
g62
(dp1801
sg71
g1746
sg64
(lp1802
g57
(g78
g59
NtRp1803
(dp1804
g62
(dp1805
sg71
g1799
sg64
(lp1806
g57
(g58
g59
NtRp1807
(dp1808
g62
(dp1809
g70
I3
ssg71
g1803
sg64
(lp1810
S'stable'
p1811
asbasbasbasbasbasbasbag57
(g73
g59
NtRp1812
(dp1813
g62
(dp1814
sg71
g847
sg64
(lp1815
g57
(g78
g59
NtRp1816
(dp1817
g62
(dp1818
g82
g83
ssg71
g1812
sg64
(lp1819
S'wsgi_errors'
p1820
asbag57
(g78
g59
NtRp1821
(dp1822
g62
(dp1823
g89
g90
ssg71
g1812
sg64
(lp1824
S':'
asbag57
(g78
g59
NtRp1825
(dp1826
g62
(dp1827
sg71
g1812
sg64
(lp1828
g57
(g58
g59
NtRp1829
(dp1830
g62
(dp1831
g70
I4
ssg71
g1825
sg64
(lp1832
S"<open file '<stderr>', mode 'w' at 0x7f811fe6f270>"
p1833
asbasbasbag57
(g73
g59
NtRp1834
(dp1835
g62
(dp1836
sg71
g847
sg64
(lp1837
g57
(g78
g59
NtRp1838
(dp1839
g62
(dp1840
g82
g83
ssg71
g1834
sg64
(lp1841
S'wsgi_file_wrapper'
p1842
asbag57
(g78
g59
NtRp1843
(dp1844
g62
(dp1845
g89
g90
ssg71
g1834
sg64
(lp1846
S':'
asbag57
(g78
g59
NtRp1847
(dp1848
g62
(dp1849
sg71
g1834
sg64
(lp1850
g57
(g58
g59
NtRp1851
(dp1852
g62
(dp1853
g70
I4
ssg71
g1847
sg64
(lp1854
S'<class wsgiref.util.FileWrapper at 0x2cc6808>'
p1855
asbasbasbag57
(g73
g59
NtRp1856
(dp1857
g62
(dp1858
sg71
g847
sg64
(lp1859
g57
(g78
g59
NtRp1860
(dp1861
g62
(dp1862
g82
g83
ssg71
g1856
sg64
(lp1863
S'wsgi_input'
p1864
asbag57
(g78
g59
NtRp1865
(dp1866
g62
(dp1867
g89
g90
ssg71
g1856
sg64
(lp1868
S':'
asbag57
(g78
g59
NtRp1869
(dp1870
g62
(dp1871
sg71
g1856
sg64
(lp1872
g57
(g58
g59
NtRp1873
(dp1874
g62
(dp1875
g70
I4
ssg71
g1869
sg64
(lp1876
S'<socket._fileobject object at 0x7f80dc1cdbd0>'
p1877
asbasbasbag57
(g73
g59
NtRp1878
(dp1879
g62
(dp1880
sg71
g847
sg64
(lp1881
g57
(g78
g59
NtRp1882
(dp1883
g62
(dp1884
g82
g83
ssg71
g1878
sg64
(lp1885
S'wsgi_multiprocess'
p1886
asbag57
(g78
g59
NtRp1887
(dp1888
g62
(dp1889
g89
g90
ssg71
g1878
sg64
(lp1890
S':'
asbag57
(g78
g59
NtRp1891
(dp1892
g62
(dp1893
sg71
g1878
sg64
(lp1894
g57
(g58
g59
NtRp1895
(dp1896
g62
(dp1897
g70
I4
ssg71
g1891
sg64
(lp1898
g100
asbasbasbag57
(g73
g59
NtRp1899
(dp1900
g62
(dp1901
sg71
g847
sg64
(lp1902
g57
(g78
g59
NtRp1903
(dp1904
g62
(dp1905
g82
g83
ssg71
g1899
sg64
(lp1906
S'wsgi_multithread'
p1907
asbag57
(g78
g59
NtRp1908
(dp1909
g62
(dp1910
g89
g90
ssg71
g1899
sg64
(lp1911
S':'
asbag57
(g78
g59
NtRp1912
(dp1913
g62
(dp1914
sg71
g1899
sg64
(lp1915
g57
(g58
g59
NtRp1916
(dp1917
g62
(dp1918
g70
I4
ssg71
g1912
sg64
(lp1919
S'True'
p1920
asbasbasbag57
(g73
g59
NtRp1921
(dp1922
g62
(dp1923
sg71
g847
sg64
(lp1924
g57
(g78
g59
NtRp1925
(dp1926
g62
(dp1927
g82
g83
ssg71
g1921
sg64
(lp1928
S'wsgi_run_once'
p1929
asbag57
(g78
g59
NtRp1930
(dp1931
g62
(dp1932
g89
g90
ssg71
g1921
sg64
(lp1933
S':'
asbag57
(g78
g59
NtRp1934
(dp1935
g62
(dp1936
sg71
g1921
sg64
(lp1937
g57
(g58
g59
NtRp1938
(dp1939
g62
(dp1940
g70
I4
ssg71
g1934
sg64
(lp1941
g100
asbasbasbag57
(g73
g59
NtRp1942
(dp1943
g62
(dp1944
sg71
g847
sg64
(lp1945
g57
(g78
g59
NtRp1946
(dp1947
g62
(dp1948
g82
g83
ssg71
g1942
sg64
(lp1949
S'wsgi_url_scheme'
p1950
asbag57
(g78
g59
NtRp1951
(dp1952
g62
(dp1953
g89
g90
ssg71
g1942
sg64
(lp1954
S':'
asbag57
(g78
g59
NtRp1955
(dp1956
g62
(dp1957
sg71
g1942
sg64
(lp1958
g57
(g58
g59
NtRp1959
(dp1960
g62
(dp1961
g70
I4
ssg71
g1955
sg64
(lp1962
S'http'
p1963
asbasbasbag57
(g73
g59
NtRp1964
(dp1965
g62
(dp1966
sg71
g847
sg64
(lp1967
g57
(g78
g59
NtRp1968
(dp1969
g62
(dp1970
g82
g83
ssg71
g1964
sg64
(lp1971
S'wsgi_version'
p1972
asbag57
(g78
g59
NtRp1973
(dp1974
g62
(dp1975
g89
g90
ssg71
g1964
sg64
(lp1976
S':'
asbag57
(g78
g59
NtRp1977
(dp1978
g62
(dp1979
sg71
g1964
sg64
(lp1980
g57
(g58
g59
NtRp1981
(dp1982
g62
(dp1983
g70
I4
ssg71
g1977
sg64
(lp1984
g57
(g66
g59
NtRp1985
(dp1986
g62
(dp1987
g70
I3
ssg71
Nsg64
(lp1988
g57
(g73
g59
NtRp1989
(dp1990
g62
(dp1991
sg71
g1985
sg64
(lp1992
g57
(g78
g59
NtRp1993
(dp1994
g62
(dp1995
sg71
g1989
sg64
(lp1996
g57
(g58
g59
NtRp1997
(dp1998
g62
(dp1999
g70
I3
ssg71
g1993
sg64
(lp2000
S'1'
asbasbasbag57
(g73
g59
NtRp2001
(dp2002
g62
(dp2003
sg71
g1985
sg64
(lp2004
g57
(g78
g59
NtRp2005
(dp2006
g62
(dp2007
sg71
g2001
sg64
(lp2008
g57
(g58
g59
NtRp2009
(dp2010
g62
(dp2011
g70
I3
ssg71
g2005
sg64
(lp2012
S'0'
asbasbasbasbasbasbasbasbasbasbasbag57
(g73
g59
NtRp2013
(dp2014
g62
(dp2015
sg71
g67
sg64
(lp2016
g57
(g78
g59
NtRp2017
(dp2018
g62
(dp2019
g82
g83
ssg71
g2013
sg64
(lp2020
S'extension'
p2021
asbag57
(g78
g59
NtRp2022
(dp2023
g62
(dp2024
g89
g90
ssg71
g2013
sg64
(lp2025
S':'
asbag57
(g78
g59
NtRp2026
(dp2027
g62
(dp2028
sg71
g2013
sg64
(lp2029
g57
(g58
g59
NtRp2030
(dp2031
g62
(dp2032
g70
I5
ssg71
g2026
sg64
(lp2033
S'html'
p2034
asbasbasbag57
(g73
g59
NtRp2035
(dp2036
g62
(dp2037
sg71
g67
sg64
(lp2038
g57
(g78
g59
NtRp2039
(dp2040
g62
(dp2041
g82
g83
ssg71
g2035
sg64
(lp2042
S'folder'
p2043
asbag57
(g78
g59
NtRp2044
(dp2045
g62
(dp2046
g89
g90
ssg71
g2035
sg64
(lp2047
S':'
asbag57
(g78
g59
NtRp2048
(dp2049
g62
(dp2050
sg71
g2035
sg64
(lp2051
g57
(g58
g59
NtRp2052
(dp2053
g62
(dp2054
g70
I5
ssg71
g2048
sg64
(lp2055
S'/home/wionel/Desktop/web2py/applications/music/'
p2056
asbasbasbag57
(g73
g59
NtRp2057
(dp2058
g62
(dp2059
sg71
g67
sg64
(lp2060
g57
(g78
g59
NtRp2061
(dp2062
g62
(dp2063
g82
g83
ssg71
g2057
sg64
(lp2064
S'function'
p2065
asbag57
(g78
g59
NtRp2066
(dp2067
g62
(dp2068
g89
g90
ssg71
g2057
sg64
(lp2069
S':'
asbag57
(g78
g59
NtRp2070
(dp2071
g62
(dp2072
sg71
g2057
sg64
(lp2073
g57
(g58
g59
NtRp2074
(dp2075
g62
(dp2076
g70
I5
ssg71
g2070
sg64
(lp2077
S'save'
p2078
asbasbasbag57
(g73
g59
NtRp2079
(dp2080
g62
(dp2081
sg71
g67
sg64
(lp2082
g57
(g78
g59
NtRp2083
(dp2084
g62
(dp2085
g82
g83
ssg71
g2079
sg64
(lp2086
S'get_vars'
p2087
asbag57
(g78
g59
NtRp2088
(dp2089
g62
(dp2090
g89
g90
ssg71
g2079
sg64
(lp2091
S':'
asbag57
(g78
g59
NtRp2092
(dp2093
g62
(dp2094
sg71
g2079
sg64
(lp2095
g57
(g58
g59
NtRp2096
(dp2097
g62
(dp2098
g70
I5
ssg71
g2092
sg64
(lp2099
g57
(g66
g59
NtRp2100
(dp2101
g62
(dp2102
g70
I4
ssg71
Nsg64
(lp2103
sbasbasbasbag57
(g73
g59
NtRp2104
(dp2105
g62
(dp2106
sg71
g67
sg64
(lp2107
g57
(g78
g59
NtRp2108
(dp2109
g62
(dp2110
g82
g83
ssg71
g2104
sg64
(lp2111
S'global_settings'
p2112
asbag57
(g78
g59
NtRp2113
(dp2114
g62
(dp2115
g89
g90
ssg71
g2104
sg64
(lp2116
S':'
asbag57
(g78
g59
NtRp2117
(dp2118
g62
(dp2119
sg71
g2104
sg64
(lp2120
g57
(g58
g59
NtRp2121
(dp2122
g62
(dp2123
g70
I5
ssg71
g2117
sg64
(lp2124
g57
(g66
g59
NtRp2125
(dp2126
g62
(dp2127
g70
I4
ssg71
Nsg64
(lp2128
g57
(g73
g59
NtRp2129
(dp2130
g62
(dp2131
sg71
g2125
sg64
(lp2132
g57
(g78
g59
NtRp2133
(dp2134
g62
(dp2135
g82
g83
ssg71
g2129
sg64
(lp2136
g859
asbag57
(g78
g59
NtRp2137
(dp2138
g62
(dp2139
g89
g90
ssg71
g2129
sg64
(lp2140
S':'
asbag57
(g78
g59
NtRp2141
(dp2142
g62
(dp2143
sg71
g2129
sg64
(lp2144
g57
(g58
g59
NtRp2145
(dp2146
g62
(dp2147
g70
I4
ssg71
g2141
sg64
(lp2148
S"set(['/home/wionel/Desktop/web2py/applications/admin/', '/home/wionel/Desktop/web2py/applications/welcome/', '/home/wionel/Desktop/web2py/applications/music/'])"
p2149
asbasbasbag57
(g73
g59
NtRp2150
(dp2151
g62
(dp2152
sg71
g2125
sg64
(lp2153
g57
(g78
g59
NtRp2154
(dp2155
g62
(dp2156
g82
g83
ssg71
g2150
sg64
(lp2157
g881
asbag57
(g78
g59
NtRp2158
(dp2159
g62
(dp2160
g89
g90
ssg71
g2150
sg64
(lp2161
S':'
asbag57
(g78
g59
NtRp2162
(dp2163
g62
(dp2164
sg71
g2150
sg64
(lp2165
g57
(g58
g59
NtRp2166
(dp2167
g62
(dp2168
g70
I4
ssg71
g2162
sg64
(lp2169
g894
asbasbasbag57
(g73
g59
NtRp2170
(dp2171
g62
(dp2172
sg71
g2125
sg64
(lp2173
g57
(g78
g59
NtRp2174
(dp2175
g62
(dp2176
g82
g83
ssg71
g2170
sg64
(lp2177
g903
asbag57
(g78
g59
NtRp2178
(dp2179
g62
(dp2180
g89
g90
ssg71
g2170
sg64
(lp2181
S':'
asbag57
(g78
g59
NtRp2182
(dp2183
g62
(dp2184
sg71
g2170
sg64
(lp2185
g57
(g58
g59
NtRp2186
(dp2187
g62
(dp2188
g70
I4
ssg71
g2182
sg64
(lp2189
g57
(g66
g59
NtRp2190
(dp2191
g62
(dp2192
g70
I3
ssg71
Nsg64
(lp2193
sbasbasbasbag57
(g73
g59
NtRp2194
(dp2195
g62
(dp2196
sg71
g2125
sg64
(lp2197
g57
(g78
g59
NtRp2198
(dp2199
g62
(dp2200
g82
g83
ssg71
g2194
sg64
(lp2201
g928
asbag57
(g78
g59
NtRp2202
(dp2203
g62
(dp2204
g89
g90
ssg71
g2194
sg64
(lp2205
S':'
asbag57
(g78
g59
NtRp2206
(dp2207
g62
(dp2208
sg71
g2194
sg64
(lp2209
g57
(g58
g59
NtRp2210
(dp2211
g62
(dp2212
g70
I4
ssg71
g2206
sg64
(lp2213
S"<Values at 0x2d6d488: {'verbose': False, 'ip': '127.0.0.1', 'with_scheduler': False, 'ips': ['127.0.1.1'], 'shutdown_timeout': 5, 'taskbar': False, 'port': 8000, 'maxthreads': None, 'softcron': False, 'server_name': 'Rohan', 'bpython': False, 'nogui': False, 'pid_filename': 'httpserver.pid', 'extcron': False, 'runcron': False, 'run_system_tests': False, 'test': None, 'folder': '/home/wionel/Desktop/web2py', 'config': '', 'minthreads': None, 'winservice': '', 'shell': None, 'run': '', 'log_filename': 'httpserver.log', 'debuglevel': 30, 'args': [''], 'socket_timeout': 5, 'ssl_ca_certificate': None, 'scheduler': None, 'profiler_filename': None, 'ssl_private_key': '', 'scheduler_groups': None, 'password': '<ask>', 'request_queue_size': 5, 'ssl_certificate': '', 'cronjob': False, 'numthreads': None, 'quiet': False, 'interfaces': None, 'import_models': False, 'timeout': 10, 'plain': False, 'nobanner': False}>"
p2214
asbasbasbag57
(g73
g59
NtRp2215
(dp2216
g62
(dp2217
sg71
g2125
sg64
(lp2218
g57
(g78
g59
NtRp2219
(dp2220
g62
(dp2221
g82
g83
ssg71
g2215
sg64
(lp2222
g994
asbag57
(g78
g59
NtRp2223
(dp2224
g62
(dp2225
g89
g90
ssg71
g2215
sg64
(lp2226
S':'
asbag57
(g78
g59
NtRp2227
(dp2228
g62
(dp2229
sg71
g2215
sg64
(lp2230
g57
(g58
g59
NtRp2231
(dp2232
g62
(dp2233
g70
I4
ssg71
g2227
sg64
(lp2234
S'set([])'
p2235
asbasbasbag57
(g73
g59
NtRp2236
(dp2237
g62
(dp2238
sg71
g2125
sg64
(lp2239
g57
(g78
g59
NtRp2240
(dp2241
g62
(dp2242
g82
g83
ssg71
g2236
sg64
(lp2243
g1016
asbag57
(g78
g59
NtRp2244
(dp2245
g62
(dp2246
g89
g90
ssg71
g2236
sg64
(lp2247
S':'
asbag57
(g78
g59
NtRp2248
(dp2249
g62
(dp2250
sg71
g2236
sg64
(lp2251
g57
(g58
g59
NtRp2252
(dp2253
g62
(dp2254
g70
I4
ssg71
g2248
sg64
(lp2255
g100
asbasbasbag57
(g73
g59
NtRp2256
(dp2257
g62
(dp2258
sg71
g2125
sg64
(lp2259
g57
(g78
g59
NtRp2260
(dp2261
g62
(dp2262
g82
g83
ssg71
g2256
sg64
(lp2263
g1037
asbag57
(g78
g59
NtRp2264
(dp2265
g62
(dp2266
g89
g90
ssg71
g2256
sg64
(lp2267
S':'
asbag57
(g78
g59
NtRp2268
(dp2269
g62
(dp2270
sg71
g2256
sg64
(lp2271
g57
(g58
g59
NtRp2272
(dp2273
g62
(dp2274
g70
I4
ssg71
g2268
sg64
(lp2275
g1050
asbasbasbag57
(g73
g59
NtRp2276
(dp2277
g62
(dp2278
sg71
g2125
sg64
(lp2279
g57
(g78
g59
NtRp2280
(dp2281
g62
(dp2282
g82
g83
ssg71
g2276
sg64
(lp2283
g1343
asbag57
(g78
g59
NtRp2284
(dp2285
g62
(dp2286
g89
g90
ssg71
g2276
sg64
(lp2287
S':'
asbag57
(g78
g59
NtRp2288
(dp2289
g62
(dp2290
sg71
g2276
sg64
(lp2291
g57
(g58
g59
NtRp2292
(dp2293
g62
(dp2294
g70
I4
ssg71
g2288
sg64
(lp2295
g100
asbasbasbag57
(g73
g59
NtRp2296
(dp2297
g62
(dp2298
sg71
g2125
sg64
(lp2299
g57
(g78
g59
NtRp2300
(dp2301
g62
(dp2302
g82
g83
ssg71
g2296
sg64
(lp2303
g1364
asbag57
(g78
g59
NtRp2304
(dp2305
g62
(dp2306
g89
g90
ssg71
g2296
sg64
(lp2307
S':'
asbag57
(g78
g59
NtRp2308
(dp2309
g62
(dp2310
sg71
g2296
sg64
(lp2311
g57
(g58
g59
NtRp2312
(dp2313
g62
(dp2314
g70
I4
ssg71
g2308
sg64
(lp2315
g100
asbasbasbag57
(g73
g59
NtRp2316
(dp2317
g62
(dp2318
sg71
g2125
sg64
(lp2319
g57
(g78
g59
NtRp2320
(dp2321
g62
(dp2322
g82
g83
ssg71
g2316
sg64
(lp2323
g1385
asbag57
(g78
g59
NtRp2324
(dp2325
g62
(dp2326
g89
g90
ssg71
g2316
sg64
(lp2327
S':'
asbag57
(g78
g59
NtRp2328
(dp2329
g62
(dp2330
sg71
g2316
sg64
(lp2331
g57
(g58
g59
NtRp2332
(dp2333
g62
(dp2334
g70
I4
ssg71
g2328
sg64
(lp2335
g57
(g66
g59
NtRp2336
(dp2337
g62
(dp2338
g70
I3
ssg71
Nsg64
(lp2339
g57
(g73
g59
NtRp2340
(dp2341
g62
(dp2342
sg71
g2336
sg64
(lp2343
g57
(g78
g59
NtRp2344
(dp2345
g62
(dp2346
sg71
g2340
sg64
(lp2347
g57
(g58
g59
NtRp2348
(dp2349
g62
(dp2350
g70
I3
ssg71
g2344
sg64
(lp2351
g1414
asbasbasbag57
(g73
g59
NtRp2352
(dp2353
g62
(dp2354
sg71
g2336
sg64
(lp2355
g57
(g78
g59
NtRp2356
(dp2357
g62
(dp2358
sg71
g2352
sg64
(lp2359
g57
(g58
g59
NtRp2360
(dp2361
g62
(dp2362
g70
I3
ssg71
g2356
sg64
(lp2363
g1427
asbasbasbag57
(g73
g59
NtRp2364
(dp2365
g62
(dp2366
sg71
g2336
sg64
(lp2367
g57
(g78
g59
NtRp2368
(dp2369
g62
(dp2370
sg71
g2364
sg64
(lp2371
g57
(g58
g59
NtRp2372
(dp2373
g62
(dp2374
g70
I3
ssg71
g2368
sg64
(lp2375
g1440
asbasbasbag57
(g73
g59
NtRp2376
(dp2377
g62
(dp2378
sg71
g2336
sg64
(lp2379
g57
(g78
g59
NtRp2380
(dp2381
g62
(dp2382
sg71
g2376
sg64
(lp2383
g57
(g58
g59
NtRp2384
(dp2385
g62
(dp2386
g70
I3
ssg71
g2380
sg64
(lp2387
g1453
asbasbasbag57
(g73
g59
NtRp2388
(dp2389
g62
(dp2390
sg71
g2336
sg64
(lp2391
g57
(g78
g59
NtRp2392
(dp2393
g62
(dp2394
sg71
g2388
sg64
(lp2395
g57
(g58
g59
NtRp2396
(dp2397
g62
(dp2398
g70
I3
ssg71
g2392
sg64
(lp2399
g1466
asbasbasbasbasbasbasbag57
(g73
g59
NtRp2400
(dp2401
g62
(dp2402
sg71
g2125
sg64
(lp2403
g57
(g78
g59
NtRp2404
(dp2405
g62
(dp2406
g82
g83
ssg71
g2400
sg64
(lp2407
g1733
asbag57
(g78
g59
NtRp2408
(dp2409
g62
(dp2410
g89
g90
ssg71
g2400
sg64
(lp2411
S':'
asbag57
(g78
g59
NtRp2412
(dp2413
g62
(dp2414
sg71
g2400
sg64
(lp2415
g57
(g58
g59
NtRp2416
(dp2417
g62
(dp2418
g70
I4
ssg71
g2412
sg64
(lp2419
g57
(g66
g59
NtRp2420
(dp2421
g62
(dp2422
g70
I3
ssg71
Nsg64
(lp2423
g57
(g73
g59
NtRp2424
(dp2425
g62
(dp2426
sg71
g2420
sg64
(lp2427
g57
(g78
g59
NtRp2428
(dp2429
g62
(dp2430
sg71
g2424
sg64
(lp2431
g57
(g58
g59
NtRp2432
(dp2433
g62
(dp2434
g70
I3
ssg71
g2428
sg64
(lp2435
S'2'
asbasbasbag57
(g73
g59
NtRp2436
(dp2437
g62
(dp2438
sg71
g2420
sg64
(lp2439
g57
(g78
g59
NtRp2440
(dp2441
g62
(dp2442
sg71
g2436
sg64
(lp2443
g57
(g58
g59
NtRp2444
(dp2445
g62
(dp2446
g70
I3
ssg71
g2440
sg64
(lp2447
S'2'
asbasbasbag57
(g73
g59
NtRp2448
(dp2449
g62
(dp2450
sg71
g2420
sg64
(lp2451
g57
(g78
g59
NtRp2452
(dp2453
g62
(dp2454
sg71
g2448
sg64
(lp2455
g57
(g58
g59
NtRp2456
(dp2457
g62
(dp2458
g70
I3
ssg71
g2452
sg64
(lp2459
S'1'
asbasbasbag57
(g73
g59
NtRp2460
(dp2461
g62
(dp2462
sg71
g2420
sg64
(lp2463
g57
(g78
g59
NtRp2464
(dp2465
g62
(dp2466
sg71
g2460
sg64
(lp2467
g57
(g58
g59
NtRp2468
(dp2469
g62
(dp2470
g70
I3
ssg71
g2464
sg64
(lp2471
S'datetime.datetime(2012, 10, 21, 16, 57, 4)'
p2472
asbasbasbag57
(g73
g59
NtRp2473
(dp2474
g62
(dp2475
sg71
g2420
sg64
(lp2476
g57
(g78
g59
NtRp2477
(dp2478
g62
(dp2479
sg71
g2473
sg64
(lp2480
g57
(g58
g59
NtRp2481
(dp2482
g62
(dp2483
g70
I3
ssg71
g2477
sg64
(lp2484
g1811
asbasbasbasbasbasbasbasbasbasbasbag57
(g73
g59
NtRp2485
(dp2486
g62
(dp2487
sg71
g67
sg64
(lp2488
g57
(g78
g59
NtRp2489
(dp2490
g62
(dp2491
g82
g83
ssg71
g2485
sg64
(lp2492
S'is_https'
p2493
asbag57
(g78
g59
NtRp2494
(dp2495
g62
(dp2496
g89
g90
ssg71
g2485
sg64
(lp2497
S':'
asbag57
(g78
g59
NtRp2498
(dp2499
g62
(dp2500
sg71
g2485
sg64
(lp2501
g57
(g58
g59
NtRp2502
(dp2503
g62
(dp2504
g70
I5
ssg71
g2498
sg64
(lp2505
g100
asbasbasbag57
(g73
g59
NtRp2506
(dp2507
g62
(dp2508
sg71
g67
sg64
(lp2509
g57
(g78
g59
NtRp2510
(dp2511
g62
(dp2512
g82
g83
ssg71
g2506
sg64
(lp2513
S'is_local'
p2514
asbag57
(g78
g59
NtRp2515
(dp2516
g62
(dp2517
g89
g90
ssg71
g2506
sg64
(lp2518
S':'
asbag57
(g78
g59
NtRp2519
(dp2520
g62
(dp2521
sg71
g2506
sg64
(lp2522
g57
(g58
g59
NtRp2523
(dp2524
g62
(dp2525
g70
I5
ssg71
g2519
sg64
(lp2526
g1920
asbasbasbag57
(g73
g59
NtRp2527
(dp2528
g62
(dp2529
sg71
g67
sg64
(lp2530
g57
(g78
g59
NtRp2531
(dp2532
g62
(dp2533
g82
g83
ssg71
g2527
sg64
(lp2534
S'is_restful'
p2535
asbag57
(g78
g59
NtRp2536
(dp2537
g62
(dp2538
g89
g90
ssg71
g2527
sg64
(lp2539
S':'
asbag57
(g78
g59
NtRp2540
(dp2541
g62
(dp2542
sg71
g2527
sg64
(lp2543
g57
(g58
g59
NtRp2544
(dp2545
g62
(dp2546
g70
I5
ssg71
g2540
sg64
(lp2547
g100
asbasbasbag57
(g73
g59
NtRp2548
(dp2549
g62
(dp2550
sg71
g67
sg64
(lp2551
g57
(g78
g59
NtRp2552
(dp2553
g62
(dp2554
g82
g83
ssg71
g2548
sg64
(lp2555
S'now'
p2556
asbag57
(g78
g59
NtRp2557
(dp2558
g62
(dp2559
g89
g90
ssg71
g2548
sg64
(lp2560
S':'
asbag57
(g78
g59
NtRp2561
(dp2562
g62
(dp2563
sg71
g2548
sg64
(lp2564
g57
(g58
g59
NtRp2565
(dp2566
g62
(dp2567
g70
I5
ssg71
g2561
sg64
(lp2568
S'datetime.datetime(2012, 11, 15, 1, 23, 22, 61073)'
p2569
asbasbasbag57
(g73
g59
NtRp2570
(dp2571
g62
(dp2572
sg71
g67
sg64
(lp2573
g57
(g78
g59
NtRp2574
(dp2575
g62
(dp2576
g82
g83
ssg71
g2570
sg64
(lp2577
S'post_vars'
p2578
asbag57
(g78
g59
NtRp2579
(dp2580
g62
(dp2581
g89
g90
ssg71
g2570
sg64
(lp2582
S':'
asbag57
(g78
g59
NtRp2583
(dp2584
g62
(dp2585
sg71
g2570
sg64
(lp2586
g57
(g58
g59
NtRp2587
(dp2588
g62
(dp2589
g70
I5
ssg71
g2583
sg64
(lp2590
g57
(g66
g59
NtRp2591
(dp2592
g62
(dp2593
g70
I4
ssg71
Nsg64
(lp2594
g57
(g73
g59
NtRp2595
(dp2596
g62
(dp2597
sg71
g2591
sg64
(lp2598
g57
(g78
g59
NtRp2599
(dp2600
g62
(dp2601
g82
g83
ssg71
g2595
sg64
(lp2602
S'playlist_name'
p2603
asbag57
(g78
g59
NtRp2604
(dp2605
g62
(dp2606
g89
g90
ssg71
g2595
sg64
(lp2607
S':'
asbag57
(g78
g59
NtRp2608
(dp2609
g62
(dp2610
sg71
g2595
sg64
(lp2611
g57
(g58
g59
NtRp2612
(dp2613
g62
(dp2614
g70
I4
ssg71
g2608
sg64
(lp2615
S'123123'
p2616
asbasbasbag57
(g73
g59
NtRp2617
(dp2618
g62
(dp2619
sg71
g2591
sg64
(lp2620
g57
(g78
g59
NtRp2621
(dp2622
g62
(dp2623
g82
g83
ssg71
g2617
sg64
(lp2624
S'songlist'
p2625
asbag57
(g78
g59
NtRp2626
(dp2627
g62
(dp2628
g89
g90
ssg71
g2617
sg64
(lp2629
S':'
asbag57
(g78
g59
NtRp2630
(dp2631
g62
(dp2632
sg71
g2617
sg64
(lp2633
g57
(g58
g59
NtRp2634
(dp2635
g62
(dp2636
g70
I4
ssg71
g2630
sg64
(lp2637
S'5,3,1,6,8,2,7,'
p2638
asbasbasbag57
(g73
g59
NtRp2639
(dp2640
g62
(dp2641
sg71
g2591
sg64
(lp2642
g57
(g78
g59
NtRp2643
(dp2644
g62
(dp2645
g82
g83
ssg71
g2639
sg64
(lp2646
S'songnamelist'
p2647
asbag57
(g78
g59
NtRp2648
(dp2649
g62
(dp2650
g89
g90
ssg71
g2639
sg64
(lp2651
S':'
asbag57
(g78
g59
NtRp2652
(dp2653
g62
(dp2654
sg71
g2639
sg64
(lp2655
g57
(g58
g59
NtRp2656
(dp2657
g62
(dp2658
g70
I4
ssg71
g2652
sg64
(lp2659
S''
asbasbasbasbasbasbasbag57
(g73
g59
NtRp2660
(dp2661
g62
(dp2662
sg71
g67
sg64
(lp2663
g57
(g78
g59
NtRp2664
(dp2665
g62
(dp2666
g82
g83
ssg71
g2660
sg64
(lp2667
S'raw_args'
p2668
asbag57
(g78
g59
NtRp2669
(dp2670
g62
(dp2671
g89
g90
ssg71
g2660
sg64
(lp2672
S':'
asbag57
(g78
g59
NtRp2673
(dp2674
g62
(dp2675
sg71
g2660
sg64
(lp2676
g57
(g58
g59
NtRp2677
(dp2678
g62
(dp2679
g70
I5
ssg71
g2673
sg64
(lp2680
S''
asbasbasbag57
(g73
g59
NtRp2681
(dp2682
g62
(dp2683
sg71
g67
sg64
(lp2684
g57
(g78
g59
NtRp2685
(dp2686
g62
(dp2687
g82
g83
ssg71
g2681
sg64
(lp2688
S'raw_extension'
p2689
asbag57
(g78
g59
NtRp2690
(dp2691
g62
(dp2692
g89
g90
ssg71
g2681
sg64
(lp2693
S':'
asbag57
(g78
g59
NtRp2694
(dp2695
g62
(dp2696
sg71
g2681
sg64
(lp2697
g57
(g58
g59
NtRp2698
(dp2699
g62
(dp2700
g70
I5
ssg71
g2694
sg64
(lp2701
S'None'
p2702
asbasbasbag57
(g73
g59
NtRp2703
(dp2704
g62
(dp2705
sg71
g67
sg64
(lp2706
g57
(g78
g59
NtRp2707
(dp2708
g62
(dp2709
g82
g83
ssg71
g2703
sg64
(lp2710
S'url'
p2711
asbag57
(g78
g59
NtRp2712
(dp2713
g62
(dp2714
g89
g90
ssg71
g2703
sg64
(lp2715
S':'
asbag57
(g78
g59
NtRp2716
(dp2717
g62
(dp2718
sg71
g2703
sg64
(lp2719
g57
(g58
g59
NtRp2720
(dp2721
g62
(dp2722
g70
I5
ssg71
g2716
sg64
(lp2723
g1488
asbasbasbag57
(g73
g59
NtRp2724
(dp2725
g62
(dp2726
sg71
g67
sg64
(lp2727
g57
(g78
g59
NtRp2728
(dp2729
g62
(dp2730
g82
g83
ssg71
g2724
sg64
(lp2731
S'utcnow'
p2732
asbag57
(g78
g59
NtRp2733
(dp2734
g62
(dp2735
g89
g90
ssg71
g2724
sg64
(lp2736
S':'
asbag57
(g78
g59
NtRp2737
(dp2738
g62
(dp2739
sg71
g2724
sg64
(lp2740
g57
(g58
g59
NtRp2741
(dp2742
g62
(dp2743
g70
I5
ssg71
g2737
sg64
(lp2744
S'datetime.datetime(2012, 11, 14, 19, 53, 22, 61114)'
p2745
asbasbasbag57
(g73
g59
NtRp2746
(dp2747
g62
(dp2748
sg71
g67
sg64
(lp2749
g57
(g78
g59
NtRp2750
(dp2751
g62
(dp2752
g82
g83
ssg71
g2746
sg64
(lp2753
S'uuid'
p2754
asbag57
(g78
g59
NtRp2755
(dp2756
g62
(dp2757
g89
g90
ssg71
g2746
sg64
(lp2758
S':'
asbag57
(g78
g59
NtRp2759
(dp2760
g62
(dp2761
sg71
g2746
sg64
(lp2762
g57
(g58
g59
NtRp2763
(dp2764
g62
(dp2765
g70
I5
ssg71
g2759
sg64
(lp2766
S'music/127.0.0.1.2012-11-15.01-23-22.6a7cc4a8-9960-4f5e-9811-889b9f638b09'
p2767
asbasbasbag57
(g73
g59
NtRp2768
(dp2769
g62
(dp2770
sg71
g67
sg64
(lp2771
g57
(g78
g59
NtRp2772
(dp2773
g62
(dp2774
g82
g83
ssg71
g2768
sg64
(lp2775
S'vars'
p2776
asbag57
(g78
g59
NtRp2777
(dp2778
g62
(dp2779
g89
g90
ssg71
g2768
sg64
(lp2780
S':'
asbag57
(g78
g59
NtRp2781
(dp2782
g62
(dp2783
sg71
g2768
sg64
(lp2784
g57
(g58
g59
NtRp2785
(dp2786
g62
(dp2787
g70
I5
ssg71
g2781
sg64
(lp2788
g57
(g66
g59
NtRp2789
(dp2790
g62
(dp2791
g70
I4
ssg71
Nsg64
(lp2792
g57
(g73
g59
NtRp2793
(dp2794
g62
(dp2795
sg71
g2789
sg64
(lp2796
g57
(g78
g59
NtRp2797
(dp2798
g62
(dp2799
g82
g83
ssg71
g2793
sg64
(lp2800
g2603
asbag57
(g78
g59
NtRp2801
(dp2802
g62
(dp2803
g89
g90
ssg71
g2793
sg64
(lp2804
S':'
asbag57
(g78
g59
NtRp2805
(dp2806
g62
(dp2807
sg71
g2793
sg64
(lp2808
g57
(g58
g59
NtRp2809
(dp2810
g62
(dp2811
g70
I4
ssg71
g2805
sg64
(lp2812
g2616
asbasbasbag57
(g73
g59
NtRp2813
(dp2814
g62
(dp2815
sg71
g2789
sg64
(lp2816
g57
(g78
g59
NtRp2817
(dp2818
g62
(dp2819
g82
g83
ssg71
g2813
sg64
(lp2820
g2625
asbag57
(g78
g59
NtRp2821
(dp2822
g62
(dp2823
g89
g90
ssg71
g2813
sg64
(lp2824
S':'
asbag57
(g78
g59
NtRp2825
(dp2826
g62
(dp2827
sg71
g2813
sg64
(lp2828
g57
(g58
g59
NtRp2829
(dp2830
g62
(dp2831
g70
I4
ssg71
g2825
sg64
(lp2832
g2638
asbasbasbag57
(g73
g59
NtRp2833
(dp2834
g62
(dp2835
sg71
g2789
sg64
(lp2836
g57
(g78
g59
NtRp2837
(dp2838
g62
(dp2839
g82
g83
ssg71
g2833
sg64
(lp2840
g2647
asbag57
(g78
g59
NtRp2841
(dp2842
g62
(dp2843
g89
g90
ssg71
g2833
sg64
(lp2844
S':'
asbag57
(g78
g59
NtRp2845
(dp2846
g62
(dp2847
sg71
g2833
sg64
(lp2848
g57
(g58
g59
NtRp2849
(dp2850
g62
(dp2851
g70
I4
ssg71
g2845
sg64
(lp2852
S''
asbasbasbasbasbasbasbag57
(g73
g59
NtRp2853
(dp2854
g62
(dp2855
sg71
g67
sg64
(lp2856
g57
(g78
g59
NtRp2857
(dp2858
g62
(dp2859
g82
g83
ssg71
g2853
sg64
(lp2860
S'wsgi'
p2861
asbag57
(g78
g59
NtRp2862
(dp2863
g62
(dp2864
g89
g90
ssg71
g2853
sg64
(lp2865
S':'
asbag57
(g78
g59
NtRp2866
(dp2867
g62
(dp2868
sg71
g2853
sg64
(lp2869
g57
(g58
g59
NtRp2870
(dp2871
g62
(dp2872
g70
I5
ssg71
g2866
sg64
(lp2873
g57
(g66
g59
NtRp2874
(dp2875
g62
(dp2876
g70
I4
ssg71
Nsg64
(lp2877
g57
(g73
g59
NtRp2878
(dp2879
g62
(dp2880
sg71
g2874
sg64
(lp2881
g57
(g78
g59
NtRp2882
(dp2883
g62
(dp2884
g82
g83
ssg71
g2878
sg64
(lp2885
S'environ'
p2886
asbag57
(g78
g59
NtRp2887
(dp2888
g62
(dp2889
g89
g90
ssg71
g2878
sg64
(lp2890
S':'
asbag57
(g78
g59
NtRp2891
(dp2892
g62
(dp2893
sg71
g2878
sg64
(lp2894
g57
(g58
g59
NtRp2895
(dp2896
g62
(dp2897
g70
I4
ssg71
g2891
sg64
(lp2898
g57
(g66
g59
NtRp2899
(dp2900
g62
(dp2901
g70
I3
ssg71
Nsg64
(lp2902
g57
(g73
g59
NtRp2903
(dp2904
g62
(dp2905
sg71
g2899
sg64
(lp2906
g57
(g78
g59
NtRp2907
(dp2908
g62
(dp2909
g82
g83
ssg71
g2903
sg64
(lp2910
S'CONTENT_LENGTH'
p2911
asbag57
(g78
g59
NtRp2912
(dp2913
g62
(dp2914
g89
g90
ssg71
g2903
sg64
(lp2915
S':'
asbag57
(g78
g59
NtRp2916
(dp2917
g62
(dp2918
sg71
g2903
sg64
(lp2919
g57
(g58
g59
NtRp2920
(dp2921
g62
(dp2922
g70
I3
ssg71
g2916
sg64
(lp2923
g963
asbasbasbag57
(g73
g59
NtRp2924
(dp2925
g62
(dp2926
sg71
g2899
sg64
(lp2927
g57
(g78
g59
NtRp2928
(dp2929
g62
(dp2930
g82
g83
ssg71
g2924
sg64
(lp2931
S'CONTENT_TYPE'
p2932
asbag57
(g78
g59
NtRp2933
(dp2934
g62
(dp2935
g89
g90
ssg71
g2924
sg64
(lp2936
S':'
asbag57
(g78
g59
NtRp2937
(dp2938
g62
(dp2939
sg71
g2924
sg64
(lp2940
g57
(g58
g59
NtRp2941
(dp2942
g62
(dp2943
g70
I3
ssg71
g2937
sg64
(lp2944
g985
asbasbasbag57
(g73
g59
NtRp2945
(dp2946
g62
(dp2947
sg71
g2899
sg64
(lp2948
g57
(g78
g59
NtRp2949
(dp2950
g62
(dp2951
g82
g83
ssg71
g2945
sg64
(lp2952
S'HTTP_ACCEPT'
p2953
asbag57
(g78
g59
NtRp2954
(dp2955
g62
(dp2956
g89
g90
ssg71
g2945
sg64
(lp2957
S':'
asbag57
(g78
g59
NtRp2958
(dp2959
g62
(dp2960
sg71
g2945
sg64
(lp2961
g57
(g58
g59
NtRp2962
(dp2963
g62
(dp2964
g70
I3
ssg71
g2958
sg64
(lp2965
g1072
asbasbasbag57
(g73
g59
NtRp2966
(dp2967
g62
(dp2968
sg71
g2899
sg64
(lp2969
g57
(g78
g59
NtRp2970
(dp2971
g62
(dp2972
g82
g83
ssg71
g2966
sg64
(lp2973
S'HTTP_ACCEPT_CHARSET'
p2974
asbag57
(g78
g59
NtRp2975
(dp2976
g62
(dp2977
g89
g90
ssg71
g2966
sg64
(lp2978
S':'
asbag57
(g78
g59
NtRp2979
(dp2980
g62
(dp2981
sg71
g2966
sg64
(lp2982
g57
(g58
g59
NtRp2983
(dp2984
g62
(dp2985
g70
I3
ssg71
g2979
sg64
(lp2986
g1094
asbasbasbag57
(g73
g59
NtRp2987
(dp2988
g62
(dp2989
sg71
g2899
sg64
(lp2990
g57
(g78
g59
NtRp2991
(dp2992
g62
(dp2993
g82
g83
ssg71
g2987
sg64
(lp2994
S'HTTP_ACCEPT_ENCODING'
p2995
asbag57
(g78
g59
NtRp2996
(dp2997
g62
(dp2998
g89
g90
ssg71
g2987
sg64
(lp2999
S':'
asbag57
(g78
g59
NtRp3000
(dp3001
g62
(dp3002
sg71
g2987
sg64
(lp3003
g57
(g58
g59
NtRp3004
(dp3005
g62
(dp3006
g70
I3
ssg71
g3000
sg64
(lp3007
g1116
asbasbasbag57
(g73
g59
NtRp3008
(dp3009
g62
(dp3010
sg71
g2899
sg64
(lp3011
g57
(g78
g59
NtRp3012
(dp3013
g62
(dp3014
g82
g83
ssg71
g3008
sg64
(lp3015
S'HTTP_ACCEPT_LANGUAGE'
p3016
asbag57
(g78
g59
NtRp3017
(dp3018
g62
(dp3019
g89
g90
ssg71
g3008
sg64
(lp3020
S':'
asbag57
(g78
g59
NtRp3021
(dp3022
g62
(dp3023
sg71
g3008
sg64
(lp3024
g57
(g58
g59
NtRp3025
(dp3026
g62
(dp3027
g70
I3
ssg71
g3021
sg64
(lp3028
g1138
asbasbasbag57
(g73
g59
NtRp3029
(dp3030
g62
(dp3031
sg71
g2899
sg64
(lp3032
g57
(g78
g59
NtRp3033
(dp3034
g62
(dp3035
g82
g83
ssg71
g3029
sg64
(lp3036
S'HTTP_CACHE_CONTROL'
p3037
asbag57
(g78
g59
NtRp3038
(dp3039
g62
(dp3040
g89
g90
ssg71
g3029
sg64
(lp3041
S':'
asbag57
(g78
g59
NtRp3042
(dp3043
g62
(dp3044
sg71
g3029
sg64
(lp3045
g57
(g58
g59
NtRp3046
(dp3047
g62
(dp3048
g70
I3
ssg71
g3042
sg64
(lp3049
g1160
asbasbasbag57
(g73
g59
NtRp3050
(dp3051
g62
(dp3052
sg71
g2899
sg64
(lp3053
g57
(g78
g59
NtRp3054
(dp3055
g62
(dp3056
g82
g83
ssg71
g3050
sg64
(lp3057
S'HTTP_CONNECTION'
p3058
asbag57
(g78
g59
NtRp3059
(dp3060
g62
(dp3061
g89
g90
ssg71
g3050
sg64
(lp3062
S':'
asbag57
(g78
g59
NtRp3063
(dp3064
g62
(dp3065
sg71
g3050
sg64
(lp3066
g57
(g58
g59
NtRp3067
(dp3068
g62
(dp3069
g70
I3
ssg71
g3063
sg64
(lp3070
g1182
asbasbasbag57
(g73
g59
NtRp3071
(dp3072
g62
(dp3073
sg71
g2899
sg64
(lp3074
g57
(g78
g59
NtRp3075
(dp3076
g62
(dp3077
g82
g83
ssg71
g3071
sg64
(lp3078
S'HTTP_CONTENT_LENGTH'
p3079
asbag57
(g78
g59
NtRp3080
(dp3081
g62
(dp3082
g89
g90
ssg71
g3071
sg64
(lp3083
S':'
asbag57
(g78
g59
NtRp3084
(dp3085
g62
(dp3086
sg71
g3071
sg64
(lp3087
g57
(g58
g59
NtRp3088
(dp3089
g62
(dp3090
g70
I3
ssg71
g3084
sg64
(lp3091
g963
asbasbasbag57
(g73
g59
NtRp3092
(dp3093
g62
(dp3094
sg71
g2899
sg64
(lp3095
g57
(g78
g59
NtRp3096
(dp3097
g62
(dp3098
g82
g83
ssg71
g3092
sg64
(lp3099
S'HTTP_CONTENT_TYPE'
p3100
asbag57
(g78
g59
NtRp3101
(dp3102
g62
(dp3103
g89
g90
ssg71
g3092
sg64
(lp3104
S':'
asbag57
(g78
g59
NtRp3105
(dp3106
g62
(dp3107
sg71
g3092
sg64
(lp3108
g57
(g58
g59
NtRp3109
(dp3110
g62
(dp3111
g70
I3
ssg71
g3105
sg64
(lp3112
g985
asbasbasbag57
(g73
g59
NtRp3113
(dp3114
g62
(dp3115
sg71
g2899
sg64
(lp3116
g57
(g78
g59
NtRp3117
(dp3118
g62
(dp3119
g82
g83
ssg71
g3113
sg64
(lp3120
S'HTTP_COOKIE'
p3121
asbag57
(g78
g59
NtRp3122
(dp3123
g62
(dp3124
g89
g90
ssg71
g3113
sg64
(lp3125
S':'
asbag57
(g78
g59
NtRp3126
(dp3127
g62
(dp3128
sg71
g3113
sg64
(lp3129
g57
(g58
g59
NtRp3130
(dp3131
g62
(dp3132
g70
I3
ssg71
g3126
sg64
(lp3133
g1246
asbasbasbag57
(g73
g59
NtRp3134
(dp3135
g62
(dp3136
sg71
g2899
sg64
(lp3137
g57
(g78
g59
NtRp3138
(dp3139
g62
(dp3140
g82
g83
ssg71
g3134
sg64
(lp3141
S'HTTP_HOST'
p3142
asbag57
(g78
g59
NtRp3143
(dp3144
g62
(dp3145
g89
g90
ssg71
g3134
sg64
(lp3146
S':'
asbag57
(g78
g59
NtRp3147
(dp3148
g62
(dp3149
sg71
g3134
sg64
(lp3150
g57
(g58
g59
NtRp3151
(dp3152
g62
(dp3153
g70
I3
ssg71
g3147
sg64
(lp3154
g1268
asbasbasbag57
(g73
g59
NtRp3155
(dp3156
g62
(dp3157
sg71
g2899
sg64
(lp3158
g57
(g78
g59
NtRp3159
(dp3160
g62
(dp3161
g82
g83
ssg71
g3155
sg64
(lp3162
S'HTTP_ORIGIN'
p3163
asbag57
(g78
g59
NtRp3164
(dp3165
g62
(dp3166
g89
g90
ssg71
g3155
sg64
(lp3167
S':'
asbag57
(g78
g59
NtRp3168
(dp3169
g62
(dp3170
sg71
g3155
sg64
(lp3171
g57
(g58
g59
NtRp3172
(dp3173
g62
(dp3174
g70
I3
ssg71
g3168
sg64
(lp3175
g1290
asbasbasbag57
(g73
g59
NtRp3176
(dp3177
g62
(dp3178
sg71
g2899
sg64
(lp3179
g57
(g78
g59
NtRp3180
(dp3181
g62
(dp3182
g82
g83
ssg71
g3176
sg64
(lp3183
S'HTTP_REFERER'
p3184
asbag57
(g78
g59
NtRp3185
(dp3186
g62
(dp3187
g89
g90
ssg71
g3176
sg64
(lp3188
S':'
asbag57
(g78
g59
NtRp3189
(dp3190
g62
(dp3191
sg71
g3176
sg64
(lp3192
g57
(g58
g59
NtRp3193
(dp3194
g62
(dp3195
g70
I3
ssg71
g3189
sg64
(lp3196
g1312
asbasbasbag57
(g73
g59
NtRp3197
(dp3198
g62
(dp3199
sg71
g2899
sg64
(lp3200
g57
(g78
g59
NtRp3201
(dp3202
g62
(dp3203
g82
g83
ssg71
g3197
sg64
(lp3204
S'HTTP_USER_AGENT'
p3205
asbag57
(g78
g59
NtRp3206
(dp3207
g62
(dp3208
g89
g90
ssg71
g3197
sg64
(lp3209
S':'
asbag57
(g78
g59
NtRp3210
(dp3211
g62
(dp3212
sg71
g3197
sg64
(lp3213
g57
(g58
g59
NtRp3214
(dp3215
g62
(dp3216
g70
I3
ssg71
g3210
sg64
(lp3217
g1334
asbasbasbag57
(g73
g59
NtRp3218
(dp3219
g62
(dp3220
sg71
g2899
sg64
(lp3221
g57
(g78
g59
NtRp3222
(dp3223
g62
(dp3224
g82
g83
ssg71
g3218
sg64
(lp3225
S'PATH_INFO'
p3226
asbag57
(g78
g59
NtRp3227
(dp3228
g62
(dp3229
g89
g90
ssg71
g3218
sg64
(lp3230
S':'
asbag57
(g78
g59
NtRp3231
(dp3232
g62
(dp3233
sg71
g3218
sg64
(lp3234
g57
(g58
g59
NtRp3235
(dp3236
g62
(dp3237
g70
I3
ssg71
g3231
sg64
(lp3238
g1488
asbasbasbag57
(g73
g59
NtRp3239
(dp3240
g62
(dp3241
sg71
g2899
sg64
(lp3242
g57
(g78
g59
NtRp3243
(dp3244
g62
(dp3245
g82
g83
ssg71
g3239
sg64
(lp3246
S'QUERY_STRING'
p3247
asbag57
(g78
g59
NtRp3248
(dp3249
g62
(dp3250
g89
g90
ssg71
g3239
sg64
(lp3251
S':'
asbag57
(g78
g59
NtRp3252
(dp3253
g62
(dp3254
sg71
g3239
sg64
(lp3255
g57
(g58
g59
NtRp3256
(dp3257
g62
(dp3258
g70
I3
ssg71
g3252
sg64
(lp3259
S''
asbasbasbag57
(g73
g59
NtRp3260
(dp3261
g62
(dp3262
sg71
g2899
sg64
(lp3263
g57
(g78
g59
NtRp3264
(dp3265
g62
(dp3266
g82
g83
ssg71
g3260
sg64
(lp3267
S'REMOTE_ADDR'
p3268
asbag57
(g78
g59
NtRp3269
(dp3270
g62
(dp3271
g89
g90
ssg71
g3260
sg64
(lp3272
S':'
asbag57
(g78
g59
NtRp3273
(dp3274
g62
(dp3275
sg71
g3260
sg64
(lp3276
g57
(g58
g59
NtRp3277
(dp3278
g62
(dp3279
g70
I3
ssg71
g3273
sg64
(lp3280
g212
asbasbasbag57
(g73
g59
NtRp3281
(dp3282
g62
(dp3283
sg71
g2899
sg64
(lp3284
g57
(g78
g59
NtRp3285
(dp3286
g62
(dp3287
g82
g83
ssg71
g3281
sg64
(lp3288
S'REMOTE_PORT'
p3289
asbag57
(g78
g59
NtRp3290
(dp3291
g62
(dp3292
g89
g90
ssg71
g3281
sg64
(lp3293
S':'
asbag57
(g78
g59
NtRp3294
(dp3295
g62
(dp3296
sg71
g3281
sg64
(lp3297
g57
(g58
g59
NtRp3298
(dp3299
g62
(dp3300
g70
I3
ssg71
g3294
sg64
(lp3301
g1552
asbasbasbag57
(g73
g59
NtRp3302
(dp3303
g62
(dp3304
sg71
g2899
sg64
(lp3305
g57
(g78
g59
NtRp3306
(dp3307
g62
(dp3308
g82
g83
ssg71
g3302
sg64
(lp3309
S'REQUEST_METHOD'
p3310
asbag57
(g78
g59
NtRp3311
(dp3312
g62
(dp3313
g89
g90
ssg71
g3302
sg64
(lp3314
S':'
asbag57
(g78
g59
NtRp3315
(dp3316
g62
(dp3317
sg71
g3302
sg64
(lp3318
g57
(g58
g59
NtRp3319
(dp3320
g62
(dp3321
g70
I3
ssg71
g3315
sg64
(lp3322
g1574
asbasbasbag57
(g73
g59
NtRp3323
(dp3324
g62
(dp3325
sg71
g2899
sg64
(lp3326
g57
(g78
g59
NtRp3327
(dp3328
g62
(dp3329
g82
g83
ssg71
g3323
sg64
(lp3330
S'REQUEST_URI'
p3331
asbag57
(g78
g59
NtRp3332
(dp3333
g62
(dp3334
g89
g90
ssg71
g3323
sg64
(lp3335
S':'
asbag57
(g78
g59
NtRp3336
(dp3337
g62
(dp3338
sg71
g3323
sg64
(lp3339
g57
(g58
g59
NtRp3340
(dp3341
g62
(dp3342
g70
I3
ssg71
g3336
sg64
(lp3343
g1488
asbasbasbag57
(g73
g59
NtRp3344
(dp3345
g62
(dp3346
sg71
g2899
sg64
(lp3347
g57
(g78
g59
NtRp3348
(dp3349
g62
(dp3350
g82
g83
ssg71
g3344
sg64
(lp3351
S'SCRIPT_NAME'
p3352
asbag57
(g78
g59
NtRp3353
(dp3354
g62
(dp3355
g89
g90
ssg71
g3344
sg64
(lp3356
S':'
asbag57
(g78
g59
NtRp3357
(dp3358
g62
(dp3359
sg71
g3344
sg64
(lp3360
g57
(g58
g59
NtRp3361
(dp3362
g62
(dp3363
g70
I3
ssg71
g3357
sg64
(lp3364
S''
asbasbasbag57
(g73
g59
NtRp3365
(dp3366
g62
(dp3367
sg71
g2899
sg64
(lp3368
g57
(g78
g59
NtRp3369
(dp3370
g62
(dp3371
g82
g83
ssg71
g3365
sg64
(lp3372
S'SERVER_NAME'
p3373
asbag57
(g78
g59
NtRp3374
(dp3375
g62
(dp3376
g89
g90
ssg71
g3365
sg64
(lp3377
S':'
asbag57
(g78
g59
NtRp3378
(dp3379
g62
(dp3380
sg71
g3365
sg64
(lp3381
g57
(g58
g59
NtRp3382
(dp3383
g62
(dp3384
g70
I3
ssg71
g3378
sg64
(lp3385
g1453
asbasbasbag57
(g73
g59
NtRp3386
(dp3387
g62
(dp3388
sg71
g2899
sg64
(lp3389
g57
(g78
g59
NtRp3390
(dp3391
g62
(dp3392
g82
g83
ssg71
g3386
sg64
(lp3393
S'SERVER_PORT'
p3394
asbag57
(g78
g59
NtRp3395
(dp3396
g62
(dp3397
g89
g90
ssg71
g3386
sg64
(lp3398
S':'
asbag57
(g78
g59
NtRp3399
(dp3400
g62
(dp3401
sg71
g3386
sg64
(lp3402
g57
(g58
g59
NtRp3403
(dp3404
g62
(dp3405
g70
I3
ssg71
g3399
sg64
(lp3406
g1659
asbasbasbag57
(g73
g59
NtRp3407
(dp3408
g62
(dp3409
sg71
g2899
sg64
(lp3410
g57
(g78
g59
NtRp3411
(dp3412
g62
(dp3413
g82
g83
ssg71
g3407
sg64
(lp3414
S'SERVER_PROTOCOL'
p3415
asbag57
(g78
g59
NtRp3416
(dp3417
g62
(dp3418
g89
g90
ssg71
g3407
sg64
(lp3419
S':'
asbag57
(g78
g59
NtRp3420
(dp3421
g62
(dp3422
sg71
g3407
sg64
(lp3423
g57
(g58
g59
NtRp3424
(dp3425
g62
(dp3426
g70
I3
ssg71
g3420
sg64
(lp3427
g1681
asbasbasbag57
(g73
g59
NtRp3428
(dp3429
g62
(dp3430
sg71
g2899
sg64
(lp3431
g57
(g78
g59
NtRp3432
(dp3433
g62
(dp3434
g82
g83
ssg71
g3428
sg64
(lp3435
S'SERVER_SOFTWARE'
p3436
asbag57
(g78
g59
NtRp3437
(dp3438
g62
(dp3439
g89
g90
ssg71
g3428
sg64
(lp3440
S':'
asbag57
(g78
g59
NtRp3441
(dp3442
g62
(dp3443
sg71
g3428
sg64
(lp3444
g57
(g58
g59
NtRp3445
(dp3446
g62
(dp3447
g70
I3
ssg71
g3441
sg64
(lp3448
g1703
asbasbasbag57
(g73
g59
NtRp3449
(dp3450
g62
(dp3451
sg71
g2899
sg64
(lp3452
g57
(g78
g59
NtRp3453
(dp3454
g62
(dp3455
g82
g83
ssg71
g3449
sg64
(lp3456
S'wsgi.errors'
p3457
asbag57
(g78
g59
NtRp3458
(dp3459
g62
(dp3460
g89
g90
ssg71
g3449
sg64
(lp3461
S':'
asbag57
(g78
g59
NtRp3462
(dp3463
g62
(dp3464
sg71
g3449
sg64
(lp3465
g57
(g58
g59
NtRp3466
(dp3467
g62
(dp3468
g70
I3
ssg71
g3462
sg64
(lp3469
S"<open file '<stderr>', mode 'w' at 0x7f811fe6f270>"
p3470
asbasbasbag57
(g73
g59
NtRp3471
(dp3472
g62
(dp3473
sg71
g2899
sg64
(lp3474
g57
(g78
g59
NtRp3475
(dp3476
g62
(dp3477
g82
g83
ssg71
g3471
sg64
(lp3478
S'wsgi.file_wrapper'
p3479
asbag57
(g78
g59
NtRp3480
(dp3481
g62
(dp3482
g89
g90
ssg71
g3471
sg64
(lp3483
S':'
asbag57
(g78
g59
NtRp3484
(dp3485
g62
(dp3486
sg71
g3471
sg64
(lp3487
g57
(g58
g59
NtRp3488
(dp3489
g62
(dp3490
g70
I3
ssg71
g3484
sg64
(lp3491
S'<class wsgiref.util.FileWrapper at 0x2cc6808>'
p3492
asbasbasbag57
(g73
g59
NtRp3493
(dp3494
g62
(dp3495
sg71
g2899
sg64
(lp3496
g57
(g78
g59
NtRp3497
(dp3498
g62
(dp3499
g82
g83
ssg71
g3493
sg64
(lp3500
S'wsgi.input'
p3501
asbag57
(g78
g59
NtRp3502
(dp3503
g62
(dp3504
g89
g90
ssg71
g3493
sg64
(lp3505
S':'
asbag57
(g78
g59
NtRp3506
(dp3507
g62
(dp3508
sg71
g3493
sg64
(lp3509
g57
(g58
g59
NtRp3510
(dp3511
g62
(dp3512
g70
I3
ssg71
g3506
sg64
(lp3513
S"<open file '<fdopen>', mode 'w+b' at 0x7f80e41984b0>"
p3514
asbasbasbag57
(g73
g59
NtRp3515
(dp3516
g62
(dp3517
sg71
g2899
sg64
(lp3518
g57
(g78
g59
NtRp3519
(dp3520
g62
(dp3521
g82
g83
ssg71
g3515
sg64
(lp3522
S'wsgi.multiprocess'
p3523
asbag57
(g78
g59
NtRp3524
(dp3525
g62
(dp3526
g89
g90
ssg71
g3515
sg64
(lp3527
S':'
asbag57
(g78
g59
NtRp3528
(dp3529
g62
(dp3530
sg71
g3515
sg64
(lp3531
g57
(g58
g59
NtRp3532
(dp3533
g62
(dp3534
g70
I3
ssg71
g3528
sg64
(lp3535
g100
asbasbasbag57
(g73
g59
NtRp3536
(dp3537
g62
(dp3538
sg71
g2899
sg64
(lp3539
g57
(g78
g59
NtRp3540
(dp3541
g62
(dp3542
g82
g83
ssg71
g3536
sg64
(lp3543
S'wsgi.multithread'
p3544
asbag57
(g78
g59
NtRp3545
(dp3546
g62
(dp3547
g89
g90
ssg71
g3536
sg64
(lp3548
S':'
asbag57
(g78
g59
NtRp3549
(dp3550
g62
(dp3551
sg71
g3536
sg64
(lp3552
g57
(g58
g59
NtRp3553
(dp3554
g62
(dp3555
g70
I3
ssg71
g3549
sg64
(lp3556
g1920
asbasbasbag57
(g73
g59
NtRp3557
(dp3558
g62
(dp3559
sg71
g2899
sg64
(lp3560
g57
(g78
g59
NtRp3561
(dp3562
g62
(dp3563
g82
g83
ssg71
g3557
sg64
(lp3564
S'wsgi.run_once'
p3565
asbag57
(g78
g59
NtRp3566
(dp3567
g62
(dp3568
g89
g90
ssg71
g3557
sg64
(lp3569
S':'
asbag57
(g78
g59
NtRp3570
(dp3571
g62
(dp3572
sg71
g3557
sg64
(lp3573
g57
(g58
g59
NtRp3574
(dp3575
g62
(dp3576
g70
I3
ssg71
g3570
sg64
(lp3577
g100
asbasbasbag57
(g73
g59
NtRp3578
(dp3579
g62
(dp3580
sg71
g2899
sg64
(lp3581
g57
(g78
g59
NtRp3582
(dp3583
g62
(dp3584
g82
g83
ssg71
g3578
sg64
(lp3585
S'wsgi.url_scheme'
p3586
asbag57
(g78
g59
NtRp3587
(dp3588
g62
(dp3589
g89
g90
ssg71
g3578
sg64
(lp3590
S':'
asbag57
(g78
g59
NtRp3591
(dp3592
g62
(dp3593
sg71
g3578
sg64
(lp3594
g57
(g58
g59
NtRp3595
(dp3596
g62
(dp3597
g70
I3
ssg71
g3591
sg64
(lp3598
g1963
asbasbasbag57
(g73
g59
NtRp3599
(dp3600
g62
(dp3601
sg71
g2899
sg64
(lp3602
g57
(g78
g59
NtRp3603
(dp3604
g62
(dp3605
g82
g83
ssg71
g3599
sg64
(lp3606
S'wsgi.version'
p3607
asbag57
(g78
g59
NtRp3608
(dp3609
g62
(dp3610
g89
g90
ssg71
g3599
sg64
(lp3611
S':'
asbag57
(g78
g59
NtRp3612
(dp3613
g62
(dp3614
sg71
g3599
sg64
(lp3615
g57
(g58
g59
NtRp3616
(dp3617
g62
(dp3618
g70
I3
ssg71
g3612
sg64
(lp3619
S'1'
asbasbasbasbasbasbasbasbasbasbasbasbasbsS'frames'
p3620
(lp3621
(dp3622
S'file'
p3623
S'/home/wionel/Desktop/web2py/gluon/restricted.py'
p3624
sS'dump'
p3625
(dp3626
S'environment'
p3627
S"{'A': <class 'gluon.html.A'>, 'Auth': <class 'gluon.tools.Auth'>, 'B': <class 'gluon.html.B'>, 'BEAUTIFY': <class 'gluon.html.BEAUTIFY'>, 'BODY': <class 'gluon.html.BODY'>, 'BR': <class 'gluon.html.BR'>, 'BUTTON': <class 'gluon.html.BUTTON'>, 'CAT': <class 'gluon.html.CAT'>, 'CENTER': <class 'gluon.html.CENTER'>, 'CLEANUP': <class 'gluon.validators.CLEANUP'>, ...}"
p3628
sS'ccode'
p3629
S'<code object <module> at 0x7f80ec5206b0, file "/...lications/music/controllers/default.py", line 13>'
p3630
ssS'lnum'
p3631
I212
sS'lines'
p3632
(dp3633
I207
S'    try:'
p3634
sI208
S'        if isinstance(code, types.CodeType):'
p3635
sI209
S'            ccode = code'
p3636
sI210
S'        else:'
p3637
sI211
S'            ccode = compile2(code, layer)'
p3638
sI212
S'        exec ccode in environment'
p3639
sI213
S'    except HTTP:'
p3640
sI214
S'        raise'
p3641
sI215
S'    except RestrictedError:'
p3642
sI216
S'        # do not encapsulate (obfuscate) the original RestrictedError'
p3643
ssS'call'
p3644
S"(code='# -*- coding: utf-8 -*-\\n# this file is released ...m=crud())\\n\\nresponse._vars=response._caller(save)\\n', environment={'A': <class 'gluon.html.A'>, 'Auth': <class 'gluon.tools.Auth'>, 'B': <class 'gluon.html.B'>, 'BEAUTIFY': <class 'gluon.html.BEAUTIFY'>, 'BODY': <class 'gluon.html.BODY'>, 'BR': <class 'gluon.html.BR'>, 'BUTTON': <class 'gluon.html.BUTTON'>, 'CAT': <class 'gluon.html.CAT'>, 'CENTER': <class 'gluon.html.CENTER'>, 'CLEANUP': <class 'gluon.validators.CLEANUP'>, ...}, layer='/home/wionel/Desktop/web2py/applications/music/controllers/default.py')"
p3645
sS'func'
p3646
S'restricted'
p3647
sa(dp3648
g3623
S'/home/wionel/Desktop/web2py/applications/music/controllers/default.py'
p3649
sg3625
(dp3650
sg3631
I147
sg3632
(dp3651
I136
S'    http://..../[app]/default/data/update/[table]/[id]'
p3652
sI137
S'    http://..../[app]/default/data/delete/[table]/[id]'
p3653
sI138
S'    http://..../[app]/default/data/select/[table]'
p3654
sI139
S'    http://..../[app]/default/data/search/[table]'
p3655
sI140
S'    but URLs must be signed, i.e. linked with'
p3656
sI141
S"      A('table',_href=URL('data/tables',user_signature=True))"
p3657
sI142
S'    or with the signed load operator'
p3658
sI143
S"      LOAD('default','data.load',args='tables',ajax=True,user_signature=True)"
p3659
sI144
S'    """'
p3660
sI145
S'    return dict(form=crud())'
p3661
ssg3644
S'()'
p3662
sg3646
S'<module>'
p3663
sa(dp3664
g3623
S'/home/wionel/Desktop/web2py/gluon/globals.py'
p3665
sg3625
(dp3666
S'self'
p3667
S'undefined'
p3668
sS'f'
S'<function save>'
p3669
ssg3631
I188
sg3632
(dp3670
I192
S''
sI183
S'        self.menu = []             # used by the default view layout'
p3671
sI184
S'        self.files = []            # used by web2py_ajax.html'
p3672
sI185
S'        self.generic_patterns = []  # patterns to allow generic views'
p3673
sI186
S"        self.delimiters = ('{{', '}}')"
p3674
sI187
S'        self._vars = None'
p3675
sI188
S'        self._caller = lambda f: f()'
p3676
sI189
S'        self._view_environment = None'
p3677
sI190
S'        self._custom_commit = None'
p3678
sI191
S'        self._custom_rollback = None'
p3679
ssg3644
S'(f=<function save>)'
p3680
sg3646
S'<lambda>'
p3681
sa(dp3682
g3623
S'/home/wionel/Desktop/web2py/applications/music/controllers/default.py'
p3683
sg3625
(dp3684
S'builtinid'
p3685
S'<built-in function id>'
p3686
ssg3631
I76
sg3632
(dp3687
I71
S'    songlist= request.vars.songlist;'
p3688
sI72
S''
sI73
S'    row=db(db.playlist.user_id == user_id).select().first()'
p3689
sI74
S'    if (str(row)!="None"):'
p3690
sI75
S'        row.update_record(songlist=songlist)'
p3691
sI76
S'        if(id!=-1):'
p3692
sI77
S'            response.flash(T("Playlist updated succesfully!!"))'
p3693
sI78
S'        else:'
p3694
sI79
S'            response.flash(T("Error occured. PLease login again !!"))'
p3695
sI80
S'        pass'
p3696
ssg3644
S'()'
p3697
sg3646
S'save'
p3698
sasS'pyver'
p3699
S'Python 2.7.3: /usr/bin/python'
p3700
sS'session'
p3701
g57
(g58
g59
NtRp3702
(dp3703
g62
(dp3704
sg64
(lp3705
g57
(g66
g59
NtRp3706
(dp3707
g62
(dp3708
g70
I5
ssg71
Nsg64
(lp3709
g57
(g73
g59
NtRp3710
(dp3711
g62
(dp3712
sg71
g3706
sg64
(lp3713
g57
(g78
g59
NtRp3714
(dp3715
g62
(dp3716
g82
g83
ssg71
g3710
sg64
(lp3717
S'auth'
p3718
asbag57
(g78
g59
NtRp3719
(dp3720
g62
(dp3721
g89
g90
ssg71
g3710
sg64
(lp3722
S':'
asbag57
(g78
g59
NtRp3723
(dp3724
g62
(dp3725
sg71
g3710
sg64
(lp3726
g57
(g58
g59
NtRp3727
(dp3728
g62
(dp3729
g70
I5
ssg71
g3723
sg64
(lp3730
g57
(g66
g59
NtRp3731
(dp3732
g62
(dp3733
g70
I4
ssg71
Nsg64
(lp3734
g57
(g73
g59
NtRp3735
(dp3736
g62
(dp3737
sg71
g3731
sg64
(lp3738
g57
(g78
g59
NtRp3739
(dp3740
g62
(dp3741
g82
g83
ssg71
g3735
sg64
(lp3742
S'expiration'
p3743
asbag57
(g78
g59
NtRp3744
(dp3745
g62
(dp3746
g89
g90
ssg71
g3735
sg64
(lp3747
S':'
asbag57
(g78
g59
NtRp3748
(dp3749
g62
(dp3750
sg71
g3735
sg64
(lp3751
g57
(g58
g59
NtRp3752
(dp3753
g62
(dp3754
g70
I4
ssg71
g3748
sg64
(lp3755
S'3600'
p3756
asbasbasbag57
(g73
g59
NtRp3757
(dp3758
g62
(dp3759
sg71
g3731
sg64
(lp3760
g57
(g78
g59
NtRp3761
(dp3762
g62
(dp3763
g82
g83
ssg71
g3757
sg64
(lp3764
S'hmac_key'
p3765
asbag57
(g78
g59
NtRp3766
(dp3767
g62
(dp3768
g89
g90
ssg71
g3757
sg64
(lp3769
S':'
asbag57
(g78
g59
NtRp3770
(dp3771
g62
(dp3772
sg71
g3757
sg64
(lp3773
g57
(g58
g59
NtRp3774
(dp3775
g62
(dp3776
g70
I4
ssg71
g3770
sg64
(lp3777
S'82758e69-2702-4170-a379-7d1158963741'
p3778
asbasbasbag57
(g73
g59
NtRp3779
(dp3780
g62
(dp3781
sg71
g3731
sg64
(lp3782
g57
(g78
g59
NtRp3783
(dp3784
g62
(dp3785
g82
g83
ssg71
g3779
sg64
(lp3786
S'last_visit'
p3787
asbag57
(g78
g59
NtRp3788
(dp3789
g62
(dp3790
g89
g90
ssg71
g3779
sg64
(lp3791
S':'
asbag57
(g78
g59
NtRp3792
(dp3793
g62
(dp3794
sg71
g3779
sg64
(lp3795
g57
(g58
g59
NtRp3796
(dp3797
g62
(dp3798
g70
I4
ssg71
g3792
sg64
(lp3799
S'datetime.datetime(2012, 11, 15, 1, 23, 22, 61073)'
p3800
asbasbasbag57
(g73
g59
NtRp3801
(dp3802
g62
(dp3803
sg71
g3731
sg64
(lp3804
g57
(g78
g59
NtRp3805
(dp3806
g62
(dp3807
g82
g83
ssg71
g3801
sg64
(lp3808
S'remember'
p3809
asbag57
(g78
g59
NtRp3810
(dp3811
g62
(dp3812
g89
g90
ssg71
g3801
sg64
(lp3813
S':'
asbag57
(g78
g59
NtRp3814
(dp3815
g62
(dp3816
sg71
g3801
sg64
(lp3817
g57
(g58
g59
NtRp3818
(dp3819
g62
(dp3820
g70
I4
ssg71
g3814
sg64
(lp3821
g100
asbasbasbag57
(g73
g59
NtRp3822
(dp3823
g62
(dp3824
sg71
g3731
sg64
(lp3825
g57
(g78
g59
NtRp3826
(dp3827
g62
(dp3828
g82
g83
ssg71
g3822
sg64
(lp3829
S'user'
p3830
asbag57
(g78
g59
NtRp3831
(dp3832
g62
(dp3833
g89
g90
ssg71
g3822
sg64
(lp3834
S':'
asbag57
(g78
g59
NtRp3835
(dp3836
g62
(dp3837
sg71
g3822
sg64
(lp3838
g57
(g58
g59
NtRp3839
(dp3840
g62
(dp3841
g70
I4
ssg71
g3835
sg64
(lp3842
g57
(g66
g59
NtRp3843
(dp3844
g62
(dp3845
g70
I3
ssg71
Nsg64
(lp3846
g57
(g73
g59
NtRp3847
(dp3848
g62
(dp3849
sg71
g3843
sg64
(lp3850
g57
(g78
g59
NtRp3851
(dp3852
g62
(dp3853
g82
g83
ssg71
g3847
sg64
(lp3854
S'email'
p3855
asbag57
(g78
g59
NtRp3856
(dp3857
g62
(dp3858
g89
g90
ssg71
g3847
sg64
(lp3859
S':'
asbag57
(g78
g59
NtRp3860
(dp3861
g62
(dp3862
sg71
g3847
sg64
(lp3863
g57
(g58
g59
NtRp3864
(dp3865
g62
(dp3866
g70
I3
ssg71
g3860
sg64
(lp3867
S'shhrohan19@gmail.com'
p3868
asbasbasbag57
(g73
g59
NtRp3869
(dp3870
g62
(dp3871
sg71
g3843
sg64
(lp3872
g57
(g78
g59
NtRp3873
(dp3874
g62
(dp3875
g82
g83
ssg71
g3869
sg64
(lp3876
S'first_name'
p3877
asbag57
(g78
g59
NtRp3878
(dp3879
g62
(dp3880
g89
g90
ssg71
g3869
sg64
(lp3881
S':'
asbag57
(g78
g59
NtRp3882
(dp3883
g62
(dp3884
sg71
g3869
sg64
(lp3885
g57
(g58
g59
NtRp3886
(dp3887
g62
(dp3888
g70
I3
ssg71
g3882
sg64
(lp3889
S'Rohan'
p3890
asbasbasbag57
(g73
g59
NtRp3891
(dp3892
g62
(dp3893
sg71
g3843
sg64
(lp3894
g57
(g78
g59
NtRp3895
(dp3896
g62
(dp3897
g82
g83
ssg71
g3891
sg64
(lp3898
S'id'
p3899
asbag57
(g78
g59
NtRp3900
(dp3901
g62
(dp3902
g89
g90
ssg71
g3891
sg64
(lp3903
S':'
asbag57
(g78
g59
NtRp3904
(dp3905
g62
(dp3906
sg71
g3891
sg64
(lp3907
g57
(g58
g59
NtRp3908
(dp3909
g62
(dp3910
g70
I3
ssg71
g3904
sg64
(lp3911
S'1'
asbasbasbag57
(g73
g59
NtRp3912
(dp3913
g62
(dp3914
sg71
g3843
sg64
(lp3915
g57
(g78
g59
NtRp3916
(dp3917
g62
(dp3918
g82
g83
ssg71
g3912
sg64
(lp3919
S'last_name'
p3920
asbag57
(g78
g59
NtRp3921
(dp3922
g62
(dp3923
g89
g90
ssg71
g3912
sg64
(lp3924
S':'
asbag57
(g78
g59
NtRp3925
(dp3926
g62
(dp3927
sg71
g3912
sg64
(lp3928
g57
(g58
g59
NtRp3929
(dp3930
g62
(dp3931
g70
I3
ssg71
g3925
sg64
(lp3932
S'Shah'
p3933
asbasbasbag57
(g73
g59
NtRp3934
(dp3935
g62
(dp3936
sg71
g3843
sg64
(lp3937
g57
(g78
g59
NtRp3938
(dp3939
g62
(dp3940
g82
g83
ssg71
g3934
sg64
(lp3941
S'registration_id'
p3942
asbag57
(g78
g59
NtRp3943
(dp3944
g62
(dp3945
g89
g90
ssg71
g3934
sg64
(lp3946
S':'
asbag57
(g78
g59
NtRp3947
(dp3948
g62
(dp3949
sg71
g3934
sg64
(lp3950
g57
(g58
g59
NtRp3951
(dp3952
g62
(dp3953
g70
I3
ssg71
g3947
sg64
(lp3954
S''
asbasbasbag57
(g73
g59
NtRp3955
(dp3956
g62
(dp3957
sg71
g3843
sg64
(lp3958
g57
(g78
g59
NtRp3959
(dp3960
g62
(dp3961
g82
g83
ssg71
g3955
sg64
(lp3962
S'registration_key'
p3963
asbag57
(g78
g59
NtRp3964
(dp3965
g62
(dp3966
g89
g90
ssg71
g3955
sg64
(lp3967
S':'
asbag57
(g78
g59
NtRp3968
(dp3969
g62
(dp3970
sg71
g3955
sg64
(lp3971
g57
(g58
g59
NtRp3972
(dp3973
g62
(dp3974
g70
I3
ssg71
g3968
sg64
(lp3975
S''
asbasbasbag57
(g73
g59
NtRp3976
(dp3977
g62
(dp3978
sg71
g3843
sg64
(lp3979
g57
(g78
g59
NtRp3980
(dp3981
g62
(dp3982
g82
g83
ssg71
g3976
sg64
(lp3983
S'reset_password_key'
p3984
asbag57
(g78
g59
NtRp3985
(dp3986
g62
(dp3987
g89
g90
ssg71
g3976
sg64
(lp3988
S':'
asbag57
(g78
g59
NtRp3989
(dp3990
g62
(dp3991
sg71
g3976
sg64
(lp3992
g57
(g58
g59
NtRp3993
(dp3994
g62
(dp3995
g70
I3
ssg71
g3989
sg64
(lp3996
S''
asbasbasbasbasbasbasbag57
(g73
g59
NtRp3997
(dp3998
g62
(dp3999
sg71
g3731
sg64
(lp4000
g57
(g78
g59
NtRp4001
(dp4002
g62
(dp4003
g82
g83
ssg71
g3997
sg64
(lp4004
S'user_groups'
p4005
asbag57
(g78
g59
NtRp4006
(dp4007
g62
(dp4008
g89
g90
ssg71
g3997
sg64
(lp4009
S':'
asbag57
(g78
g59
NtRp4010
(dp4011
g62
(dp4012
sg71
g3997
sg64
(lp4013
g57
(g58
g59
NtRp4014
(dp4015
g62
(dp4016
g70
I4
ssg71
g4010
sg64
(lp4017
g57
(g66
g59
NtRp4018
(dp4019
g62
(dp4020
g70
I3
ssg71
Nsg64
(lp4021
g57
(g73
g59
NtRp4022
(dp4023
g62
(dp4024
sg71
g4018
sg64
(lp4025
g57
(g78
g59
NtRp4026
(dp4027
g62
(dp4028
g82
g83
ssg71
g4022
sg64
(lp4029
S'1'
asbag57
(g78
g59
NtRp4030
(dp4031
g62
(dp4032
g89
g90
ssg71
g4022
sg64
(lp4033
S':'
asbag57
(g78
g59
NtRp4034
(dp4035
g62
(dp4036
sg71
g4022
sg64
(lp4037
g57
(g58
g59
NtRp4038
(dp4039
g62
(dp4040
g70
I3
ssg71
g4034
sg64
(lp4041
S'user_1'
p4042
asbasbasbasbasbasbasbasbasbasbasbag57
(g73
g59
NtRp4043
(dp4044
g62
(dp4045
sg71
g3706
sg64
(lp4046
g57
(g78
g59
NtRp4047
(dp4048
g62
(dp4049
g82
g83
ssg71
g4043
sg64
(lp4050
S'flash'
p4051
asbag57
(g78
g59
NtRp4052
(dp4053
g62
(dp4054
g89
g90
ssg71
g4043
sg64
(lp4055
S':'
asbag57
(g78
g59
NtRp4056
(dp4057
g62
(dp4058
sg71
g4043
sg64
(lp4059
g57
(g58
g59
NtRp4060
(dp4061
g62
(dp4062
g70
I5
ssg71
g4056
sg64
(lp4063
S'None'
p4064
asbasbasbag57
(g73
g59
NtRp4065
(dp4066
g62
(dp4067
sg71
g3706
sg64
(lp4068
g57
(g78
g59
NtRp4069
(dp4070
g62
(dp4071
g82
g83
ssg71
g4065
sg64
(lp4072
S'last_orderby'
p4073
asbag57
(g78
g59
NtRp4074
(dp4075
g62
(dp4076
g89
g90
ssg71
g4065
sg64
(lp4077
S':'
asbag57
(g78
g59
NtRp4078
(dp4079
g62
(dp4080
sg71
g4065
sg64
(lp4081
g57
(g58
g59
NtRp4082
(dp4083
g62
(dp4084
g70
I5
ssg71
g4078
sg64
(lp4085
S'None'
p4086
asbasbasbag57
(g73
g59
NtRp4087
(dp4088
g62
(dp4089
sg71
g3706
sg64
(lp4090
g57
(g78
g59
NtRp4091
(dp4092
g62
(dp4093
g82
g83
ssg71
g4087
sg64
(lp4094
S'last_query'
p4095
asbag57
(g78
g59
NtRp4096
(dp4097
g62
(dp4098
g89
g90
ssg71
g4087
sg64
(lp4099
S':'
asbag57
(g78
g59
NtRp4100
(dp4101
g62
(dp4102
sg71
g4087
sg64
(lp4103
g57
(g58
g59
NtRp4104
(dp4105
g62
(dp4106
g70
I5
ssg71
g4100
sg64
(lp4107
S'db.playlist.id>0'
p4108
asbasbasbasbasbsS'etype'
p4109
S"<type 'exceptions.UnboundLocalError'>"
p4110
sS'date'
p4111
S'Thu Nov 15 01:23:22 2012'
p4112
sS'response'
p4113
g57
(g58
g59
NtRp4114
(dp4115
g62
(dp4116
sg64
(lp4117
g57
(g66
g59
NtRp4118
(dp4119
g62
(dp4120
g70
I5
ssg71
Nsg64
(lp4121
g57
(g73
g59
NtRp4122
(dp4123
g62
(dp4124
sg71
g4118
sg64
(lp4125
g57
(g78
g59
NtRp4126
(dp4127
g62
(dp4128
g82
g83
ssg71
g4122
sg64
(lp4129
g155
asbag57
(g78
g59
NtRp4130
(dp4131
g62
(dp4132
g89
g90
ssg71
g4122
sg64
(lp4133
S':'
asbag57
(g78
g59
NtRp4134
(dp4135
g62
(dp4136
sg71
g4122
sg64
(lp4137
g57
(g58
g59
NtRp4138
(dp4139
g62
(dp4140
g70
I5
ssg71
g4134
sg64
(lp4141
S'<cStringIO.StringO object at 0x7f80e41f8260>'
p4142
asbasbasbag57
(g73
g59
NtRp4143
(dp4144
g62
(dp4145
sg71
g4118
sg64
(lp4146
g57
(g78
g59
NtRp4147
(dp4148
g62
(dp4149
g82
g83
ssg71
g4143
sg64
(lp4150
g243
asbag57
(g78
g59
NtRp4151
(dp4152
g62
(dp4153
g89
g90
ssg71
g4143
sg64
(lp4154
S':'
asbag57
(g78
g59
NtRp4155
(dp4156
g62
(dp4157
sg71
g4143
sg64
(lp4158
g57
(g58
g59
NtRp4159
(dp4160
g62
(dp4161
g70
I5
ssg71
g4155
sg64
(lp4162
g57
(g66
g59
NtRp4163
(dp4164
g62
(dp4165
g70
I4
ssg71
Nsg64
(lp4166
g57
(g73
g59
NtRp4167
(dp4168
g62
(dp4169
sg71
g4163
sg64
(lp4170
g57
(g78
g59
NtRp4171
(dp4172
g62
(dp4173
g82
g83
ssg71
g4167
sg64
(lp4174
S'session_id_music'
p4175
asbag57
(g78
g59
NtRp4176
(dp4177
g62
(dp4178
g89
g90
ssg71
g4167
sg64
(lp4179
S':'
asbag57
(g78
g59
NtRp4180
(dp4181
g62
(dp4182
sg71
g4167
sg64
(lp4183
g57
(g58
g59
NtRp4184
(dp4185
g62
(dp4186
g70
I4
ssg71
g4180
sg64
(lp4187
g475
ag57
(g66
g59
NtRp4188
(dp4189
g62
(dp4190
g70
I3
ssg71
Nsg64
(lp4191
g57
(g73
g59
NtRp4192
(dp4193
g62
(dp4194
sg71
g4188
sg64
(lp4195
g57
(g78
g59
NtRp4196
(dp4197
g62
(dp4198
g82
g83
ssg71
g4192
sg64
(lp4199
g294
asbag57
(g78
g59
NtRp4200
(dp4201
g62
(dp4202
g89
g90
ssg71
g4192
sg64
(lp4203
S':'
asbag57
(g78
g59
NtRp4204
(dp4205
g62
(dp4206
sg71
g4192
sg64
(lp4207
g57
(g58
g59
NtRp4208
(dp4209
g62
(dp4210
g70
I3
ssg71
g4204
sg64
(lp4211
S''
asbasbasbag57
(g73
g59
NtRp4212
(dp4213
g62
(dp4214
sg71
g4188
sg64
(lp4215
g57
(g78
g59
NtRp4216
(dp4217
g62
(dp4218
g82
g83
ssg71
g4212
sg64
(lp4219
g315
asbag57
(g78
g59
NtRp4220
(dp4221
g62
(dp4222
g89
g90
ssg71
g4212
sg64
(lp4223
S':'
asbag57
(g78
g59
NtRp4224
(dp4225
g62
(dp4226
sg71
g4212
sg64
(lp4227
g57
(g58
g59
NtRp4228
(dp4229
g62
(dp4230
g70
I3
ssg71
g4224
sg64
(lp4231
S''
asbasbasbag57
(g73
g59
NtRp4232
(dp4233
g62
(dp4234
sg71
g4188
sg64
(lp4235
g57
(g78
g59
NtRp4236
(dp4237
g62
(dp4238
g82
g83
ssg71
g4232
sg64
(lp4239
g336
asbag57
(g78
g59
NtRp4240
(dp4241
g62
(dp4242
g89
g90
ssg71
g4232
sg64
(lp4243
S':'
asbag57
(g78
g59
NtRp4244
(dp4245
g62
(dp4246
sg71
g4232
sg64
(lp4247
g57
(g58
g59
NtRp4248
(dp4249
g62
(dp4250
g70
I3
ssg71
g4244
sg64
(lp4251
S''
asbasbasbag57
(g73
g59
NtRp4252
(dp4253
g62
(dp4254
sg71
g4188
sg64
(lp4255
g57
(g78
g59
NtRp4256
(dp4257
g62
(dp4258
g82
g83
ssg71
g4252
sg64
(lp4259
g357
asbag57
(g78
g59
NtRp4260
(dp4261
g62
(dp4262
g89
g90
ssg71
g4252
sg64
(lp4263
S':'
asbag57
(g78
g59
NtRp4264
(dp4265
g62
(dp4266
sg71
g4252
sg64
(lp4267
g57
(g58
g59
NtRp4268
(dp4269
g62
(dp4270
g70
I3
ssg71
g4264
sg64
(lp4271
S''
asbasbasbag57
(g73
g59
NtRp4272
(dp4273
g62
(dp4274
sg71
g4188
sg64
(lp4275
g57
(g78
g59
NtRp4276
(dp4277
g62
(dp4278
g82
g83
ssg71
g4272
sg64
(lp4279
g378
asbag57
(g78
g59
NtRp4280
(dp4281
g62
(dp4282
g89
g90
ssg71
g4272
sg64
(lp4283
S':'
asbag57
(g78
g59
NtRp4284
(dp4285
g62
(dp4286
sg71
g4272
sg64
(lp4287
g57
(g58
g59
NtRp4288
(dp4289
g62
(dp4290
g70
I3
ssg71
g4284
sg64
(lp4291
S''
asbasbasbag57
(g73
g59
NtRp4292
(dp4293
g62
(dp4294
sg71
g4188
sg64
(lp4295
g57
(g78
g59
NtRp4296
(dp4297
g62
(dp4298
g82
g83
ssg71
g4292
sg64
(lp4299
g399
asbag57
(g78
g59
NtRp4300
(dp4301
g62
(dp4302
g89
g90
ssg71
g4292
sg64
(lp4303
S':'
asbag57
(g78
g59
NtRp4304
(dp4305
g62
(dp4306
sg71
g4292
sg64
(lp4307
g57
(g58
g59
NtRp4308
(dp4309
g62
(dp4310
g70
I3
ssg71
g4304
sg64
(lp4311
S'/'
asbasbasbag57
(g73
g59
NtRp4312
(dp4313
g62
(dp4314
sg71
g4188
sg64
(lp4315
g57
(g78
g59
NtRp4316
(dp4317
g62
(dp4318
g82
g83
ssg71
g4312
sg64
(lp4319
g420
asbag57
(g78
g59
NtRp4320
(dp4321
g62
(dp4322
g89
g90
ssg71
g4312
sg64
(lp4323
S':'
asbag57
(g78
g59
NtRp4324
(dp4325
g62
(dp4326
sg71
g4312
sg64
(lp4327
g57
(g58
g59
NtRp4328
(dp4329
g62
(dp4330
g70
I3
ssg71
g4324
sg64
(lp4331
S''
asbasbasbag57
(g73
g59
NtRp4332
(dp4333
g62
(dp4334
sg71
g4188
sg64
(lp4335
g57
(g78
g59
NtRp4336
(dp4337
g62
(dp4338
g82
g83
ssg71
g4332
sg64
(lp4339
g441
asbag57
(g78
g59
NtRp4340
(dp4341
g62
(dp4342
g89
g90
ssg71
g4332
sg64
(lp4343
S':'
asbag57
(g78
g59
NtRp4344
(dp4345
g62
(dp4346
sg71
g4332
sg64
(lp4347
g57
(g58
g59
NtRp4348
(dp4349
g62
(dp4350
g70
I3
ssg71
g4344
sg64
(lp4351
S''
asbasbasbasbasbasbasbasbasbasbasbag57
(g73
g59
NtRp4352
(dp4353
g62
(dp4354
sg71
g4118
sg64
(lp4355
g57
(g78
g59
NtRp4356
(dp4357
g62
(dp4358
g82
g83
ssg71
g4352
sg64
(lp4359
S'delimiters'
p4360
asbag57
(g78
g59
NtRp4361
(dp4362
g62
(dp4363
g89
g90
ssg71
g4352
sg64
(lp4364
S':'
asbag57
(g78
g59
NtRp4365
(dp4366
g62
(dp4367
sg71
g4352
sg64
(lp4368
g57
(g58
g59
NtRp4369
(dp4370
g62
(dp4371
g70
I5
ssg71
g4365
sg64
(lp4372
g57
(g66
g59
NtRp4373
(dp4374
g62
(dp4375
g70
I4
ssg71
Nsg64
(lp4376
g57
(g73
g59
NtRp4377
(dp4378
g62
(dp4379
sg71
g4373
sg64
(lp4380
g57
(g78
g59
NtRp4381
(dp4382
g62
(dp4383
sg71
g4377
sg64
(lp4384
g57
(g58
g59
NtRp4385
(dp4386
g62
(dp4387
g70
I4
ssg71
g4381
sg64
(lp4388
S'{{'
p4389
asbasbasbag57
(g73
g59
NtRp4390
(dp4391
g62
(dp4392
sg71
g4373
sg64
(lp4393
g57
(g78
g59
NtRp4394
(dp4395
g62
(dp4396
sg71
g4390
sg64
(lp4397
g57
(g58
g59
NtRp4398
(dp4399
g62
(dp4400
g70
I4
ssg71
g4394
sg64
(lp4401
S'}}'
p4402
asbasbasbasbasbasbasbag57
(g73
g59
NtRp4403
(dp4404
g62
(dp4405
sg71
g4118
sg64
(lp4406
g57
(g78
g59
NtRp4407
(dp4408
g62
(dp4409
g82
g83
ssg71
g4403
sg64
(lp4410
S'files'
p4411
asbag57
(g78
g59
NtRp4412
(dp4413
g62
(dp4414
g89
g90
ssg71
g4403
sg64
(lp4415
S':'
asbag57
(g78
g59
NtRp4416
(dp4417
g62
(dp4418
sg71
g4403
sg64
(lp4419
g57
(g58
g59
NtRp4420
(dp4421
g62
(dp4422
g70
I5
ssg71
g4416
sg64
(lp4423
g57
(g66
g59
NtRp4424
(dp4425
g62
(dp4426
g70
I4
ssg71
Nsg64
(lp4427
sbasbasbasbag57
(g73
g59
NtRp4428
(dp4429
g62
(dp4430
sg71
g4118
sg64
(lp4431
g57
(g78
g59
NtRp4432
(dp4433
g62
(dp4434
g82
g83
ssg71
g4428
sg64
(lp4435
S'flash'
p4436
asbag57
(g78
g59
NtRp4437
(dp4438
g62
(dp4439
g89
g90
ssg71
g4428
sg64
(lp4440
S':'
asbag57
(g78
g59
NtRp4441
(dp4442
g62
(dp4443
sg71
g4428
sg64
(lp4444
g57
(g58
g59
NtRp4445
(dp4446
g62
(dp4447
g70
I5
ssg71
g4441
sg64
(lp4448
S''
asbasbasbag57
(g73
g59
NtRp4449
(dp4450
g62
(dp4451
sg71
g4118
sg64
(lp4452
g57
(g78
g59
NtRp4453
(dp4454
g62
(dp4455
g82
g83
ssg71
g4449
sg64
(lp4456
S'generic_patterns'
p4457
asbag57
(g78
g59
NtRp4458
(dp4459
g62
(dp4460
g89
g90
ssg71
g4449
sg64
(lp4461
S':'
asbag57
(g78
g59
NtRp4462
(dp4463
g62
(dp4464
sg71
g4449
sg64
(lp4465
g57
(g58
g59
NtRp4466
(dp4467
g62
(dp4468
g70
I5
ssg71
g4462
sg64
(lp4469
g57
(g66
g59
NtRp4470
(dp4471
g62
(dp4472
g70
I4
ssg71
Nsg64
(lp4473
g57
(g73
g59
NtRp4474
(dp4475
g62
(dp4476
sg71
g4470
sg64
(lp4477
g57
(g78
g59
NtRp4478
(dp4479
g62
(dp4480
sg71
g4474
sg64
(lp4481
g57
(g58
g59
NtRp4482
(dp4483
g62
(dp4484
g70
I4
ssg71
g4478
sg64
(lp4485
S'*'
asbasbasbasbasbasbasbag57
(g73
g59
NtRp4486
(dp4487
g62
(dp4488
sg71
g4118
sg64
(lp4489
g57
(g78
g59
NtRp4490
(dp4491
g62
(dp4492
g82
g83
ssg71
g4486
sg64
(lp4493
S'google_analytics_id'
p4494
asbag57
(g78
g59
NtRp4495
(dp4496
g62
(dp4497
g89
g90
ssg71
g4486
sg64
(lp4498
S':'
asbag57
(g78
g59
NtRp4499
(dp4500
g62
(dp4501
sg71
g4486
sg64
(lp4502
g57
(g58
g59
NtRp4503
(dp4504
g62
(dp4505
g70
I5
ssg71
g4499
sg64
(lp4506
S'None'
p4507
asbasbasbag57
(g73
g59
NtRp4508
(dp4509
g62
(dp4510
sg71
g4118
sg64
(lp4511
g57
(g78
g59
NtRp4512
(dp4513
g62
(dp4514
g82
g83
ssg71
g4508
sg64
(lp4515
S'headers'
p4516
asbag57
(g78
g59
NtRp4517
(dp4518
g62
(dp4519
g89
g90
ssg71
g4508
sg64
(lp4520
S':'
asbag57
(g78
g59
NtRp4521
(dp4522
g62
(dp4523
sg71
g4508
sg64
(lp4524
g57
(g58
g59
NtRp4525
(dp4526
g62
(dp4527
g70
I5
ssg71
g4521
sg64
(lp4528
g57
(g66
g59
NtRp4529
(dp4530
g62
(dp4531
g70
I4
ssg71
Nsg64
(lp4532
g57
(g73
g59
NtRp4533
(dp4534
g62
(dp4535
sg71
g4529
sg64
(lp4536
g57
(g78
g59
NtRp4537
(dp4538
g62
(dp4539
g82
g83
ssg71
g4533
sg64
(lp4540
S'X-Powered-By'
p4541
asbag57
(g78
g59
NtRp4542
(dp4543
g62
(dp4544
g89
g90
ssg71
g4533
sg64
(lp4545
S':'
asbag57
(g78
g59
NtRp4546
(dp4547
g62
(dp4548
sg71
g4533
sg64
(lp4549
g57
(g58
g59
NtRp4550
(dp4551
g62
(dp4552
g70
I4
ssg71
g4546
sg64
(lp4553
S'web2py'
p4554
asbasbasbasbasbasbasbag57
(g73
g59
NtRp4555
(dp4556
g62
(dp4557
sg71
g4118
sg64
(lp4558
g57
(g78
g59
NtRp4559
(dp4560
g62
(dp4561
g82
g83
ssg71
g4555
sg64
(lp4562
S'menu'
p4563
asbag57
(g78
g59
NtRp4564
(dp4565
g62
(dp4566
g89
g90
ssg71
g4555
sg64
(lp4567
S':'
asbag57
(g78
g59
NtRp4568
(dp4569
g62
(dp4570
sg71
g4555
sg64
(lp4571
g57
(g58
g59
NtRp4572
(dp4573
g62
(dp4574
g70
I5
ssg71
g4568
sg64
(lp4575
g57
(g66
g59
NtRp4576
(dp4577
g62
(dp4578
g70
I4
ssg71
Nsg64
(lp4579
g57
(g73
g59
NtRp4580
(dp4581
g62
(dp4582
sg71
g4576
sg64
(lp4583
g57
(g78
g59
NtRp4584
(dp4585
g62
(dp4586
sg71
g4580
sg64
(lp4587
g57
(g58
g59
NtRp4588
(dp4589
g62
(dp4590
g70
I4
ssg71
g4584
sg64
(lp4591
g57
(g66
g59
NtRp4592
(dp4593
g62
(dp4594
g70
I3
ssg71
Nsg64
(lp4595
g57
(g73
g59
NtRp4596
(dp4597
g62
(dp4598
sg71
g4592
sg64
(lp4599
g57
(g78
g59
NtRp4600
(dp4601
g62
(dp4602
sg71
g4596
sg64
(lp4603
g57
(g58
g59
NtRp4604
(dp4605
g62
(dp4606
g70
I3
ssg71
g4600
sg64
(lp4607
cgluon.languages
lazyT_unpickle
p4608
(S's\x04\x00\x00\x00Home'
tRp4609
asbasbasbag57
(g73
g59
NtRp4610
(dp4611
g62
(dp4612
sg71
g4592
sg64
(lp4613
g57
(g78
g59
NtRp4614
(dp4615
g62
(dp4616
sg71
g4610
sg64
(lp4617
g57
(g58
g59
NtRp4618
(dp4619
g62
(dp4620
g70
I3
ssg71
g4614
sg64
(lp4621
g100
asbasbasbag57
(g73
g59
NtRp4622
(dp4623
g62
(dp4624
sg71
g4592
sg64
(lp4625
g57
(g78
g59
NtRp4626
(dp4627
g62
(dp4628
sg71
g4622
sg64
(lp4629
g57
(g58
g59
NtRp4630
(dp4631
g62
(dp4632
g70
I3
ssg71
g4626
sg64
(lp4633
S'/music/default/index'
p4634
asbasbasbag57
(g73
g59
NtRp4635
(dp4636
g62
(dp4637
sg71
g4592
sg64
(lp4638
g57
(g78
g59
NtRp4639
(dp4640
g62
(dp4641
sg71
g4635
sg64
(lp4642
g57
(g58
g59
NtRp4643
(dp4644
g62
(dp4645
g70
I3
ssg71
g4639
sg64
(lp4646
g57
(g66
g59
NtRp4647
(dp4648
g62
(dp4649
g70
I2
ssg71
Nsg64
(lp4650
sbasbasbasbasbasbasbasbag57
(g73
g59
NtRp4651
(dp4652
g62
(dp4653
sg71
g4576
sg64
(lp4654
g57
(g78
g59
NtRp4655
(dp4656
g62
(dp4657
sg71
g4651
sg64
(lp4658
g57
(g58
g59
NtRp4659
(dp4660
g62
(dp4661
g70
I4
ssg71
g4655
sg64
(lp4662
g57
(g66
g59
NtRp4663
(dp4664
g62
(dp4665
g70
I3
ssg71
Nsg64
(lp4666
g57
(g73
g59
NtRp4667
(dp4668
g62
(dp4669
sg71
g4663
sg64
(lp4670
g57
(g78
g59
NtRp4671
(dp4672
g62
(dp4673
sg71
g4667
sg64
(lp4674
g57
(g58
g59
NtRp4675
(dp4676
g62
(dp4677
g70
I3
ssg71
g4671
sg64
(lp4678
g57
(cgluon.html
SPAN
p4679
g59
NtRp4680
(dp4681
g62
(dp4682
S'_class'
p4683
S'highlighted'
p4684
ssg71
Nsg64
(lp4685
g4554
asbasbasbasbag57
(g73
g59
NtRp4686
(dp4687
g62
(dp4688
sg71
g4663
sg64
(lp4689
g57
(g78
g59
NtRp4690
(dp4691
g62
(dp4692
sg71
g4686
sg64
(lp4693
g57
(g58
g59
NtRp4694
(dp4695
g62
(dp4696
g70
I3
ssg71
g4690
sg64
(lp4697
g100
asbasbasbag57
(g73
g59
NtRp4698
(dp4699
g62
(dp4700
sg71
g4663
sg64
(lp4701
g57
(g78
g59
NtRp4702
(dp4703
g62
(dp4704
sg71
g4698
sg64
(lp4705
g57
(g58
g59
NtRp4706
(dp4707
g62
(dp4708
g70
I3
ssg71
g4702
sg64
(lp4709
S'http://web2py.com'
p4710
asbasbasbag57
(g73
g59
NtRp4711
(dp4712
g62
(dp4713
sg71
g4663
sg64
(lp4714
g57
(g78
g59
NtRp4715
(dp4716
g62
(dp4717
sg71
g4711
sg64
(lp4718
g57
(g58
g59
NtRp4719
(dp4720
g62
(dp4721
g70
I3
ssg71
g4715
sg64
(lp4722
g57
(g66
g59
NtRp4723
(dp4724
g62
(dp4725
g70
I2
ssg71
Nsg64
(lp4726
g57
(g73
g59
NtRp4727
(dp4728
g62
(dp4729
sg71
g4723
sg64
(lp4730
g57
(g78
g59
NtRp4731
(dp4732
g62
(dp4733
sg71
g4727
sg64
(lp4734
g57
(g58
g59
NtRp4735
(dp4736
g62
(dp4737
g70
I2
ssg71
g4731
sg64
(lp4738
g57
(g66
g59
NtRp4739
(dp4740
g62
(dp4741
g70
I1
ssg71
Nsg64
(lp4742
g57
(g73
g59
NtRp4743
(dp4744
g62
(dp4745
sg71
g4739
sg64
(lp4746
g57
(g78
g59
NtRp4747
(dp4748
g62
(dp4749
sg71
g4743
sg64
(lp4750
g57
(g58
g59
NtRp4751
(dp4752
g62
(dp4753
g70
I1
ssg71
g4747
sg64
(lp4754
g4608
(S's\x08\x00\x00\x00My Sites'
tRp4755
asbasbasbag57
(g73
g59
NtRp4756
(dp4757
g62
(dp4758
sg71
g4739
sg64
(lp4759
g57
(g78
g59
NtRp4760
(dp4761
g62
(dp4762
sg71
g4756
sg64
(lp4763
g57
(g58
g59
NtRp4764
(dp4765
g62
(dp4766
g70
I1
ssg71
g4760
sg64
(lp4767
I00
asbasbasbag57
(g73
g59
NtRp4768
(dp4769
g62
(dp4770
sg71
g4739
sg64
(lp4771
g57
(g78
g59
NtRp4772
(dp4773
g62
(dp4774
sg71
g4768
sg64
(lp4775
g57
(g58
g59
NtRp4776
(dp4777
g62
(dp4778
g70
I1
ssg71
g4772
sg64
(lp4779
S'/admin/default/site'
p4780
asbasbasbasbasbasbasbag57
(g73
g59
NtRp4781
(dp4782
g62
(dp4783
sg71
g4723
sg64
(lp4784
g57
(g78
g59
NtRp4785
(dp4786
g62
(dp4787
sg71
g4781
sg64
(lp4788
g57
(g58
g59
NtRp4789
(dp4790
g62
(dp4791
g70
I2
ssg71
g4785
sg64
(lp4792
g57
(g66
g59
NtRp4793
(dp4794
g62
(dp4795
g70
I1
ssg71
Nsg64
(lp4796
g57
(g73
g59
NtRp4797
(dp4798
g62
(dp4799
sg71
g4793
sg64
(lp4800
g57
(g78
g59
NtRp4801
(dp4802
g62
(dp4803
sg71
g4797
sg64
(lp4804
g57
(g58
g59
NtRp4805
(dp4806
g62
(dp4807
g70
I1
ssg71
g4801
sg64
(lp4808
g4608
(S's\x08\x00\x00\x00This App'
tRp4809
asbasbasbag57
(g73
g59
NtRp4810
(dp4811
g62
(dp4812
sg71
g4793
sg64
(lp4813
g57
(g78
g59
NtRp4814
(dp4815
g62
(dp4816
sg71
g4810
sg64
(lp4817
g57
(g58
g59
NtRp4818
(dp4819
g62
(dp4820
g70
I1
ssg71
g4814
sg64
(lp4821
I00
asbasbasbag57
(g73
g59
NtRp4822
(dp4823
g62
(dp4824
sg71
g4793
sg64
(lp4825
g57
(g78
g59
NtRp4826
(dp4827
g62
(dp4828
sg71
g4822
sg64
(lp4829
g57
(g58
g59
NtRp4830
(dp4831
g62
(dp4832
g70
I1
ssg71
g4826
sg64
(lp4833
S'/admin/default/design/music'
p4834
asbasbasbag57
(g73
g59
NtRp4835
(dp4836
g62
(dp4837
sg71
g4793
sg64
(lp4838
g57
(g78
g59
NtRp4839
(dp4840
g62
(dp4841
sg71
g4835
sg64
(lp4842
g57
(g58
g59
NtRp4843
(dp4844
g62
(dp4845
g70
I1
ssg71
g4839
sg64
(lp4846
(lp4847
(g4608
(S's\n\x00\x00\x00Controller'
tRp4848
I00
S'/admin/default/edit/music/controllers/default.py'
tp4849
a(g4608
(S's\x04\x00\x00\x00View'
tRp4850
I00
S'/admin/default/edit/music/views/default/save.html'
tp4851
a(g4608
(S's\x06\x00\x00\x00Layout'
tRp4852
I00
S'/admin/default/edit/music/views/layout.html'
tp4853
a(g4608
(S's\n\x00\x00\x00Stylesheet'
tRp4854
I00
S'/admin/default/edit/music/static/css/web2py.css'
tp4855
a(g4608
(S's\x08\x00\x00\x00DB Model'
tRp4856
I00
S'/admin/default/edit/music/models/db.py'
tp4857
a(g4608
(S's\n\x00\x00\x00Menu Model'
tRp4858
I00
S'/admin/default/edit/music/models/menu.py'
tp4859
a(g4608
(S's\x08\x00\x00\x00Database'
tRp4860
I00
S'/music/appadmin/index'
tp4861
a(g4608
(S's\x06\x00\x00\x00Errors'
tRp4862
I00
S'/admin/default/errors/music'
tp4863
a(g4608
(S's\x05\x00\x00\x00About'
tRp4864
I00
S'/admin/default/about/music'
tp4865
aasbasbasbasbasbasbasbag57
(g73
g59
NtRp4866
(dp4867
g62
(dp4868
sg71
g4723
sg64
(lp4869
g57
(g78
g59
NtRp4870
(dp4871
g62
(dp4872
sg71
g4866
sg64
(lp4873
g57
(g58
g59
NtRp4874
(dp4875
g62
(dp4876
g70
I2
ssg71
g4870
sg64
(lp4877
g57
(g66
g59
NtRp4878
(dp4879
g62
(dp4880
g70
I1
ssg71
Nsg64
(lp4881
g57
(g73
g59
NtRp4882
(dp4883
g62
(dp4884
sg71
g4878
sg64
(lp4885
g57
(g78
g59
NtRp4886
(dp4887
g62
(dp4888
sg71
g4882
sg64
(lp4889
g57
(g58
g59
NtRp4890
(dp4891
g62
(dp4892
g70
I1
ssg71
g4886
sg64
(lp4893
S'web2py.com'
p4894
asbasbasbag57
(g73
g59
NtRp4895
(dp4896
g62
(dp4897
sg71
g4878
sg64
(lp4898
g57
(g78
g59
NtRp4899
(dp4900
g62
(dp4901
sg71
g4895
sg64
(lp4902
g57
(g58
g59
NtRp4903
(dp4904
g62
(dp4905
g70
I1
ssg71
g4899
sg64
(lp4906
I00
asbasbasbag57
(g73
g59
NtRp4907
(dp4908
g62
(dp4909
sg71
g4878
sg64
(lp4910
g57
(g78
g59
NtRp4911
(dp4912
g62
(dp4913
sg71
g4907
sg64
(lp4914
g57
(g58
g59
NtRp4915
(dp4916
g62
(dp4917
g70
I1
ssg71
g4911
sg64
(lp4918
S'http://www.web2py.com'
p4919
asbasbasbag57
(g73
g59
NtRp4920
(dp4921
g62
(dp4922
sg71
g4878
sg64
(lp4923
g57
(g78
g59
NtRp4924
(dp4925
g62
(dp4926
sg71
g4920
sg64
(lp4927
g57
(g58
g59
NtRp4928
(dp4929
g62
(dp4930
g70
I1
ssg71
g4924
sg64
(lp4931
(lp4932
(g4608
(S's\x08\x00\x00\x00Download'
tRp4933
I00
S'http://www.web2py.com/examples/default/download'
p4934
tp4935
a(g4608
(S's\x07\x00\x00\x00Support'
tRp4936
I00
S'http://www.web2py.com/examples/default/support'
p4937
tp4938
a(g4608
(S's\x04\x00\x00\x00Demo'
tRp4939
I00
S'http://web2py.com/demo_admin'
p4940
tp4941
a(g4608
(S's\x0e\x00\x00\x00Quick Examples'
tRp4942
I00
S'http://web2py.com/examples/default/examples'
p4943
tp4944
a(g4608
(S's\x03\x00\x00\x00FAQ'
tRp4945
I00
S'http://web2py.com/AlterEgo'
p4946
tp4947
a(g4608
(S's\x06\x00\x00\x00Videos'
tRp4948
I00
S'http://www.web2py.com/examples/default/videos/'
p4949
tp4950
a(g4608
(S's\x11\x00\x00\x00Free Applications'
tRp4951
I00
S'http://web2py.com/appliances'
p4952
tp4953
a(g4608
(S's\x07\x00\x00\x00Plugins'
tRp4954
I00
S'http://web2py.com/plugins'
p4955
tp4956
a(g4608
(S's\x07\x00\x00\x00Layouts'
tRp4957
I00
S'http://web2py.com/layouts'
p4958
tp4959
a(g4608
(S's\x07\x00\x00\x00Recipes'
tRp4960
I00
S'http://web2pyslices.com/'
p4961
tp4962
a(g4608
(S's\x08\x00\x00\x00Semantic'
tRp4963
I00
S'http://web2py.com/semantic'
p4964
tp4965
aasbasbasbasbasbasbasbag57
(g73
g59
NtRp4966
(dp4967
g62
(dp4968
sg71
g4723
sg64
(lp4969
g57
(g78
g59
NtRp4970
(dp4971
g62
(dp4972
sg71
g4966
sg64
(lp4973
g57
(g58
g59
NtRp4974
(dp4975
g62
(dp4976
g70
I2
ssg71
g4970
sg64
(lp4977
g57
(g66
g59
NtRp4978
(dp4979
g62
(dp4980
g70
I1
ssg71
Nsg64
(lp4981
g57
(g73
g59
NtRp4982
(dp4983
g62
(dp4984
sg71
g4978
sg64
(lp4985
g57
(g78
g59
NtRp4986
(dp4987
g62
(dp4988
sg71
g4982
sg64
(lp4989
g57
(g58
g59
NtRp4990
(dp4991
g62
(dp4992
g70
I1
ssg71
g4986
sg64
(lp4993
g4608
(S's\r\x00\x00\x00Documentation'
tRp4994
asbasbasbag57
(g73
g59
NtRp4995
(dp4996
g62
(dp4997
sg71
g4978
sg64
(lp4998
g57
(g78
g59
NtRp4999
(dp5000
g62
(dp5001
sg71
g4995
sg64
(lp5002
g57
(g58
g59
NtRp5003
(dp5004
g62
(dp5005
g70
I1
ssg71
g4999
sg64
(lp5006
I00
asbasbasbag57
(g73
g59
NtRp5007
(dp5008
g62
(dp5009
sg71
g4978
sg64
(lp5010
g57
(g78
g59
NtRp5011
(dp5012
g62
(dp5013
sg71
g5007
sg64
(lp5014
g57
(g58
g59
NtRp5015
(dp5016
g62
(dp5017
g70
I1
ssg71
g5011
sg64
(lp5018
S'http://www.web2py.com/book'
p5019
asbasbasbag57
(g73
g59
NtRp5020
(dp5021
g62
(dp5022
sg71
g4978
sg64
(lp5023
g57
(g78
g59
NtRp5024
(dp5025
g62
(dp5026
sg71
g5020
sg64
(lp5027
g57
(g58
g59
NtRp5028
(dp5029
g62
(dp5030
g70
I1
ssg71
g5024
sg64
(lp5031
(lp5032
(g4608
(S's\x07\x00\x00\x00Preface'
tRp5033
I00
S'http://www.web2py.com/book/default/chapter/00'
p5034
tp5035
a(g4608
(S's\x0c\x00\x00\x00Introduction'
tRp5036
I00
S'http://www.web2py.com/book/default/chapter/01'
p5037
tp5038
a(g4608
(S's\x06\x00\x00\x00Python'
tRp5039
I00
S'http://www.web2py.com/book/default/chapter/02'
p5040
tp5041
a(g4608
(S's\x08\x00\x00\x00Overview'
tRp5042
I00
S'http://www.web2py.com/book/default/chapter/03'
p5043
tp5044
a(g4608
(S's\x08\x00\x00\x00The Core'
tRp5045
I00
S'http://www.web2py.com/book/default/chapter/04'
p5046
tp5047
a(g4608
(S's\t\x00\x00\x00The Views'
tRp5048
I00
S'http://www.web2py.com/book/default/chapter/05'
p5049
tp5050
a(g4608
(S's\x08\x00\x00\x00Database'
tRp5051
I00
S'http://www.web2py.com/book/default/chapter/06'
p5052
tp5053
a(g4608
(S's\x14\x00\x00\x00Forms and Validators'
tRp5054
I00
S'http://www.web2py.com/book/default/chapter/07'
p5055
tp5056
a(g4608
(S's\r\x00\x00\x00Email and SMS'
tRp5057
I00
S'http://www.web2py.com/book/default/chapter/08'
p5058
tp5059
a(g4608
(S's\x0e\x00\x00\x00Access Control'
tRp5060
I00
S'http://www.web2py.com/book/default/chapter/09'
p5061
tp5062
a(g4608
(S's\x08\x00\x00\x00Services'
tRp5063
I00
S'http://www.web2py.com/book/default/chapter/10'
p5064
tp5065
a(g4608
(S's\x0c\x00\x00\x00Ajax Recipes'
tRp5066
I00
S'http://www.web2py.com/book/default/chapter/11'
p5067
tp5068
a(g4608
(S's\x16\x00\x00\x00Components and Plugins'
tRp5069
I00
S'http://www.web2py.com/book/default/chapter/12'
p5070
tp5071
a(g4608
(S's\x12\x00\x00\x00Deployment Recipes'
tRp5072
I00
S'http://www.web2py.com/book/default/chapter/13'
p5073
tp5074
a(g4608
(S's\r\x00\x00\x00Other Recipes'
tRp5075
I00
S'http://www.web2py.com/book/default/chapter/14'
p5076
tp5077
a(g4608
(S's\r\x00\x00\x00Buy this book'
tRp5078
I00
S'http://stores.lulu.com/web2py'
p5079
tp5080
aasbasbasbasbasbasbasbag57
(g73
g59
NtRp5081
(dp5082
g62
(dp5083
sg71
g4723
sg64
(lp5084
g57
(g78
g59
NtRp5085
(dp5086
g62
(dp5087
sg71
g5081
sg64
(lp5088
g57
(g58
g59
NtRp5089
(dp5090
g62
(dp5091
g70
I2
ssg71
g5085
sg64
(lp5092
g57
(g66
g59
NtRp5093
(dp5094
g62
(dp5095
g70
I1
ssg71
Nsg64
(lp5096
g57
(g73
g59
NtRp5097
(dp5098
g62
(dp5099
sg71
g5093
sg64
(lp5100
g57
(g78
g59
NtRp5101
(dp5102
g62
(dp5103
sg71
g5097
sg64
(lp5104
g57
(g58
g59
NtRp5105
(dp5106
g62
(dp5107
g70
I1
ssg71
g5101
sg64
(lp5108
g4608
(S's\t\x00\x00\x00Community'
tRp5109
asbasbasbag57
(g73
g59
NtRp5110
(dp5111
g62
(dp5112
sg71
g5093
sg64
(lp5113
g57
(g78
g59
NtRp5114
(dp5115
g62
(dp5116
sg71
g5110
sg64
(lp5117
g57
(g58
g59
NtRp5118
(dp5119
g62
(dp5120
g70
I1
ssg71
g5114
sg64
(lp5121
I00
asbasbasbag57
(g73
g59
NtRp5122
(dp5123
g62
(dp5124
sg71
g5093
sg64
(lp5125
g57
(g78
g59
NtRp5126
(dp5127
g62
(dp5128
sg71
g5122
sg64
(lp5129
g57
(g58
g59
NtRp5130
(dp5131
g62
(dp5132
g70
I1
ssg71
g5126
sg64
(lp5133
Nasbasbasbag57
(g73
g59
NtRp5134
(dp5135
g62
(dp5136
sg71
g5093
sg64
(lp5137
g57
(g78
g59
NtRp5138
(dp5139
g62
(dp5140
sg71
g5134
sg64
(lp5141
g57
(g58
g59
NtRp5142
(dp5143
g62
(dp5144
g70
I1
ssg71
g5138
sg64
(lp5145
(lp5146
(g4608
(S's\x06\x00\x00\x00Groups'
tRp5147
I00
S'http://www.web2py.com/examples/default/usergroups'
p5148
tp5149
a(g4608
(S's\x07\x00\x00\x00Twitter'
tRp5150
I00
S'http://twitter.com/web2py'
p5151
tp5152
a(g4608
(S's\t\x00\x00\x00Live Chat'
tRp5153
I00
S'http://webchat.freenode.net/?channels=web2py'
p5154
tp5155
aasbasbasbasbasbasbasbag57
(g73
g59
NtRp5156
(dp5157
g62
(dp5158
sg71
g4723
sg64
(lp5159
g57
(g78
g59
NtRp5160
(dp5161
g62
(dp5162
sg71
g5156
sg64
(lp5163
g57
(g58
g59
NtRp5164
(dp5165
g62
(dp5166
g70
I2
ssg71
g5160
sg64
(lp5167
g57
(g66
g59
NtRp5168
(dp5169
g62
(dp5170
g70
I1
ssg71
Nsg64
(lp5171
g57
(g73
g59
NtRp5172
(dp5173
g62
(dp5174
sg71
g5168
sg64
(lp5175
g57
(g78
g59
NtRp5176
(dp5177
g62
(dp5178
sg71
g5172
sg64
(lp5179
g57
(g58
g59
NtRp5180
(dp5181
g62
(dp5182
g70
I1
ssg71
g5176
sg64
(lp5183
g4608
(S's\x07\x00\x00\x00Plugins'
tRp5184
asbasbasbag57
(g73
g59
NtRp5185
(dp5186
g62
(dp5187
sg71
g5168
sg64
(lp5188
g57
(g78
g59
NtRp5189
(dp5190
g62
(dp5191
sg71
g5185
sg64
(lp5192
g57
(g58
g59
NtRp5193
(dp5194
g62
(dp5195
g70
I1
ssg71
g5189
sg64
(lp5196
I00
asbasbasbag57
(g73
g59
NtRp5197
(dp5198
g62
(dp5199
sg71
g5168
sg64
(lp5200
g57
(g78
g59
NtRp5201
(dp5202
g62
(dp5203
sg71
g5197
sg64
(lp5204
g57
(g58
g59
NtRp5205
(dp5206
g62
(dp5207
g70
I1
ssg71
g5201
sg64
(lp5208
Nasbasbasbag57
(g73
g59
NtRp5209
(dp5210
g62
(dp5211
sg71
g5168
sg64
(lp5212
g57
(g78
g59
NtRp5213
(dp5214
g62
(dp5215
sg71
g5209
sg64
(lp5216
g57
(g58
g59
NtRp5217
(dp5218
g62
(dp5219
g70
I1
ssg71
g5213
sg64
(lp5220
(lp5221
(S'plugin_wiki'
p5222
I00
S'http://web2py.com/examples/default/download'
p5223
tp5224
a(g4608
(S's\r\x00\x00\x00Other Plugins'
tRp5225
I00
g4955
tp5226
a(g4608
(S's\x0e\x00\x00\x00Layout Plugins'
tRp5227
I00
g4958
tp5228
aasbasbasbasbasbasbasbasbasbasbasbasbasbasbasbasbasbasbasbag57
(g73
g59
NtRp5229
(dp5230
g62
(dp5231
sg71
g4118
sg64
(lp5232
g57
(g78
g59
NtRp5233
(dp5234
g62
(dp5235
g82
g83
ssg71
g5229
sg64
(lp5236
S'meta'
p5237
asbag57
(g78
g59
NtRp5238
(dp5239
g62
(dp5240
g89
g90
ssg71
g5229
sg64
(lp5241
S':'
asbag57
(g78
g59
NtRp5242
(dp5243
g62
(dp5244
sg71
g5229
sg64
(lp5245
g57
(g58
g59
NtRp5246
(dp5247
g62
(dp5248
g70
I5
ssg71
g5242
sg64
(lp5249
g57
(g66
g59
NtRp5250
(dp5251
g62
(dp5252
g70
I4
ssg71
Nsg64
(lp5253
g57
(g73
g59
NtRp5254
(dp5255
g62
(dp5256
sg71
g5250
sg64
(lp5257
g57
(g78
g59
NtRp5258
(dp5259
g62
(dp5260
g82
g83
ssg71
g5254
sg64
(lp5261
S'author'
p5262
asbag57
(g78
g59
NtRp5263
(dp5264
g62
(dp5265
g89
g90
ssg71
g5254
sg64
(lp5266
S':'
asbag57
(g78
g59
NtRp5267
(dp5268
g62
(dp5269
sg71
g5254
sg64
(lp5270
g57
(g58
g59
NtRp5271
(dp5272
g62
(dp5273
g70
I4
ssg71
g5267
sg64
(lp5274
S'Your Name <you@example.com>'
p5275
asbasbasbag57
(g73
g59
NtRp5276
(dp5277
g62
(dp5278
sg71
g5250
sg64
(lp5279
g57
(g78
g59
NtRp5280
(dp5281
g62
(dp5282
g82
g83
ssg71
g5276
sg64
(lp5283
S'description'
p5284
asbag57
(g78
g59
NtRp5285
(dp5286
g62
(dp5287
g89
g90
ssg71
g5276
sg64
(lp5288
S':'
asbag57
(g78
g59
NtRp5289
(dp5290
g62
(dp5291
sg71
g5276
sg64
(lp5292
g57
(g58
g59
NtRp5293
(dp5294
g62
(dp5295
g70
I4
ssg71
g5289
sg64
(lp5296
S'a cool new app'
p5297
asbasbasbag57
(g73
g59
NtRp5298
(dp5299
g62
(dp5300
sg71
g5250
sg64
(lp5301
g57
(g78
g59
NtRp5302
(dp5303
g62
(dp5304
g82
g83
ssg71
g5298
sg64
(lp5305
S'generator'
p5306
asbag57
(g78
g59
NtRp5307
(dp5308
g62
(dp5309
g89
g90
ssg71
g5298
sg64
(lp5310
S':'
asbag57
(g78
g59
NtRp5311
(dp5312
g62
(dp5313
sg71
g5298
sg64
(lp5314
g57
(g58
g59
NtRp5315
(dp5316
g62
(dp5317
g70
I4
ssg71
g5311
sg64
(lp5318
S'Web2py Web Framework'
p5319
asbasbasbag57
(g73
g59
NtRp5320
(dp5321
g62
(dp5322
sg71
g5250
sg64
(lp5323
g57
(g78
g59
NtRp5324
(dp5325
g62
(dp5326
g82
g83
ssg71
g5320
sg64
(lp5327
S'keywords'
p5328
asbag57
(g78
g59
NtRp5329
(dp5330
g62
(dp5331
g89
g90
ssg71
g5320
sg64
(lp5332
S':'
asbag57
(g78
g59
NtRp5333
(dp5334
g62
(dp5335
sg71
g5320
sg64
(lp5336
g57
(g58
g59
NtRp5337
(dp5338
g62
(dp5339
g70
I4
ssg71
g5333
sg64
(lp5340
S'web2py, python, framework'
p5341
asbasbasbasbasbasbasbag57
(g73
g59
NtRp5342
(dp5343
g62
(dp5344
sg71
g4118
sg64
(lp5345
g57
(g78
g59
NtRp5346
(dp5347
g62
(dp5348
g82
g83
ssg71
g5342
sg64
(lp5349
S'models_to_run'
p5350
asbag57
(g78
g59
NtRp5351
(dp5352
g62
(dp5353
g89
g90
ssg71
g5342
sg64
(lp5354
S':'
asbag57
(g78
g59
NtRp5355
(dp5356
g62
(dp5357
sg71
g5342
sg64
(lp5358
g57
(g58
g59
NtRp5359
(dp5360
g62
(dp5361
g70
I5
ssg71
g5355
sg64
(lp5362
g57
(g66
g59
NtRp5363
(dp5364
g62
(dp5365
g70
I4
ssg71
Nsg64
(lp5366
g57
(g73
g59
NtRp5367
(dp5368
g62
(dp5369
sg71
g5363
sg64
(lp5370
g57
(g78
g59
NtRp5371
(dp5372
g62
(dp5373
sg71
g5367
sg64
(lp5374
g57
(g58
g59
NtRp5375
(dp5376
g62
(dp5377
g70
I4
ssg71
g5371
sg64
(lp5378
S'^\\w+\\.py$'
p5379
asbasbasbag57
(g73
g59
NtRp5380
(dp5381
g62
(dp5382
sg71
g5363
sg64
(lp5383
g57
(g78
g59
NtRp5384
(dp5385
g62
(dp5386
sg71
g5380
sg64
(lp5387
g57
(g58
g59
NtRp5388
(dp5389
g62
(dp5390
g70
I4
ssg71
g5384
sg64
(lp5391
S'^default/\\w+\\.py$'
p5392
asbasbasbag57
(g73
g59
NtRp5393
(dp5394
g62
(dp5395
sg71
g5363
sg64
(lp5396
g57
(g78
g59
NtRp5397
(dp5398
g62
(dp5399
sg71
g5393
sg64
(lp5400
g57
(g58
g59
NtRp5401
(dp5402
g62
(dp5403
g70
I4
ssg71
g5397
sg64
(lp5404
S'^default/save/\\w+\\.py$'
p5405
asbasbasbasbasbasbasbag57
(g73
g59
NtRp5406
(dp5407
g62
(dp5408
sg71
g4118
sg64
(lp5409
g57
(g78
g59
NtRp5410
(dp5411
g62
(dp5412
g82
g83
ssg71
g5406
sg64
(lp5413
S'postprocessing'
p5414
asbag57
(g78
g59
NtRp5415
(dp5416
g62
(dp5417
g89
g90
ssg71
g5406
sg64
(lp5418
S':'
asbag57
(g78
g59
NtRp5419
(dp5420
g62
(dp5421
sg71
g5406
sg64
(lp5422
g57
(g58
g59
NtRp5423
(dp5424
g62
(dp5425
g70
I5
ssg71
g5419
sg64
(lp5426
g57
(g66
g59
NtRp5427
(dp5428
g62
(dp5429
g70
I4
ssg71
Nsg64
(lp5430
sbasbasbasbag57
(g73
g59
NtRp5431
(dp5432
g62
(dp5433
sg71
g4118
sg64
(lp5434
g57
(g78
g59
NtRp5435
(dp5436
g62
(dp5437
g82
g83
ssg71
g5431
sg64
(lp5438
S'session_cookie_expires'
p5439
asbag57
(g78
g59
NtRp5440
(dp5441
g62
(dp5442
g89
g90
ssg71
g5431
sg64
(lp5443
S':'
asbag57
(g78
g59
NtRp5444
(dp5445
g62
(dp5446
sg71
g5431
sg64
(lp5447
g57
(g58
g59
NtRp5448
(dp5449
g62
(dp5450
g70
I5
ssg71
g5444
sg64
(lp5451
S'None'
p5452
asbasbasbag57
(g73
g59
NtRp5453
(dp5454
g62
(dp5455
sg71
g4118
sg64
(lp5456
g57
(g78
g59
NtRp5457
(dp5458
g62
(dp5459
g82
g83
ssg71
g5453
sg64
(lp5460
S'session_data_name'
p5461
asbag57
(g78
g59
NtRp5462
(dp5463
g62
(dp5464
g89
g90
ssg71
g5453
sg64
(lp5465
S':'
asbag57
(g78
g59
NtRp5466
(dp5467
g62
(dp5468
sg71
g5453
sg64
(lp5469
g57
(g58
g59
NtRp5470
(dp5471
g62
(dp5472
g70
I5
ssg71
g5466
sg64
(lp5473
S'session_data_music'
p5474
asbasbasbag57
(g73
g59
NtRp5475
(dp5476
g62
(dp5477
sg71
g4118
sg64
(lp5478
g57
(g78
g59
NtRp5479
(dp5480
g62
(dp5481
g82
g83
ssg71
g5475
sg64
(lp5482
S'session_file'
p5483
asbag57
(g78
g59
NtRp5484
(dp5485
g62
(dp5486
g89
g90
ssg71
g5475
sg64
(lp5487
S':'
asbag57
(g78
g59
NtRp5488
(dp5489
g62
(dp5490
sg71
g5475
sg64
(lp5491
g57
(g58
g59
NtRp5492
(dp5493
g62
(dp5494
g70
I5
ssg71
g5488
sg64
(lp5495
S"<open file '/home/wionel/Desktop/web2py/applications/music/sessions/127.0.0.1-adc6eb33-f19b-4659-bd7d-4019f40bbf7e', mode 'rb+' at 0x7f80e4198b70>"
p5496
asbasbasbag57
(g73
g59
NtRp5497
(dp5498
g62
(dp5499
sg71
g4118
sg64
(lp5500
g57
(g78
g59
NtRp5501
(dp5502
g62
(dp5503
g82
g83
ssg71
g5497
sg64
(lp5504
S'session_filename'
p5505
asbag57
(g78
g59
NtRp5506
(dp5507
g62
(dp5508
g89
g90
ssg71
g5497
sg64
(lp5509
S':'
asbag57
(g78
g59
NtRp5510
(dp5511
g62
(dp5512
sg71
g5497
sg64
(lp5513
g57
(g58
g59
NtRp5514
(dp5515
g62
(dp5516
g70
I5
ssg71
g5510
sg64
(lp5517
S'/home/wionel/Desktop/web2py/applications/music/sessions/127.0.0.1-adc6eb33-f19b-4659-bd7d-4019f40bbf7e'
p5518
asbasbasbag57
(g73
g59
NtRp5519
(dp5520
g62
(dp5521
sg71
g4118
sg64
(lp5522
g57
(g78
g59
NtRp5523
(dp5524
g62
(dp5525
g82
g83
ssg71
g5519
sg64
(lp5526
S'session_id'
p5527
asbag57
(g78
g59
NtRp5528
(dp5529
g62
(dp5530
g89
g90
ssg71
g5519
sg64
(lp5531
S':'
asbag57
(g78
g59
NtRp5532
(dp5533
g62
(dp5534
sg71
g5519
sg64
(lp5535
g57
(g58
g59
NtRp5536
(dp5537
g62
(dp5538
g70
I5
ssg71
g5532
sg64
(lp5539
g475
asbasbasbag57
(g73
g59
NtRp5540
(dp5541
g62
(dp5542
sg71
g4118
sg64
(lp5543
g57
(g78
g59
NtRp5544
(dp5545
g62
(dp5546
g82
g83
ssg71
g5540
sg64
(lp5547
S'session_id_name'
p5548
asbag57
(g78
g59
NtRp5549
(dp5550
g62
(dp5551
g89
g90
ssg71
g5540
sg64
(lp5552
S':'
asbag57
(g78
g59
NtRp5553
(dp5554
g62
(dp5555
sg71
g5540
sg64
(lp5556
g57
(g58
g59
NtRp5557
(dp5558
g62
(dp5559
g70
I5
ssg71
g5553
sg64
(lp5560
g4175
asbasbasbag57
(g73
g59
NtRp5561
(dp5562
g62
(dp5563
sg71
g4118
sg64
(lp5564
g57
(g78
g59
NtRp5565
(dp5566
g62
(dp5567
g82
g83
ssg71
g5561
sg64
(lp5568
S'session_locked'
p5569
asbag57
(g78
g59
NtRp5570
(dp5571
g62
(dp5572
g89
g90
ssg71
g5561
sg64
(lp5573
S':'
asbag57
(g78
g59
NtRp5574
(dp5575
g62
(dp5576
sg71
g5561
sg64
(lp5577
g57
(g58
g59
NtRp5578
(dp5579
g62
(dp5580
g70
I5
ssg71
g5574
sg64
(lp5581
g1920
asbasbasbag57
(g73
g59
NtRp5582
(dp5583
g62
(dp5584
sg71
g4118
sg64
(lp5585
g57
(g78
g59
NtRp5586
(dp5587
g62
(dp5588
g82
g83
ssg71
g5582
sg64
(lp5589
S'session_new'
p5590
asbag57
(g78
g59
NtRp5591
(dp5592
g62
(dp5593
g89
g90
ssg71
g5582
sg64
(lp5594
S':'
asbag57
(g78
g59
NtRp5595
(dp5596
g62
(dp5597
sg71
g5582
sg64
(lp5598
g57
(g58
g59
NtRp5599
(dp5600
g62
(dp5601
g70
I5
ssg71
g5595
sg64
(lp5602
g100
asbasbasbag57
(g73
g59
NtRp5603
(dp5604
g62
(dp5605
sg71
g4118
sg64
(lp5606
g57
(g78
g59
NtRp5607
(dp5608
g62
(dp5609
g82
g83
ssg71
g5603
sg64
(lp5610
S'session_storage_type'
p5611
asbag57
(g78
g59
NtRp5612
(dp5613
g62
(dp5614
g89
g90
ssg71
g5603
sg64
(lp5615
S':'
asbag57
(g78
g59
NtRp5616
(dp5617
g62
(dp5618
sg71
g5603
sg64
(lp5619
g57
(g58
g59
NtRp5620
(dp5621
g62
(dp5622
g70
I5
ssg71
g5616
sg64
(lp5623
g3623
asbasbasbag57
(g73
g59
NtRp5624
(dp5625
g62
(dp5626
sg71
g4118
sg64
(lp5627
g57
(g78
g59
NtRp5628
(dp5629
g62
(dp5630
g82
g83
ssg71
g5624
sg64
(lp5631
S'status'
p5632
asbag57
(g78
g59
NtRp5633
(dp5634
g62
(dp5635
g89
g90
ssg71
g5624
sg64
(lp5636
S':'
asbag57
(g78
g59
NtRp5637
(dp5638
g62
(dp5639
sg71
g5624
sg64
(lp5640
g57
(g58
g59
NtRp5641
(dp5642
g62
(dp5643
g70
I5
ssg71
g5637
sg64
(lp5644
S'200'
p5645
asbasbasbag57
(g73
g59
NtRp5646
(dp5647
g62
(dp5648
sg71
g4118
sg64
(lp5649
g57
(g78
g59
NtRp5650
(dp5651
g62
(dp5652
g82
g83
ssg71
g5646
sg64
(lp5653
S'subtitle'
p5654
asbag57
(g78
g59
NtRp5655
(dp5656
g62
(dp5657
g89
g90
ssg71
g5646
sg64
(lp5658
S':'
asbag57
(g78
g59
NtRp5659
(dp5660
g62
(dp5661
sg71
g5646
sg64
(lp5662
g57
(g58
g59
NtRp5663
(dp5664
g62
(dp5665
g70
I5
ssg71
g5659
sg64
(lp5666
g4608
(S's\r\x00\x00\x00customize me!'
tRp5667
asbasbasbag57
(g73
g59
NtRp5668
(dp5669
g62
(dp5670
sg71
g4118
sg64
(lp5671
g57
(g78
g59
NtRp5672
(dp5673
g62
(dp5674
g82
g83
ssg71
g5668
sg64
(lp5675
S'title'
p5676
asbag57
(g78
g59
NtRp5677
(dp5678
g62
(dp5679
g89
g90
ssg71
g5668
sg64
(lp5680
S':'
asbag57
(g78
g59
NtRp5681
(dp5682
g62
(dp5683
sg71
g5668
sg64
(lp5684
g57
(g58
g59
NtRp5685
(dp5686
g62
(dp5687
g70
I5
ssg71
g5681
sg64
(lp5688
S'Music'
p5689
asbasbasbag57
(g73
g59
NtRp5690
(dp5691
g62
(dp5692
sg71
g4118
sg64
(lp5693
g57
(g78
g59
NtRp5694
(dp5695
g62
(dp5696
g82
g83
ssg71
g5690
sg64
(lp5697
S'view'
p5698
asbag57
(g78
g59
NtRp5699
(dp5700
g62
(dp5701
g89
g90
ssg71
g5690
sg64
(lp5702
S':'
asbag57
(g78
g59
NtRp5703
(dp5704
g62
(dp5705
sg71
g5690
sg64
(lp5706
g57
(g58
g59
NtRp5707
(dp5708
g62
(dp5709
g70
I5
ssg71
g5703
sg64
(lp5710
S'default/save.html'
p5711
asbasbasbasbasbsS'locals'
p5712
(dp5713
S'row'
p5714
S"<Row {'user_id': 1, 'name': 'new playlist', 'id': 28, 'songlist': '5,3,1,6,8,2,7,'}>"
p5715
sS'user_id'
p5716
S'1'
sS'playlist_name'
p5717
S"'123123'"
p5718
sS'songlist'
p5719
S"'5,3,1,6,8,2,7,'"
p5720
sssS'traceback'
p5721
S'Traceback (most recent call last):\n  File "/home/wionel/Desktop/web2py/gluon/restricted.py", line 212, in restricted\n    exec ccode in environment\n  File "/home/wionel/Desktop/web2py/applications/music/controllers/default.py", line 147, in <module>\n  File "/home/wionel/Desktop/web2py/gluon/globals.py", line 188, in <lambda>\n    self._caller = lambda f: f()\n  File "/home/wionel/Desktop/web2py/applications/music/controllers/default.py", line 76, in save\n    if(id!=-1):\nUnboundLocalError: local variable \'id\' referenced before assignment\n'
p5722
s.