(dp1
S'output'
p2
S"<type 'exceptions.SyntaxError'> keyword can't be an expression (index.html, line 125)"
p3
sS'layer'
p4
S'/home/wionel/Desktop/web2py/applications/music/views/default/index.html'
p5
sS'code'
p6
S'left_sidebar_enabled,right_sidebar_enabled=False,(\'message\' in globals())\nresponse.write(\'\\n\', escape=False)\nresponse.write(\'<!DOCTYPE html>\\n<!-- paulirish.com/2008/conditional-stylesheets-vs-css-hacks-answer-neither/ -->\\n<!--[if lt IE 7]><html class="ie ie6 ie-lte9 ie-lte8 ie-lte7 no-js" lang="\', escape=False)\nresponse.write(T.accepted_language or \'en\')\nresponse.write(\'"> <![endif]-->\\n<!--[if IE 7]><html class="ie ie7 ie-lte9 ie-lte8 ie-lte7 no-js" lang="\', escape=False)\nresponse.write(T.accepted_language or \'en\')\nresponse.write(\'"> <![endif]-->\\n<!--[if IE 8]><html class="ie ie8 ie-lte9 ie-lte8 no-js" lang="\', escape=False)\nresponse.write(T.accepted_language or \'en\')\nresponse.write(\'"> <![endif]-->\\n<!--[if IE 9]><html class="ie9 ie-lte9 no-js" lang="\', escape=False)\nresponse.write(T.accepted_language or \'en\')\nresponse.write(\'"> <![endif]-->\\n<!--[if (gt IE 9)|!(IE)]><!--> <html class="no-js" lang="\', escape=False)\nresponse.write(T.accepted_language or \'en\')\nresponse.write(\'"> <!--<![endif]-->\\n<head>\\n  <meta charset="utf-8" />\\n  <!-- www.phpied.com/conditional-comments-block-downloads/ -->\\n  <!-- Always force latest IE rendering engine\\n       (even in intranet) & Chrome Frame\\n       Remove this if you use the .htaccess -->\\n  <!--[if IE]>\\n      <meta http-equiv="X-UA-Compatible" content="IE=edge\', escape=False)\nresponse.write(not request.is_local and \',chrome=1\' or \'\')\nresponse.write(\'">\\n      <![endif]-->\\n\\n  <title>\', escape=False)\nresponse.write(response.title or request.application)\nresponse.write(\'</title>\\n\\n  <!-- http://dev.w3.org/html5/markup/meta.name.html -->\\n  <meta name="application-name" content="\', escape=False)\nresponse.write(request.application)\nresponse.write(\'" />\\n\\n  <!-- Speaking of Google, don\\\'t forget to set your site up:\\n       http://google.com/webmasters -->\\n  <meta name="google-site-verification" content="" />\\n\\n  <!--  Mobile Viewport Fix\\n        j.mp/mobileviewport & davidbcalhoun.com/2010/viewport-metatag\\n        device-width: Occupy full width of the screen in its current orientation\\n        initial-scale = 1.0 retains dimensions instead of zooming out if page height > device height\\n        user-scalable = yes allows the user to zoom in -->\\n  <meta name="viewport" content="width=device-width, initial-scale=1.0">\\n\\n  <link rel="shortcut icon" href="\', escape=False)\nresponse.write(URL(\'static\',\'images/favicon.ico\'))\nresponse.write(\'" type="image/x-icon">\\n  <link rel="apple-touch-icon" href="\', escape=False)\nresponse.write(URL(\'static\',\'images/favicon.png\'))\nresponse.write(\'">\\n\\n  <!-- All JavaScript at the bottom, except for Modernizr which enables\\n       HTML5 elements & feature detects -->\\n  <script src="\', escape=False)\nresponse.write(URL(\'static\',\'js/modernizr.custom.js\'))\nresponse.write(\'"></script>\\n  <script src="\', escape=False)\nresponse.write(URL(\'static\',\'js/music.js\'))\nresponse.write(\'"></script>\\n  <!-- include stylesheets -->\\n  \', escape=False)\nresponse.files.append(URL(\'static\',\'css/web2py.css\'))\nresponse.files.append(URL(\'static\',\'css/bootstrap.min.css\'))\nresponse.files.append(URL(\'static\',\'css/bootstrap-responsive.min.css\'))\nresponse.files.append(URL(\'static\',\'css/web2py_bootstrap.css\'))\nresponse.write(\'\\n\\n  \', escape=False)\nresponse.write(\'<script type="text/javascript"><!--\\n    // These variables are used by the web2py_ajax_init function in web2py_ajax.js (which is loaded below).\\n    var w2p_ajax_confirm_message = "\', escape=False)\nresponse.write(T(\'Are you sure you want to delete this object?\'))\nresponse.write(\'";\\n    var w2p_ajax_date_format = "\', escape=False)\nresponse.write(T(\'%Y-%m-%d\'))\nresponse.write(\'";\\n    var w2p_ajax_datetime_format = "\', escape=False)\nresponse.write(T(\'%Y-%m-%d %H:%M:%S\'))\nresponse.write(\'";\\n    //--></script>\\n\', escape=False)\nresponse.files.insert(0,URL(\'static\',\'js/jquery.js\'))\nresponse.files.insert(1,URL(\'static\',\'css/calendar.css\'))\nresponse.files.insert(2,URL(\'static\',\'js/calendar.js\'))\nresponse.files.insert(3,URL(\'static\',\'js/web2py.js\'))\nresponse.include_meta()\nresponse.include_files()\nresponse.write(\'\\n\', escape=False)\nresponse.write(\'\\n\\n  \', escape=False)\n# using sidebars need to know what sidebar you want to use\nleft_sidebar_enabled = globals().get(\'left_sidebar_enabled\',False)\nright_sidebar_enabled = globals().get(\'right_sidebar_enabled\',False)\nmiddle_columns = {0:\'span12\',1:\'span9\',2:\'span6\'}[\n(left_sidebar_enabled and 1 or 0)+(right_sidebar_enabled and 1 or 0)]\nresponse.write(\'\\n\\n  <!-- uncomment here to load jquery-ui\\n       <link rel="stylesheet" href="http://ajax.googleapis.com/ajax/libs/jqueryui/1.8.16/themes/base/jquery-ui.css" type="text/css" media="all" />\\n       <script src="http://ajax.googleapis.com/ajax/libs/jqueryui/1.8.16/jquery-ui.min.js" type="text/javascript"></script>\\n       uncomment to load jquery-ui //-->\\n  <noscript><link href="\', escape=False)\nresponse.write(URL(\'static\', \'css/web2py_bootstrap_nojs.css\'))\nresponse.write(\'" rel="stylesheet" type="text/css" /></noscript>\\n  \', escape=False)\nresponse.write(\'\\n</head>\\n\\n<body>\\n  <!-- Navbar ================================================== -->\\n  <div class="navbar navbar-inverse navbar-fixed-top">\\n    <div class="flash">\', escape=False)\nresponse.write(response.flash or \'\')\nresponse.write(\'</div>\\n    <div class="navbar-inner">\\n      <div class="container">\\n        <!-- the next tag is necessary for bootstrap menus, do not remove -->\\n        <button type="button" class="btn btn-navbar" data-toggle="collapse" data-target=".nav-collapse">\\n          <span class="icon-bar"></span>\\n          <span class="icon-bar"></span>\\n          <span class="icon-bar"></span>\\n        </button>\\n        <!--a class="brand" href="http://www.web2py.com/"><b>web<span>2</span>py</b>&trade;&nbsp;</a-->\\n        <ul id="navbar" class="nav pull-right">\', escape=False)\nresponse.write(\'auth\' in globals() and auth.navbar(mode="dropdown") or \'\')\nresponse.write(\'</ul>\\n        <div class="nav-collapse">\\n          <ul class="nav">\\n\\t\\t\\t<li>\\n\\t\\t\\t\\t<a href="/music/default/index">Home</a>\\n\\t\\t\\t</li>\\n          </ul>\\n          \', escape=False)\n#is_mobile=request.user_agent().is_mobile\nresponse.write(\'\\n          \', escape=False)\n#if response.menu:\nresponse.write(\'\\n          \', escape=False)\n#=MENU(response.menu, _class=\'mobile-menu nav\' if is_mobile else \'nav\',mobile=is_mobile,li_class=\'dropdown\',ul_class=\'dropdown-menu\')\nresponse.write(\'\\n          \', escape=False)\n#pass\nresponse.write(\'\\n        </div><!--/.nav-collapse -->\\n      </div>\\n    </div>\\n  </div><!--/top navbar -->\\n\\n  <div class="container">\\n    <!-- Masthead ================================================== -->\\n    <header class="mastheader row" id="header">\\n        <div class="span12">\\n            <div class="page-header" style="margin:0" >\\n                <center><h1>\\n                    \', escape=False)\n#=response.title or request.application\nresponse.write(\'\\n                    Music @ IIIT\\n                    <small>\', escape=False)\n#=response.subtitle or \'\'\nresponse.write(\'</small>\\n                    </h1></center>\\n            </div>\\n        </div>\\n    </header>\\n\\n    <section id="main" class="main row">\\n\\n        \', escape=False)\nif left_sidebar_enabled:\n    response.write(\'\\n        \\n        <div class="span3 left-sidebar">\\n            \', escape=False)\n    response.write(\'\\n            <h3>Left Sidebar</h3>\\n            <p></p>\\n            \', escape=False)\n    response.write(\'\\n        </div>\\n        \\n        \', escape=False)\n    pass\nresponse.write(\'\\n\\t\\t\\n        <div class="\', escape=False)\nresponse.write(middle_columns)\nresponse.write(\'">\\n            \', escape=False)\nresponse.write(\'\\n            \', escape=False)\nresponse.write(\'\\n\\n\\n\\n\', escape=False)\nif \'isloggedin\' in globals():\n    response.write(\'\\n\\t\', escape=False)\n    if \'playlist_exist\' in globals():\n        response.write(\'\\n<h1  style="color:darkgreen" >\', escape=False)\n        response.write(playlistName)\n        response.write(\'  </h1> \\n<!--span><h4>Songs : </h4></span-->\\t\\n  \\t     <div class="btn" style=" text-align:left;cursor: auto;float: left; height: 300px; background: none repeat scroll 0% 0% lightyellow; width: 30%;">  \\n            <h2>Playlist Songs :</h2>\\n            <div id="available_songs" style="height:230px;overflow:auto;">\\n                 \', escape=False)\n        for song in songs :\n            response.write(\'\\n                <div  style="width:95%;padding-top:10px;height:40px;padding-left:5px;border-radius:5px;cursor:pointer;margin-top:5px;background:lightblue" id="\', escape=False)\n            response.write(song.id)\n            response.write(\'">\\n                        \\t<span>\\n                    \\t\\t\\t\', escape=False)\n            response.write(song.title)\n            response.write(\'\\n\\t            \\t\\t\\t</span>\\n                    <button style="height:30px" onclick="play(\\\'\', escape=False)\n            response.write(URL(\'download\', args=song.file))\n            response.write("\',\'", escape=False)\n            response.write(song.title)\n            response.write("\',\'", escape=False)\n            response.write(str(song.id))\n            response.write(\'\\\')">play</button>\\n                  </div>\\n               \', escape=False)\n            pass\n        response.write(\'\\n             </div>\\n        </div>\\t\\n\\t\\t <div style="margin-left:10px;">\\n\\t\\t\\t\\t<div id="player" class="btn" style="display:table-cell;vertical-align:middle;height:300px;width:40%">\\n                    <div style="margin-left:20px;float:left">\\n                    \\tNow Playing : \\n                    </div>\\n                    <div>\\n                        <marque style="width:200px"  >\', escape=False)\n        response.write(songs[0].title)\n        response.write(\'</marque>\\n                    </div>\\n                    <audio style="width:500px" onended=""  controls="controls" autoplay="autoplay">\\n  \\t\\t\\t\\t\\t\\t<source src="\', escape=False)\n        response.write(URL(\'download\', args=songs[0].file))\n        response.write(\'" type="audio/mp3">\\n\\t\\t\\t\\t\\t\\t\\tYour browser does not support the audio element.\\n\\t     \\t\\t \\t</audio>\\n\\t\\t\\t \\t</div>\\n\\t\\t</div>\\n<center style="margin-top:10px" ><a style="margin-left :20px"  class="btn" href="\', escape=False)\n        response.write(URL(\'default\',\'playlist\'))\n        response.write(\'">Edit Playlist</a></center>\\n\\t\', escape=False)\n    else:\n        response.write(\'\\n\\t\\t<span>\', escape=False)\n        response.write(XML(T(\'Create playlist of ur favourite songs by clicking %s\', A("here",_href=URL(\'default\',\'playlist\')))))\n        response.write(\'</span>\\n\\t\', escape=False)\n        pass\n    response.write(\'\\n\', escape=False)\nelse:\n    response.write(\'\\n\\t<h3>\', escape=False)\n    response.write(message)\n    response.write(\'</h3>\\n    <span>\', escape=False)\n    response.write(XML(T(\'Create playlist of ur favourite songs by clicking %s\', A("here",_href=request.env.path_info))))\n    response.write(\'</span>\\n\\t<h3>Check out few of the public playlists :</h3>\\n\\t<div>\\n\\t\\t\', escape=False)\n    if \'public_playlists\' in globals():\n        response.write(\'\\n    \\t\\t\\n        <div style="background-color:lightyellow;border: 1px solid;border-radius: 5px;min-height:150px;max-width:100%;overflow:auto">\\n            \', escape=False)\n        for public_playlist in public_playlists:\n            response.write(\'\\n            \\t<a class="btn" href="\', escape=False)\n            response.write(URL(\'default\',\'index\',\'id\' = public_playlist.id))\n            response.write(\'"  style="margin:5px;border:1px solid;border-radius:5px" > \', escape=False)\n            response.write(public_playlist.name)\n            response.write(\' </a>\\n            \', escape=False)\n            pass\n        response.write(\'\\n        </div>\\n    \\t\\t\\n\\t\\t\', escape=False)\n    else:\n        response.write(\'\\n    \\t\\t\\n        <h5 style="color:red" >Sorry, No public playlists pvailable.</h5>\\n    \\t\\t\\n\\t\\t\', escape=False)\n        pass\n    response.write(\'\\n\\t\\t\\n\\t</div>\\n\', escape=False)\n    pass\nresponse.write(\'\\n\\n\', escape=False)\nresponse.write(\'\\n\', escape=False)\nresponse.write(\'\\n            \', escape=False)\nresponse.write(\'\\n        </div>\\n\\n        \', escape=False)\nif right_sidebar_enabled:\n    response.write(\'\\n        <div class="span3">\\n            \', escape=False)\n    response.write(\'\\n\', escape=False)\n    #=A(T("Administrative Interface"), _href=URL(\'admin\',\'default\',\'index\'), _class=\'btn\', _style=\'margin-top: 1em;\')\n    response.write(\'\\n\\n\', escape=False)\n    response.write(\'\\n        </div>\\n        \', escape=False)\n    pass\nresponse.write(\'\\n    </section><!--/main-->\\n    \\n\\n    <!-- Footer ================================================== -->\\n    <div class="row">\\n        <footer class="footer span12" id="footer">\\n            <div class="footer-content">\\n                \', escape=False)\nresponse.write(\' <!-- this is default footer -->\\n                <div class="copyright pull-left">\', escape=False)\nresponse.write(T(\'Copyright\'))\nresponse.write(\' &#169; \', escape=False)\nresponse.write(request.now.year)\nresponse.write(\'</div>\\n                <div id="poweredBy" class="pull-right">\\n                    \', escape=False)\nresponse.write(T(\'Powered by\'))\nresponse.write(\'\\n                    <a href="http://www.web2py.com/">web2py</a>\\n                </div>\\n                \', escape=False)\nresponse.write(\'\\n            </div>\\n        </footer>\\n    </div>\\n\\n  </div> <!-- /container -->\\n\\n  <!-- The javascript =============================================\\n       (Placed at the end of the document so the pages load faster) -->\\n  <script src="\', escape=False)\nresponse.write(URL(\'static\',\'js/bootstrap.min.js\'))\nresponse.write(\'"></script>\\n  <script src="\', escape=False)\nresponse.write(URL(\'static\',\'js/web2py_bootstrap.js\'))\nresponse.write(\'"></script>\\n  <!--[if lt IE 7 ]>\\n      <script src="\', escape=False)\nresponse.write(URL(\'static\',\'js/dd_belatedpng.js\'))\nresponse.write(\'"></script>\\n      <script> DD_belatedPNG.fix(\\\'img, .png_bg\\\'); //fix any <img> or .png_bg background-images </script>\\n      <![endif]-->\\n  \', escape=False)\nif response.google_analytics_id:\n    response.write(\'<script type="text/javascript"> var _gaq = _gaq || []; _gaq.push([\\\'_setAccount\\\', \\\'\', escape=False)\n    response.write(response.google_analytics_id)\n    response.write("\']); _gaq.push([\'_trackPageview\']); (function() { var ga = document.createElement(\'script\'); ga.type = \'text/javascript\'; ga.async = true; ga.src = (\'https:\' == document.location.protocol ? \'https://ssl\' : \'http://www\') + \'.google-analytics.com/ga.js\'; var s = document.getElementsByTagName(\'script\')[0]; s.parentNode.insertBefore(ga, s); })(); </script> ", escape=False)\n    pass\nresponse.write(\'\\n  <script src="\', escape=False)\nresponse.write(URL(\'static\',\'js/share.js\',vars=dict(static=URL(\'static\',\'images\'))))\nresponse.write(\'"></script>\\n</body>\\n</html>\\n\', escape=False)'
p7
sS'snapshot'
p8
(dp9
S'exception'
p10
(dp11
S'__getslice__'
p12
S"<method-wrapper '__getslice__' of exceptions.SyntaxError object>"
p13
sS'text'
p14
S"''"
p15
sS'__str__'
p16
S"<method-wrapper '__str__' of exceptions.SyntaxError object>"
p17
sS'__reduce__'
p18
S'<built-in method __reduce__ of exceptions.SyntaxError object>'
p19
sS'__dict__'
p20
S'{}'
p21
sS'__sizeof__'
p22
S'<built-in method __sizeof__ of exceptions.SyntaxError object>'
p23
sS'__init__'
p24
S"<method-wrapper '__init__' of exceptions.SyntaxError object>"
p25
sS'__setattr__'
p26
S"<method-wrapper '__setattr__' of exceptions.SyntaxError object>"
p27
sS'__reduce_ex__'
p28
S'<built-in method __reduce_ex__ of exceptions.SyntaxError object>'
p29
sS'__new__'
p30
S'<built-in method __new__ of type object>'
p31
sS'__format__'
p32
S'<built-in method __format__ of exceptions.SyntaxError object>'
p33
sS'__class__'
p34
S"<type 'exceptions.SyntaxError'>"
p35
sS'filename'
p36
S"'/home/wionel/Desktop/web2py/applications/music/views/default/index.html'"
p37
sS'lineno'
p38
S'125'
p39
sS'msg'
p40
S'"keyword can\'t be an expression"'
p41
sS'__doc__'
p42
S"'Invalid syntax.'"
p43
sS'__getitem__'
p44
S"<method-wrapper '__getitem__' of exceptions.SyntaxError object>"
p45
sS'__setstate__'
p46
S'<built-in method __setstate__ of exceptions.SyntaxError object>'
p47
sS'__getattribute__'
p48
S"<method-wrapper '__getattribute__' of exceptions.SyntaxError object>"
p49
sS'print_file_and_line'
p50
S'None'
p51
sS'args'
p52
S'("keyword can\'t be an expression", (\'/home/wionel/Desktop/web2py/applications/music/views/default/index.html\', 125, None, \'\'))'
p53
sS'__subclasshook__'
p54
S'<built-in method __subclasshook__ of type object>'
p55
sS'offset'
p56
S'None'
p57
sS'__unicode__'
p58
S'<built-in method __unicode__ of exceptions.SyntaxError object>'
p59
sS'__delattr__'
p60
S"<method-wrapper '__delattr__' of exceptions.SyntaxError object>"
p61
sS'__repr__'
p62
S"<method-wrapper '__repr__' of exceptions.SyntaxError object>"
p63
sS'__hash__'
p64
S"<method-wrapper '__hash__' of exceptions.SyntaxError object>"
p65
ssS'evalue'
p66
S"keyword can't be an expression (index.html, line 125)"
p67
sS'request'
p68
ccopy_reg
_reconstructor
p69
(cgluon.html
BEAUTIFY
p70
c__builtin__
object
p71
NtRp72
(dp73
S'attributes'
p74
(dp75
sS'components'
p76
(lp77
g69
(cgluon.html
TABLE
p78
g71
NtRp79
(dp80
g74
(dp81
S'level'
p82
I5
ssS'parent'
p83
Nsg76
(lp84
g69
(cgluon.html
TR
p85
g71
NtRp86
(dp87
g74
(dp88
sg83
g79
sg76
(lp89
g69
(cgluon.html
TD
p90
g71
NtRp91
(dp92
g74
(dp93
S'_style'
p94
S'font-weight:bold;vertical-align:top'
p95
ssg83
g86
sg76
(lp96
S'ajax'
p97
asbag69
(g90
g71
NtRp98
(dp99
g74
(dp100
S'_valign'
p101
S'top'
p102
ssg83
g86
sg76
(lp103
S':'
asbag69
(g90
g71
NtRp104
(dp105
g74
(dp106
sg83
g86
sg76
(lp107
g69
(g70
g71
NtRp108
(dp109
g74
(dp110
g82
I5
ssg83
g104
sg76
(lp111
S'False'
p112
asbasbasbag69
(g85
g71
NtRp113
(dp114
g74
(dp115
sg83
g79
sg76
(lp116
g69
(g90
g71
NtRp117
(dp118
g74
(dp119
g94
g95
ssg83
g113
sg76
(lp120
S'application'
p121
asbag69
(g90
g71
NtRp122
(dp123
g74
(dp124
g101
g102
ssg83
g113
sg76
(lp125
S':'
asbag69
(g90
g71
NtRp126
(dp127
g74
(dp128
sg83
g113
sg76
(lp129
g69
(g70
g71
NtRp130
(dp131
g74
(dp132
g82
I5
ssg83
g126
sg76
(lp133
S'music'
p134
asbasbasbag69
(g85
g71
NtRp135
(dp136
g74
(dp137
sg83
g79
sg76
(lp138
g69
(g90
g71
NtRp139
(dp140
g74
(dp141
g94
g95
ssg83
g135
sg76
(lp142
g52
asbag69
(g90
g71
NtRp143
(dp144
g74
(dp145
g101
g102
ssg83
g135
sg76
(lp146
S':'
asbag69
(g90
g71
NtRp147
(dp148
g74
(dp149
sg83
g135
sg76
(lp150
g69
(g70
g71
NtRp151
(dp152
g74
(dp153
g82
I5
ssg83
g147
sg76
(lp154
g69
(g78
g71
NtRp155
(dp156
g74
(dp157
g82
I4
ssg83
Nsg76
(lp158
sbasbasbasbag69
(g85
g71
NtRp159
(dp160
g74
(dp161
sg83
g79
sg76
(lp162
g69
(g90
g71
NtRp163
(dp164
g74
(dp165
g94
g95
ssg83
g159
sg76
(lp166
S'body'
p167
asbag69
(g90
g71
NtRp168
(dp169
g74
(dp170
g101
g102
ssg83
g159
sg76
(lp171
S':'
asbag69
(g90
g71
NtRp172
(dp173
g74
(dp174
sg83
g159
sg76
(lp175
g69
(g70
g71
NtRp176
(dp177
g74
(dp178
g82
I5
ssg83
g172
sg76
(lp179
S'<cStringIO.StringO object at 0x7f975c3323b0>'
p180
asbasbasbag69
(g85
g71
NtRp181
(dp182
g74
(dp183
sg83
g79
sg76
(lp184
g69
(g90
g71
NtRp185
(dp186
g74
(dp187
g94
g95
ssg83
g181
sg76
(lp188
S'cid'
p189
asbag69
(g90
g71
NtRp190
(dp191
g74
(dp192
g101
g102
ssg83
g181
sg76
(lp193
S':'
asbag69
(g90
g71
NtRp194
(dp195
g74
(dp196
sg83
g181
sg76
(lp197
g69
(g70
g71
NtRp198
(dp199
g74
(dp200
g82
I5
ssg83
g194
sg76
(lp201
S'None'
p202
asbasbasbag69
(g85
g71
NtRp203
(dp204
g74
(dp205
sg83
g79
sg76
(lp206
g69
(g90
g71
NtRp207
(dp208
g74
(dp209
g94
g95
ssg83
g203
sg76
(lp210
S'client'
p211
asbag69
(g90
g71
NtRp212
(dp213
g74
(dp214
g101
g102
ssg83
g203
sg76
(lp215
S':'
asbag69
(g90
g71
NtRp216
(dp217
g74
(dp218
sg83
g203
sg76
(lp219
g69
(g70
g71
NtRp220
(dp221
g74
(dp222
g82
I5
ssg83
g216
sg76
(lp223
S'127.0.0.1'
p224
asbasbasbag69
(g85
g71
NtRp225
(dp226
g74
(dp227
sg83
g79
sg76
(lp228
g69
(g90
g71
NtRp229
(dp230
g74
(dp231
g94
g95
ssg83
g225
sg76
(lp232
S'controller'
p233
asbag69
(g90
g71
NtRp234
(dp235
g74
(dp236
g101
g102
ssg83
g225
sg76
(lp237
S':'
asbag69
(g90
g71
NtRp238
(dp239
g74
(dp240
sg83
g225
sg76
(lp241
g69
(g70
g71
NtRp242
(dp243
g74
(dp244
g82
I5
ssg83
g238
sg76
(lp245
S'default'
p246
asbasbasbag69
(g85
g71
NtRp247
(dp248
g74
(dp249
sg83
g79
sg76
(lp250
g69
(g90
g71
NtRp251
(dp252
g74
(dp253
g94
g95
ssg83
g247
sg76
(lp254
S'cookies'
p255
asbag69
(g90
g71
NtRp256
(dp257
g74
(dp258
g101
g102
ssg83
g247
sg76
(lp259
S':'
asbag69
(g90
g71
NtRp260
(dp261
g74
(dp262
sg83
g247
sg76
(lp263
g69
(g70
g71
NtRp264
(dp265
g74
(dp266
g82
I5
ssg83
g260
sg76
(lp267
g69
(g78
g71
NtRp268
(dp269
g74
(dp270
g82
I4
ssg83
Nsg76
(lp271
g69
(g85
g71
NtRp272
(dp273
g74
(dp274
sg83
g268
sg76
(lp275
g69
(g90
g71
NtRp276
(dp277
g74
(dp278
g94
g95
ssg83
g272
sg76
(lp279
S'session_id_admin'
p280
asbag69
(g90
g71
NtRp281
(dp282
g74
(dp283
g101
g102
ssg83
g272
sg76
(lp284
S':'
asbag69
(g90
g71
NtRp285
(dp286
g74
(dp287
sg83
g272
sg76
(lp288
g69
(g70
g71
NtRp289
(dp290
g74
(dp291
g82
I4
ssg83
g285
sg76
(lp292
S'127.0.0.1-f7b12af6-399f-4a21-b062-348963822da1'
p293
ag69
(g78
g71
NtRp294
(dp295
g74
(dp296
g82
I3
ssg83
Nsg76
(lp297
g69
(g85
g71
NtRp298
(dp299
g74
(dp300
sg83
g294
sg76
(lp301
g69
(g90
g71
NtRp302
(dp303
g74
(dp304
g94
g95
ssg83
g298
sg76
(lp305
S'comment'
p306
asbag69
(g90
g71
NtRp307
(dp308
g74
(dp309
g101
g102
ssg83
g298
sg76
(lp310
S':'
asbag69
(g90
g71
NtRp311
(dp312
g74
(dp313
sg83
g298
sg76
(lp314
g69
(g70
g71
NtRp315
(dp316
g74
(dp317
g82
I3
ssg83
g311
sg76
(lp318
S''
asbasbasbag69
(g85
g71
NtRp319
(dp320
g74
(dp321
sg83
g294
sg76
(lp322
g69
(g90
g71
NtRp323
(dp324
g74
(dp325
g94
g95
ssg83
g319
sg76
(lp326
S'domain'
p327
asbag69
(g90
g71
NtRp328
(dp329
g74
(dp330
g101
g102
ssg83
g319
sg76
(lp331
S':'
asbag69
(g90
g71
NtRp332
(dp333
g74
(dp334
sg83
g319
sg76
(lp335
g69
(g70
g71
NtRp336
(dp337
g74
(dp338
g82
I3
ssg83
g332
sg76
(lp339
S''
asbasbasbag69
(g85
g71
NtRp340
(dp341
g74
(dp342
sg83
g294
sg76
(lp343
g69
(g90
g71
NtRp344
(dp345
g74
(dp346
g94
g95
ssg83
g340
sg76
(lp347
S'expires'
p348
asbag69
(g90
g71
NtRp349
(dp350
g74
(dp351
g101
g102
ssg83
g340
sg76
(lp352
S':'
asbag69
(g90
g71
NtRp353
(dp354
g74
(dp355
sg83
g340
sg76
(lp356
g69
(g70
g71
NtRp357
(dp358
g74
(dp359
g82
I3
ssg83
g353
sg76
(lp360
S''
asbasbasbag69
(g85
g71
NtRp361
(dp362
g74
(dp363
sg83
g294
sg76
(lp364
g69
(g90
g71
NtRp365
(dp366
g74
(dp367
g94
g95
ssg83
g361
sg76
(lp368
S'httponly'
p369
asbag69
(g90
g71
NtRp370
(dp371
g74
(dp372
g101
g102
ssg83
g361
sg76
(lp373
S':'
asbag69
(g90
g71
NtRp374
(dp375
g74
(dp376
sg83
g361
sg76
(lp377
g69
(g70
g71
NtRp378
(dp379
g74
(dp380
g82
I3
ssg83
g374
sg76
(lp381
S''
asbasbasbag69
(g85
g71
NtRp382
(dp383
g74
(dp384
sg83
g294
sg76
(lp385
g69
(g90
g71
NtRp386
(dp387
g74
(dp388
g94
g95
ssg83
g382
sg76
(lp389
S'max-age'
p390
asbag69
(g90
g71
NtRp391
(dp392
g74
(dp393
g101
g102
ssg83
g382
sg76
(lp394
S':'
asbag69
(g90
g71
NtRp395
(dp396
g74
(dp397
sg83
g382
sg76
(lp398
g69
(g70
g71
NtRp399
(dp400
g74
(dp401
g82
I3
ssg83
g395
sg76
(lp402
S''
asbasbasbag69
(g85
g71
NtRp403
(dp404
g74
(dp405
sg83
g294
sg76
(lp406
g69
(g90
g71
NtRp407
(dp408
g74
(dp409
g94
g95
ssg83
g403
sg76
(lp410
S'path'
p411
asbag69
(g90
g71
NtRp412
(dp413
g74
(dp414
g101
g102
ssg83
g403
sg76
(lp415
S':'
asbag69
(g90
g71
NtRp416
(dp417
g74
(dp418
sg83
g403
sg76
(lp419
g69
(g70
g71
NtRp420
(dp421
g74
(dp422
g82
I3
ssg83
g416
sg76
(lp423
S''
asbasbasbag69
(g85
g71
NtRp424
(dp425
g74
(dp426
sg83
g294
sg76
(lp427
g69
(g90
g71
NtRp428
(dp429
g74
(dp430
g94
g95
ssg83
g424
sg76
(lp431
S'secure'
p432
asbag69
(g90
g71
NtRp433
(dp434
g74
(dp435
g101
g102
ssg83
g424
sg76
(lp436
S':'
asbag69
(g90
g71
NtRp437
(dp438
g74
(dp439
sg83
g424
sg76
(lp440
g69
(g70
g71
NtRp441
(dp442
g74
(dp443
g82
I3
ssg83
g437
sg76
(lp444
S''
asbasbasbag69
(g85
g71
NtRp445
(dp446
g74
(dp447
sg83
g294
sg76
(lp448
g69
(g90
g71
NtRp449
(dp450
g74
(dp451
g94
g95
ssg83
g445
sg76
(lp452
S'version'
p453
asbag69
(g90
g71
NtRp454
(dp455
g74
(dp456
g101
g102
ssg83
g445
sg76
(lp457
S':'
asbag69
(g90
g71
NtRp458
(dp459
g74
(dp460
sg83
g445
sg76
(lp461
g69
(g70
g71
NtRp462
(dp463
g74
(dp464
g82
I3
ssg83
g458
sg76
(lp465
S''
asbasbasbasbasbasbasbag69
(g85
g71
NtRp466
(dp467
g74
(dp468
sg83
g268
sg76
(lp469
g69
(g90
g71
NtRp470
(dp471
g74
(dp472
g94
g95
ssg83
g466
sg76
(lp473
S'session_id_music'
p474
asbag69
(g90
g71
NtRp475
(dp476
g74
(dp477
g101
g102
ssg83
g466
sg76
(lp478
S':'
asbag69
(g90
g71
NtRp479
(dp480
g74
(dp481
sg83
g466
sg76
(lp482
g69
(g70
g71
NtRp483
(dp484
g74
(dp485
g82
I4
ssg83
g479
sg76
(lp486
S'127.0.0.1-a6c98d34-e136-48f9-b717-d7c43867d2b1'
p487
ag69
(g78
g71
NtRp488
(dp489
g74
(dp490
g82
I3
ssg83
Nsg76
(lp491
g69
(g85
g71
NtRp492
(dp493
g74
(dp494
sg83
g488
sg76
(lp495
g69
(g90
g71
NtRp496
(dp497
g74
(dp498
g94
g95
ssg83
g492
sg76
(lp499
g306
asbag69
(g90
g71
NtRp500
(dp501
g74
(dp502
g101
g102
ssg83
g492
sg76
(lp503
S':'
asbag69
(g90
g71
NtRp504
(dp505
g74
(dp506
sg83
g492
sg76
(lp507
g69
(g70
g71
NtRp508
(dp509
g74
(dp510
g82
I3
ssg83
g504
sg76
(lp511
S''
asbasbasbag69
(g85
g71
NtRp512
(dp513
g74
(dp514
sg83
g488
sg76
(lp515
g69
(g90
g71
NtRp516
(dp517
g74
(dp518
g94
g95
ssg83
g512
sg76
(lp519
g327
asbag69
(g90
g71
NtRp520
(dp521
g74
(dp522
g101
g102
ssg83
g512
sg76
(lp523
S':'
asbag69
(g90
g71
NtRp524
(dp525
g74
(dp526
sg83
g512
sg76
(lp527
g69
(g70
g71
NtRp528
(dp529
g74
(dp530
g82
I3
ssg83
g524
sg76
(lp531
S''
asbasbasbag69
(g85
g71
NtRp532
(dp533
g74
(dp534
sg83
g488
sg76
(lp535
g69
(g90
g71
NtRp536
(dp537
g74
(dp538
g94
g95
ssg83
g532
sg76
(lp539
g348
asbag69
(g90
g71
NtRp540
(dp541
g74
(dp542
g101
g102
ssg83
g532
sg76
(lp543
S':'
asbag69
(g90
g71
NtRp544
(dp545
g74
(dp546
sg83
g532
sg76
(lp547
g69
(g70
g71
NtRp548
(dp549
g74
(dp550
g82
I3
ssg83
g544
sg76
(lp551
S''
asbasbasbag69
(g85
g71
NtRp552
(dp553
g74
(dp554
sg83
g488
sg76
(lp555
g69
(g90
g71
NtRp556
(dp557
g74
(dp558
g94
g95
ssg83
g552
sg76
(lp559
g369
asbag69
(g90
g71
NtRp560
(dp561
g74
(dp562
g101
g102
ssg83
g552
sg76
(lp563
S':'
asbag69
(g90
g71
NtRp564
(dp565
g74
(dp566
sg83
g552
sg76
(lp567
g69
(g70
g71
NtRp568
(dp569
g74
(dp570
g82
I3
ssg83
g564
sg76
(lp571
S''
asbasbasbag69
(g85
g71
NtRp572
(dp573
g74
(dp574
sg83
g488
sg76
(lp575
g69
(g90
g71
NtRp576
(dp577
g74
(dp578
g94
g95
ssg83
g572
sg76
(lp579
g390
asbag69
(g90
g71
NtRp580
(dp581
g74
(dp582
g101
g102
ssg83
g572
sg76
(lp583
S':'
asbag69
(g90
g71
NtRp584
(dp585
g74
(dp586
sg83
g572
sg76
(lp587
g69
(g70
g71
NtRp588
(dp589
g74
(dp590
g82
I3
ssg83
g584
sg76
(lp591
S''
asbasbasbag69
(g85
g71
NtRp592
(dp593
g74
(dp594
sg83
g488
sg76
(lp595
g69
(g90
g71
NtRp596
(dp597
g74
(dp598
g94
g95
ssg83
g592
sg76
(lp599
g411
asbag69
(g90
g71
NtRp600
(dp601
g74
(dp602
g101
g102
ssg83
g592
sg76
(lp603
S':'
asbag69
(g90
g71
NtRp604
(dp605
g74
(dp606
sg83
g592
sg76
(lp607
g69
(g70
g71
NtRp608
(dp609
g74
(dp610
g82
I3
ssg83
g604
sg76
(lp611
S''
asbasbasbag69
(g85
g71
NtRp612
(dp613
g74
(dp614
sg83
g488
sg76
(lp615
g69
(g90
g71
NtRp616
(dp617
g74
(dp618
g94
g95
ssg83
g612
sg76
(lp619
g432
asbag69
(g90
g71
NtRp620
(dp621
g74
(dp622
g101
g102
ssg83
g612
sg76
(lp623
S':'
asbag69
(g90
g71
NtRp624
(dp625
g74
(dp626
sg83
g612
sg76
(lp627
g69
(g70
g71
NtRp628
(dp629
g74
(dp630
g82
I3
ssg83
g624
sg76
(lp631
S''
asbasbasbag69
(g85
g71
NtRp632
(dp633
g74
(dp634
sg83
g488
sg76
(lp635
g69
(g90
g71
NtRp636
(dp637
g74
(dp638
g94
g95
ssg83
g632
sg76
(lp639
g453
asbag69
(g90
g71
NtRp640
(dp641
g74
(dp642
g101
g102
ssg83
g632
sg76
(lp643
S':'
asbag69
(g90
g71
NtRp644
(dp645
g74
(dp646
sg83
g632
sg76
(lp647
g69
(g70
g71
NtRp648
(dp649
g74
(dp650
g82
I3
ssg83
g644
sg76
(lp651
S''
asbasbasbasbasbasbasbag69
(g85
g71
NtRp652
(dp653
g74
(dp654
sg83
g268
sg76
(lp655
g69
(g90
g71
NtRp656
(dp657
g74
(dp658
g94
g95
ssg83
g652
sg76
(lp659
S'session_id_welcome'
p660
asbag69
(g90
g71
NtRp661
(dp662
g74
(dp663
g101
g102
ssg83
g652
sg76
(lp664
S':'
asbag69
(g90
g71
NtRp665
(dp666
g74
(dp667
sg83
g652
sg76
(lp668
g69
(g70
g71
NtRp669
(dp670
g74
(dp671
g82
I4
ssg83
g665
sg76
(lp672
S'127.0.0.1-52a3271c-c9d4-4b2f-8141-ae52a648c9d6'
p673
ag69
(g78
g71
NtRp674
(dp675
g74
(dp676
g82
I3
ssg83
Nsg76
(lp677
g69
(g85
g71
NtRp678
(dp679
g74
(dp680
sg83
g674
sg76
(lp681
g69
(g90
g71
NtRp682
(dp683
g74
(dp684
g94
g95
ssg83
g678
sg76
(lp685
g306
asbag69
(g90
g71
NtRp686
(dp687
g74
(dp688
g101
g102
ssg83
g678
sg76
(lp689
S':'
asbag69
(g90
g71
NtRp690
(dp691
g74
(dp692
sg83
g678
sg76
(lp693
g69
(g70
g71
NtRp694
(dp695
g74
(dp696
g82
I3
ssg83
g690
sg76
(lp697
S''
asbasbasbag69
(g85
g71
NtRp698
(dp699
g74
(dp700
sg83
g674
sg76
(lp701
g69
(g90
g71
NtRp702
(dp703
g74
(dp704
g94
g95
ssg83
g698
sg76
(lp705
g327
asbag69
(g90
g71
NtRp706
(dp707
g74
(dp708
g101
g102
ssg83
g698
sg76
(lp709
S':'
asbag69
(g90
g71
NtRp710
(dp711
g74
(dp712
sg83
g698
sg76
(lp713
g69
(g70
g71
NtRp714
(dp715
g74
(dp716
g82
I3
ssg83
g710
sg76
(lp717
S''
asbasbasbag69
(g85
g71
NtRp718
(dp719
g74
(dp720
sg83
g674
sg76
(lp721
g69
(g90
g71
NtRp722
(dp723
g74
(dp724
g94
g95
ssg83
g718
sg76
(lp725
g348
asbag69
(g90
g71
NtRp726
(dp727
g74
(dp728
g101
g102
ssg83
g718
sg76
(lp729
S':'
asbag69
(g90
g71
NtRp730
(dp731
g74
(dp732
sg83
g718
sg76
(lp733
g69
(g70
g71
NtRp734
(dp735
g74
(dp736
g82
I3
ssg83
g730
sg76
(lp737
S''
asbasbasbag69
(g85
g71
NtRp738
(dp739
g74
(dp740
sg83
g674
sg76
(lp741
g69
(g90
g71
NtRp742
(dp743
g74
(dp744
g94
g95
ssg83
g738
sg76
(lp745
g369
asbag69
(g90
g71
NtRp746
(dp747
g74
(dp748
g101
g102
ssg83
g738
sg76
(lp749
S':'
asbag69
(g90
g71
NtRp750
(dp751
g74
(dp752
sg83
g738
sg76
(lp753
g69
(g70
g71
NtRp754
(dp755
g74
(dp756
g82
I3
ssg83
g750
sg76
(lp757
S''
asbasbasbag69
(g85
g71
NtRp758
(dp759
g74
(dp760
sg83
g674
sg76
(lp761
g69
(g90
g71
NtRp762
(dp763
g74
(dp764
g94
g95
ssg83
g758
sg76
(lp765
g390
asbag69
(g90
g71
NtRp766
(dp767
g74
(dp768
g101
g102
ssg83
g758
sg76
(lp769
S':'
asbag69
(g90
g71
NtRp770
(dp771
g74
(dp772
sg83
g758
sg76
(lp773
g69
(g70
g71
NtRp774
(dp775
g74
(dp776
g82
I3
ssg83
g770
sg76
(lp777
S''
asbasbasbag69
(g85
g71
NtRp778
(dp779
g74
(dp780
sg83
g674
sg76
(lp781
g69
(g90
g71
NtRp782
(dp783
g74
(dp784
g94
g95
ssg83
g778
sg76
(lp785
g411
asbag69
(g90
g71
NtRp786
(dp787
g74
(dp788
g101
g102
ssg83
g778
sg76
(lp789
S':'
asbag69
(g90
g71
NtRp790
(dp791
g74
(dp792
sg83
g778
sg76
(lp793
g69
(g70
g71
NtRp794
(dp795
g74
(dp796
g82
I3
ssg83
g790
sg76
(lp797
S''
asbasbasbag69
(g85
g71
NtRp798
(dp799
g74
(dp800
sg83
g674
sg76
(lp801
g69
(g90
g71
NtRp802
(dp803
g74
(dp804
g94
g95
ssg83
g798
sg76
(lp805
g432
asbag69
(g90
g71
NtRp806
(dp807
g74
(dp808
g101
g102
ssg83
g798
sg76
(lp809
S':'
asbag69
(g90
g71
NtRp810
(dp811
g74
(dp812
sg83
g798
sg76
(lp813
g69
(g70
g71
NtRp814
(dp815
g74
(dp816
g82
I3
ssg83
g810
sg76
(lp817
S''
asbasbasbag69
(g85
g71
NtRp818
(dp819
g74
(dp820
sg83
g674
sg76
(lp821
g69
(g90
g71
NtRp822
(dp823
g74
(dp824
g94
g95
ssg83
g818
sg76
(lp825
g453
asbag69
(g90
g71
NtRp826
(dp827
g74
(dp828
g101
g102
ssg83
g818
sg76
(lp829
S':'
asbag69
(g90
g71
NtRp830
(dp831
g74
(dp832
sg83
g818
sg76
(lp833
g69
(g70
g71
NtRp834
(dp835
g74
(dp836
g82
I3
ssg83
g830
sg76
(lp837
S''
asbasbasbasbasbasbasbasbasbasbasbag69
(g85
g71
NtRp838
(dp839
g74
(dp840
sg83
g79
sg76
(lp841
g69
(g90
g71
NtRp842
(dp843
g74
(dp844
g94
g95
ssg83
g838
sg76
(lp845
S'env'
p846
asbag69
(g90
g71
NtRp847
(dp848
g74
(dp849
g101
g102
ssg83
g838
sg76
(lp850
S':'
asbag69
(g90
g71
NtRp851
(dp852
g74
(dp853
sg83
g838
sg76
(lp854
g69
(g70
g71
NtRp855
(dp856
g74
(dp857
g82
I5
ssg83
g851
sg76
(lp858
g69
(g78
g71
NtRp859
(dp860
g74
(dp861
g82
I4
ssg83
Nsg76
(lp862
g69
(g85
g71
NtRp863
(dp864
g74
(dp865
sg83
g859
sg76
(lp866
g69
(g90
g71
NtRp867
(dp868
g74
(dp869
g94
g95
ssg83
g863
sg76
(lp870
S'app_folders'
p871
asbag69
(g90
g71
NtRp872
(dp873
g74
(dp874
g101
g102
ssg83
g863
sg76
(lp875
S':'
asbag69
(g90
g71
NtRp876
(dp877
g74
(dp878
sg83
g863
sg76
(lp879
g69
(g70
g71
NtRp880
(dp881
g74
(dp882
g82
I4
ssg83
g876
sg76
(lp883
S"set(['/home/wionel/Desktop/web2py/applications/admin/', '/home/wionel/Desktop/web2py/applications/welcome/', '/home/wionel/Desktop/web2py/applications/music/'])"
p884
asbasbasbag69
(g85
g71
NtRp885
(dp886
g74
(dp887
sg83
g859
sg76
(lp888
g69
(g90
g71
NtRp889
(dp890
g74
(dp891
g94
g95
ssg83
g885
sg76
(lp892
S'applications_parent'
p893
asbag69
(g90
g71
NtRp894
(dp895
g74
(dp896
g101
g102
ssg83
g885
sg76
(lp897
S':'
asbag69
(g90
g71
NtRp898
(dp899
g74
(dp900
sg83
g885
sg76
(lp901
g69
(g70
g71
NtRp902
(dp903
g74
(dp904
g82
I4
ssg83
g898
sg76
(lp905
S'/home/wionel/Desktop/web2py'
p906
asbasbasbag69
(g85
g71
NtRp907
(dp908
g74
(dp909
sg83
g859
sg76
(lp910
g69
(g90
g71
NtRp911
(dp912
g74
(dp913
g94
g95
ssg83
g907
sg76
(lp914
S'cmd_args'
p915
asbag69
(g90
g71
NtRp916
(dp917
g74
(dp918
g101
g102
ssg83
g907
sg76
(lp919
S':'
asbag69
(g90
g71
NtRp920
(dp921
g74
(dp922
sg83
g907
sg76
(lp923
g69
(g70
g71
NtRp924
(dp925
g74
(dp926
g82
I4
ssg83
g920
sg76
(lp927
g69
(g78
g71
NtRp928
(dp929
g74
(dp930
g82
I3
ssg83
Nsg76
(lp931
sbasbasbasbag69
(g85
g71
NtRp932
(dp933
g74
(dp934
sg83
g859
sg76
(lp935
g69
(g90
g71
NtRp936
(dp937
g74
(dp938
g94
g95
ssg83
g932
sg76
(lp939
S'cmd_options'
p940
asbag69
(g90
g71
NtRp941
(dp942
g74
(dp943
g101
g102
ssg83
g932
sg76
(lp944
S':'
asbag69
(g90
g71
NtRp945
(dp946
g74
(dp947
sg83
g932
sg76
(lp948
g69
(g70
g71
NtRp949
(dp950
g74
(dp951
g82
I4
ssg83
g945
sg76
(lp952
S"<Values at 0x1b69488: {'verbose': False, 'ip': '127.0.0.1', 'with_scheduler': False, 'ips': ['127.0.1.1'], 'shutdown_timeout': 5, 'taskbar': False, 'port': 8000, 'maxthreads': None, 'softcron': False, 'server_name': 'Rohan', 'bpython': False, 'nogui': False, 'pid_filename': 'httpserver.pid', 'extcron': False, 'runcron': False, 'run_system_tests': False, 'test': None, 'folder': '/home/wionel/Desktop/web2py', 'config': '', 'minthreads': None, 'winservice': '', 'shell': None, 'run': '', 'log_filename': 'httpserver.log', 'debuglevel': 30, 'args': [''], 'socket_timeout': 5, 'ssl_ca_certificate': None, 'scheduler': None, 'profiler_filename': None, 'ssl_private_key': '', 'scheduler_groups': None, 'password': '<ask>', 'request_queue_size': 5, 'ssl_certificate': '', 'cronjob': False, 'numthreads': None, 'quiet': False, 'interfaces': None, 'import_models': False, 'timeout': 10, 'plain': False, 'nobanner': False}>"
p953
asbasbasbag69
(g85
g71
NtRp954
(dp955
g74
(dp956
sg83
g859
sg76
(lp957
g69
(g90
g71
NtRp958
(dp959
g74
(dp960
g94
g95
ssg83
g954
sg76
(lp961
S'db_sessions'
p962
asbag69
(g90
g71
NtRp963
(dp964
g74
(dp965
g101
g102
ssg83
g954
sg76
(lp966
S':'
asbag69
(g90
g71
NtRp967
(dp968
g74
(dp969
sg83
g954
sg76
(lp970
g69
(g70
g71
NtRp971
(dp972
g74
(dp973
g82
I4
ssg83
g967
sg76
(lp974
S'set([])'
p975
asbasbasbag69
(g85
g71
NtRp976
(dp977
g74
(dp978
sg83
g859
sg76
(lp979
g69
(g90
g71
NtRp980
(dp981
g74
(dp982
g94
g95
ssg83
g976
sg76
(lp983
S'debugging'
p984
asbag69
(g90
g71
NtRp985
(dp986
g74
(dp987
g101
g102
ssg83
g976
sg76
(lp988
S':'
asbag69
(g90
g71
NtRp989
(dp990
g74
(dp991
sg83
g976
sg76
(lp992
g69
(g70
g71
NtRp993
(dp994
g74
(dp995
g82
I4
ssg83
g989
sg76
(lp996
g112
asbasbasbag69
(g85
g71
NtRp997
(dp998
g74
(dp999
sg83
g859
sg76
(lp1000
g69
(g90
g71
NtRp1001
(dp1002
g74
(dp1003
g94
g95
ssg83
g997
sg76
(lp1004
S'gluon_parent'
p1005
asbag69
(g90
g71
NtRp1006
(dp1007
g74
(dp1008
g101
g102
ssg83
g997
sg76
(lp1009
S':'
asbag69
(g90
g71
NtRp1010
(dp1011
g74
(dp1012
sg83
g997
sg76
(lp1013
g69
(g70
g71
NtRp1014
(dp1015
g74
(dp1016
g82
I4
ssg83
g1010
sg76
(lp1017
S'/home/wionel/Desktop/web2py'
p1018
asbasbasbag69
(g85
g71
NtRp1019
(dp1020
g74
(dp1021
sg83
g859
sg76
(lp1022
g69
(g90
g71
NtRp1023
(dp1024
g74
(dp1025
g94
g95
ssg83
g1019
sg76
(lp1026
S'http_accept'
p1027
asbag69
(g90
g71
NtRp1028
(dp1029
g74
(dp1030
g101
g102
ssg83
g1019
sg76
(lp1031
S':'
asbag69
(g90
g71
NtRp1032
(dp1033
g74
(dp1034
sg83
g1019
sg76
(lp1035
g69
(g70
g71
NtRp1036
(dp1037
g74
(dp1038
g82
I4
ssg83
g1032
sg76
(lp1039
S'text/html,application/xhtml+xml,application/xml;q=0.9,*/*;q=0.8'
p1040
asbasbasbag69
(g85
g71
NtRp1041
(dp1042
g74
(dp1043
sg83
g859
sg76
(lp1044
g69
(g90
g71
NtRp1045
(dp1046
g74
(dp1047
g94
g95
ssg83
g1041
sg76
(lp1048
S'http_accept_charset'
p1049
asbag69
(g90
g71
NtRp1050
(dp1051
g74
(dp1052
g101
g102
ssg83
g1041
sg76
(lp1053
S':'
asbag69
(g90
g71
NtRp1054
(dp1055
g74
(dp1056
sg83
g1041
sg76
(lp1057
g69
(g70
g71
NtRp1058
(dp1059
g74
(dp1060
g82
I4
ssg83
g1054
sg76
(lp1061
S'ISO-8859-1,utf-8;q=0.7,*;q=0.3'
p1062
asbasbasbag69
(g85
g71
NtRp1063
(dp1064
g74
(dp1065
sg83
g859
sg76
(lp1066
g69
(g90
g71
NtRp1067
(dp1068
g74
(dp1069
g94
g95
ssg83
g1063
sg76
(lp1070
S'http_accept_encoding'
p1071
asbag69
(g90
g71
NtRp1072
(dp1073
g74
(dp1074
g101
g102
ssg83
g1063
sg76
(lp1075
S':'
asbag69
(g90
g71
NtRp1076
(dp1077
g74
(dp1078
sg83
g1063
sg76
(lp1079
g69
(g70
g71
NtRp1080
(dp1081
g74
(dp1082
g82
I4
ssg83
g1076
sg76
(lp1083
S'gzip,deflate,sdch'
p1084
asbasbasbag69
(g85
g71
NtRp1085
(dp1086
g74
(dp1087
sg83
g859
sg76
(lp1088
g69
(g90
g71
NtRp1089
(dp1090
g74
(dp1091
g94
g95
ssg83
g1085
sg76
(lp1092
S'http_accept_language'
p1093
asbag69
(g90
g71
NtRp1094
(dp1095
g74
(dp1096
g101
g102
ssg83
g1085
sg76
(lp1097
S':'
asbag69
(g90
g71
NtRp1098
(dp1099
g74
(dp1100
sg83
g1085
sg76
(lp1101
g69
(g70
g71
NtRp1102
(dp1103
g74
(dp1104
g82
I4
ssg83
g1098
sg76
(lp1105
S'en-US,en;q=0.8'
p1106
asbasbasbag69
(g85
g71
NtRp1107
(dp1108
g74
(dp1109
sg83
g859
sg76
(lp1110
g69
(g90
g71
NtRp1111
(dp1112
g74
(dp1113
g94
g95
ssg83
g1107
sg76
(lp1114
S'http_cache_control'
p1115
asbag69
(g90
g71
NtRp1116
(dp1117
g74
(dp1118
g101
g102
ssg83
g1107
sg76
(lp1119
S':'
asbag69
(g90
g71
NtRp1120
(dp1121
g74
(dp1122
sg83
g1107
sg76
(lp1123
g69
(g70
g71
NtRp1124
(dp1125
g74
(dp1126
g82
I4
ssg83
g1120
sg76
(lp1127
S'max-age=0'
p1128
asbasbasbag69
(g85
g71
NtRp1129
(dp1130
g74
(dp1131
sg83
g859
sg76
(lp1132
g69
(g90
g71
NtRp1133
(dp1134
g74
(dp1135
g94
g95
ssg83
g1129
sg76
(lp1136
S'http_connection'
p1137
asbag69
(g90
g71
NtRp1138
(dp1139
g74
(dp1140
g101
g102
ssg83
g1129
sg76
(lp1141
S':'
asbag69
(g90
g71
NtRp1142
(dp1143
g74
(dp1144
sg83
g1129
sg76
(lp1145
g69
(g70
g71
NtRp1146
(dp1147
g74
(dp1148
g82
I4
ssg83
g1142
sg76
(lp1149
S'keep-alive'
p1150
asbasbasbag69
(g85
g71
NtRp1151
(dp1152
g74
(dp1153
sg83
g859
sg76
(lp1154
g69
(g90
g71
NtRp1155
(dp1156
g74
(dp1157
g94
g95
ssg83
g1151
sg76
(lp1158
S'http_cookie'
p1159
asbag69
(g90
g71
NtRp1160
(dp1161
g74
(dp1162
g101
g102
ssg83
g1151
sg76
(lp1163
S':'
asbag69
(g90
g71
NtRp1164
(dp1165
g74
(dp1166
sg83
g1151
sg76
(lp1167
g69
(g70
g71
NtRp1168
(dp1169
g74
(dp1170
g82
I4
ssg83
g1164
sg76
(lp1171
S'session_id_welcome=127.0.0.1-52a3271c-c9d4-4b2f-8141-ae52a648c9d6; session_id_music=127.0.0.1-a6c98d34-e136-48f9-b717-d7c43867d2b1; session_id_admin=127.0.0.1-f7b12af6-399f-4a21-b062-348963822da1'
p1172
asbasbasbag69
(g85
g71
NtRp1173
(dp1174
g74
(dp1175
sg83
g859
sg76
(lp1176
g69
(g90
g71
NtRp1177
(dp1178
g74
(dp1179
g94
g95
ssg83
g1173
sg76
(lp1180
S'http_host'
p1181
asbag69
(g90
g71
NtRp1182
(dp1183
g74
(dp1184
g101
g102
ssg83
g1173
sg76
(lp1185
S':'
asbag69
(g90
g71
NtRp1186
(dp1187
g74
(dp1188
sg83
g1173
sg76
(lp1189
g69
(g70
g71
NtRp1190
(dp1191
g74
(dp1192
g82
I4
ssg83
g1186
sg76
(lp1193
S'127.0.0.1:8000'
p1194
asbasbasbag69
(g85
g71
NtRp1195
(dp1196
g74
(dp1197
sg83
g859
sg76
(lp1198
g69
(g90
g71
NtRp1199
(dp1200
g74
(dp1201
g94
g95
ssg83
g1195
sg76
(lp1202
S'http_referer'
p1203
asbag69
(g90
g71
NtRp1204
(dp1205
g74
(dp1206
g101
g102
ssg83
g1195
sg76
(lp1207
S':'
asbag69
(g90
g71
NtRp1208
(dp1209
g74
(dp1210
sg83
g1195
sg76
(lp1211
g69
(g70
g71
NtRp1212
(dp1213
g74
(dp1214
g82
I4
ssg83
g1208
sg76
(lp1215
S'http://127.0.0.1:8000/music/default/playlist'
p1216
asbasbasbag69
(g85
g71
NtRp1217
(dp1218
g74
(dp1219
sg83
g859
sg76
(lp1220
g69
(g90
g71
NtRp1221
(dp1222
g74
(dp1223
g94
g95
ssg83
g1217
sg76
(lp1224
S'http_user_agent'
p1225
asbag69
(g90
g71
NtRp1226
(dp1227
g74
(dp1228
g101
g102
ssg83
g1217
sg76
(lp1229
S':'
asbag69
(g90
g71
NtRp1230
(dp1231
g74
(dp1232
sg83
g1217
sg76
(lp1233
g69
(g70
g71
NtRp1234
(dp1235
g74
(dp1236
g82
I4
ssg83
g1230
sg76
(lp1237
S'Mozilla/5.0 (X11; Linux x86_64) AppleWebKit/537.4 (KHTML, like Gecko) Chrome/22.0.1229.92 Safari/537.4'
p1238
asbasbasbag69
(g85
g71
NtRp1239
(dp1240
g74
(dp1241
sg83
g859
sg76
(lp1242
g69
(g90
g71
NtRp1243
(dp1244
g74
(dp1245
g94
g95
ssg83
g1239
sg76
(lp1246
S'is_jython'
p1247
asbag69
(g90
g71
NtRp1248
(dp1249
g74
(dp1250
g101
g102
ssg83
g1239
sg76
(lp1251
S':'
asbag69
(g90
g71
NtRp1252
(dp1253
g74
(dp1254
sg83
g1239
sg76
(lp1255
g69
(g70
g71
NtRp1256
(dp1257
g74
(dp1258
g82
I4
ssg83
g1252
sg76
(lp1259
g112
asbasbasbag69
(g85
g71
NtRp1260
(dp1261
g74
(dp1262
sg83
g859
sg76
(lp1263
g69
(g90
g71
NtRp1264
(dp1265
g74
(dp1266
g94
g95
ssg83
g1260
sg76
(lp1267
S'is_pypy'
p1268
asbag69
(g90
g71
NtRp1269
(dp1270
g74
(dp1271
g101
g102
ssg83
g1260
sg76
(lp1272
S':'
asbag69
(g90
g71
NtRp1273
(dp1274
g74
(dp1275
sg83
g1260
sg76
(lp1276
g69
(g70
g71
NtRp1277
(dp1278
g74
(dp1279
g82
I4
ssg83
g1273
sg76
(lp1280
g112
asbasbasbag69
(g85
g71
NtRp1281
(dp1282
g74
(dp1283
sg83
g859
sg76
(lp1284
g69
(g90
g71
NtRp1285
(dp1286
g74
(dp1287
g94
g95
ssg83
g1281
sg76
(lp1288
S'local_hosts'
p1289
asbag69
(g90
g71
NtRp1290
(dp1291
g74
(dp1292
g101
g102
ssg83
g1281
sg76
(lp1293
S':'
asbag69
(g90
g71
NtRp1294
(dp1295
g74
(dp1296
sg83
g1281
sg76
(lp1297
g69
(g70
g71
NtRp1298
(dp1299
g74
(dp1300
g82
I4
ssg83
g1294
sg76
(lp1301
g69
(g78
g71
NtRp1302
(dp1303
g74
(dp1304
g82
I3
ssg83
Nsg76
(lp1305
g69
(g85
g71
NtRp1306
(dp1307
g74
(dp1308
sg83
g1302
sg76
(lp1309
g69
(g90
g71
NtRp1310
(dp1311
g74
(dp1312
sg83
g1306
sg76
(lp1313
g69
(g70
g71
NtRp1314
(dp1315
g74
(dp1316
g82
I3
ssg83
g1310
sg76
(lp1317
S'127.0.0.1'
p1318
asbasbasbag69
(g85
g71
NtRp1319
(dp1320
g74
(dp1321
sg83
g1302
sg76
(lp1322
g69
(g90
g71
NtRp1323
(dp1324
g74
(dp1325
sg83
g1319
sg76
(lp1326
g69
(g70
g71
NtRp1327
(dp1328
g74
(dp1329
g82
I3
ssg83
g1323
sg76
(lp1330
S'::ffff:127.0.0.1'
p1331
asbasbasbag69
(g85
g71
NtRp1332
(dp1333
g74
(dp1334
sg83
g1302
sg76
(lp1335
g69
(g90
g71
NtRp1336
(dp1337
g74
(dp1338
sg83
g1332
sg76
(lp1339
g69
(g70
g71
NtRp1340
(dp1341
g74
(dp1342
g82
I3
ssg83
g1336
sg76
(lp1343
S'Rohan'
p1344
asbasbasbag69
(g85
g71
NtRp1345
(dp1346
g74
(dp1347
sg83
g1302
sg76
(lp1348
g69
(g90
g71
NtRp1349
(dp1350
g74
(dp1351
sg83
g1345
sg76
(lp1352
g69
(g70
g71
NtRp1353
(dp1354
g74
(dp1355
g82
I3
ssg83
g1349
sg76
(lp1356
S'Rohan'
p1357
asbasbasbag69
(g85
g71
NtRp1358
(dp1359
g74
(dp1360
sg83
g1302
sg76
(lp1361
g69
(g90
g71
NtRp1362
(dp1363
g74
(dp1364
sg83
g1358
sg76
(lp1365
g69
(g70
g71
NtRp1366
(dp1367
g74
(dp1368
g82
I3
ssg83
g1362
sg76
(lp1369
S'127.0.1.1'
p1370
asbasbasbasbasbasbasbag69
(g85
g71
NtRp1371
(dp1372
g74
(dp1373
sg83
g859
sg76
(lp1374
g69
(g90
g71
NtRp1375
(dp1376
g74
(dp1377
g94
g95
ssg83
g1371
sg76
(lp1378
S'path_info'
p1379
asbag69
(g90
g71
NtRp1380
(dp1381
g74
(dp1382
g101
g102
ssg83
g1371
sg76
(lp1383
S':'
asbag69
(g90
g71
NtRp1384
(dp1385
g74
(dp1386
sg83
g1371
sg76
(lp1387
g69
(g70
g71
NtRp1388
(dp1389
g74
(dp1390
g82
I4
ssg83
g1384
sg76
(lp1391
S'/music/default/index'
p1392
asbasbasbag69
(g85
g71
NtRp1393
(dp1394
g74
(dp1395
sg83
g859
sg76
(lp1396
g69
(g90
g71
NtRp1397
(dp1398
g74
(dp1399
g94
g95
ssg83
g1393
sg76
(lp1400
S'query_string'
p1401
asbag69
(g90
g71
NtRp1402
(dp1403
g74
(dp1404
g101
g102
ssg83
g1393
sg76
(lp1405
S':'
asbag69
(g90
g71
NtRp1406
(dp1407
g74
(dp1408
sg83
g1393
sg76
(lp1409
g69
(g70
g71
NtRp1410
(dp1411
g74
(dp1412
g82
I4
ssg83
g1406
sg76
(lp1413
S''
asbasbasbag69
(g85
g71
NtRp1414
(dp1415
g74
(dp1416
sg83
g859
sg76
(lp1417
g69
(g90
g71
NtRp1418
(dp1419
g74
(dp1420
g94
g95
ssg83
g1414
sg76
(lp1421
S'remote_addr'
p1422
asbag69
(g90
g71
NtRp1423
(dp1424
g74
(dp1425
g101
g102
ssg83
g1414
sg76
(lp1426
S':'
asbag69
(g90
g71
NtRp1427
(dp1428
g74
(dp1429
sg83
g1414
sg76
(lp1430
g69
(g70
g71
NtRp1431
(dp1432
g74
(dp1433
g82
I4
ssg83
g1427
sg76
(lp1434
g224
asbasbasbag69
(g85
g71
NtRp1435
(dp1436
g74
(dp1437
sg83
g859
sg76
(lp1438
g69
(g90
g71
NtRp1439
(dp1440
g74
(dp1441
g94
g95
ssg83
g1435
sg76
(lp1442
S'remote_port'
p1443
asbag69
(g90
g71
NtRp1444
(dp1445
g74
(dp1446
g101
g102
ssg83
g1435
sg76
(lp1447
S':'
asbag69
(g90
g71
NtRp1448
(dp1449
g74
(dp1450
sg83
g1435
sg76
(lp1451
g69
(g70
g71
NtRp1452
(dp1453
g74
(dp1454
g82
I4
ssg83
g1448
sg76
(lp1455
S'56991'
p1456
asbasbasbag69
(g85
g71
NtRp1457
(dp1458
g74
(dp1459
sg83
g859
sg76
(lp1460
g69
(g90
g71
NtRp1461
(dp1462
g74
(dp1463
g94
g95
ssg83
g1457
sg76
(lp1464
S'request_method'
p1465
asbag69
(g90
g71
NtRp1466
(dp1467
g74
(dp1468
g101
g102
ssg83
g1457
sg76
(lp1469
S':'
asbag69
(g90
g71
NtRp1470
(dp1471
g74
(dp1472
sg83
g1457
sg76
(lp1473
g69
(g70
g71
NtRp1474
(dp1475
g74
(dp1476
g82
I4
ssg83
g1470
sg76
(lp1477
S'GET'
p1478
asbasbasbag69
(g85
g71
NtRp1479
(dp1480
g74
(dp1481
sg83
g859
sg76
(lp1482
g69
(g90
g71
NtRp1483
(dp1484
g74
(dp1485
g94
g95
ssg83
g1479
sg76
(lp1486
S'request_uri'
p1487
asbag69
(g90
g71
NtRp1488
(dp1489
g74
(dp1490
g101
g102
ssg83
g1479
sg76
(lp1491
S':'
asbag69
(g90
g71
NtRp1492
(dp1493
g74
(dp1494
sg83
g1479
sg76
(lp1495
g69
(g70
g71
NtRp1496
(dp1497
g74
(dp1498
g82
I4
ssg83
g1492
sg76
(lp1499
g1392
asbasbasbag69
(g85
g71
NtRp1500
(dp1501
g74
(dp1502
sg83
g859
sg76
(lp1503
g69
(g90
g71
NtRp1504
(dp1505
g74
(dp1506
g94
g95
ssg83
g1500
sg76
(lp1507
S'script_name'
p1508
asbag69
(g90
g71
NtRp1509
(dp1510
g74
(dp1511
g101
g102
ssg83
g1500
sg76
(lp1512
S':'
asbag69
(g90
g71
NtRp1513
(dp1514
g74
(dp1515
sg83
g1500
sg76
(lp1516
g69
(g70
g71
NtRp1517
(dp1518
g74
(dp1519
g82
I4
ssg83
g1513
sg76
(lp1520
S''
asbasbasbag69
(g85
g71
NtRp1521
(dp1522
g74
(dp1523
sg83
g859
sg76
(lp1524
g69
(g90
g71
NtRp1525
(dp1526
g74
(dp1527
g94
g95
ssg83
g1521
sg76
(lp1528
S'server_name'
p1529
asbag69
(g90
g71
NtRp1530
(dp1531
g74
(dp1532
g101
g102
ssg83
g1521
sg76
(lp1533
S':'
asbag69
(g90
g71
NtRp1534
(dp1535
g74
(dp1536
sg83
g1521
sg76
(lp1537
g69
(g70
g71
NtRp1538
(dp1539
g74
(dp1540
g82
I4
ssg83
g1534
sg76
(lp1541
g1357
asbasbasbag69
(g85
g71
NtRp1542
(dp1543
g74
(dp1544
sg83
g859
sg76
(lp1545
g69
(g90
g71
NtRp1546
(dp1547
g74
(dp1548
g94
g95
ssg83
g1542
sg76
(lp1549
S'server_port'
p1550
asbag69
(g90
g71
NtRp1551
(dp1552
g74
(dp1553
g101
g102
ssg83
g1542
sg76
(lp1554
S':'
asbag69
(g90
g71
NtRp1555
(dp1556
g74
(dp1557
sg83
g1542
sg76
(lp1558
g69
(g70
g71
NtRp1559
(dp1560
g74
(dp1561
g82
I4
ssg83
g1555
sg76
(lp1562
S'8000'
p1563
asbasbasbag69
(g85
g71
NtRp1564
(dp1565
g74
(dp1566
sg83
g859
sg76
(lp1567
g69
(g90
g71
NtRp1568
(dp1569
g74
(dp1570
g94
g95
ssg83
g1564
sg76
(lp1571
S'server_protocol'
p1572
asbag69
(g90
g71
NtRp1573
(dp1574
g74
(dp1575
g101
g102
ssg83
g1564
sg76
(lp1576
S':'
asbag69
(g90
g71
NtRp1577
(dp1578
g74
(dp1579
sg83
g1564
sg76
(lp1580
g69
(g70
g71
NtRp1581
(dp1582
g74
(dp1583
g82
I4
ssg83
g1577
sg76
(lp1584
S'HTTP/1.1'
p1585
asbasbasbag69
(g85
g71
NtRp1586
(dp1587
g74
(dp1588
sg83
g859
sg76
(lp1589
g69
(g90
g71
NtRp1590
(dp1591
g74
(dp1592
g94
g95
ssg83
g1586
sg76
(lp1593
S'server_software'
p1594
asbag69
(g90
g71
NtRp1595
(dp1596
g74
(dp1597
g101
g102
ssg83
g1586
sg76
(lp1598
S':'
asbag69
(g90
g71
NtRp1599
(dp1600
g74
(dp1601
sg83
g1586
sg76
(lp1602
g69
(g70
g71
NtRp1603
(dp1604
g74
(dp1605
g82
I4
ssg83
g1599
sg76
(lp1606
S'Rocket 1.2.5'
p1607
asbasbasbag69
(g85
g71
NtRp1608
(dp1609
g74
(dp1610
sg83
g859
sg76
(lp1611
g69
(g90
g71
NtRp1612
(dp1613
g74
(dp1614
g94
g95
ssg83
g1608
sg76
(lp1615
S'web2py_path'
p1616
asbag69
(g90
g71
NtRp1617
(dp1618
g74
(dp1619
g101
g102
ssg83
g1608
sg76
(lp1620
S':'
asbag69
(g90
g71
NtRp1621
(dp1622
g74
(dp1623
sg83
g1608
sg76
(lp1624
g69
(g70
g71
NtRp1625
(dp1626
g74
(dp1627
g82
I4
ssg83
g1621
sg76
(lp1628
g906
asbasbasbag69
(g85
g71
NtRp1629
(dp1630
g74
(dp1631
sg83
g859
sg76
(lp1632
g69
(g90
g71
NtRp1633
(dp1634
g74
(dp1635
g94
g95
ssg83
g1629
sg76
(lp1636
S'web2py_version'
p1637
asbag69
(g90
g71
NtRp1638
(dp1639
g74
(dp1640
g101
g102
ssg83
g1629
sg76
(lp1641
S':'
asbag69
(g90
g71
NtRp1642
(dp1643
g74
(dp1644
sg83
g1629
sg76
(lp1645
g69
(g70
g71
NtRp1646
(dp1647
g74
(dp1648
g82
I4
ssg83
g1642
sg76
(lp1649
g69
(g78
g71
NtRp1650
(dp1651
g74
(dp1652
g82
I3
ssg83
Nsg76
(lp1653
g69
(g85
g71
NtRp1654
(dp1655
g74
(dp1656
sg83
g1650
sg76
(lp1657
g69
(g90
g71
NtRp1658
(dp1659
g74
(dp1660
sg83
g1654
sg76
(lp1661
g69
(g70
g71
NtRp1662
(dp1663
g74
(dp1664
g82
I3
ssg83
g1658
sg76
(lp1665
S'2'
asbasbasbag69
(g85
g71
NtRp1666
(dp1667
g74
(dp1668
sg83
g1650
sg76
(lp1669
g69
(g90
g71
NtRp1670
(dp1671
g74
(dp1672
sg83
g1666
sg76
(lp1673
g69
(g70
g71
NtRp1674
(dp1675
g74
(dp1676
g82
I3
ssg83
g1670
sg76
(lp1677
S'2'
asbasbasbag69
(g85
g71
NtRp1678
(dp1679
g74
(dp1680
sg83
g1650
sg76
(lp1681
g69
(g90
g71
NtRp1682
(dp1683
g74
(dp1684
sg83
g1678
sg76
(lp1685
g69
(g70
g71
NtRp1686
(dp1687
g74
(dp1688
g82
I3
ssg83
g1682
sg76
(lp1689
S'1'
asbasbasbag69
(g85
g71
NtRp1690
(dp1691
g74
(dp1692
sg83
g1650
sg76
(lp1693
g69
(g90
g71
NtRp1694
(dp1695
g74
(dp1696
sg83
g1690
sg76
(lp1697
g69
(g70
g71
NtRp1698
(dp1699
g74
(dp1700
g82
I3
ssg83
g1694
sg76
(lp1701
S'datetime.datetime(2012, 10, 21, 16, 57, 4)'
p1702
asbasbasbag69
(g85
g71
NtRp1703
(dp1704
g74
(dp1705
sg83
g1650
sg76
(lp1706
g69
(g90
g71
NtRp1707
(dp1708
g74
(dp1709
sg83
g1703
sg76
(lp1710
g69
(g70
g71
NtRp1711
(dp1712
g74
(dp1713
g82
I3
ssg83
g1707
sg76
(lp1714
S'stable'
p1715
asbasbasbasbasbasbasbag69
(g85
g71
NtRp1716
(dp1717
g74
(dp1718
sg83
g859
sg76
(lp1719
g69
(g90
g71
NtRp1720
(dp1721
g74
(dp1722
g94
g95
ssg83
g1716
sg76
(lp1723
S'wsgi_errors'
p1724
asbag69
(g90
g71
NtRp1725
(dp1726
g74
(dp1727
g101
g102
ssg83
g1716
sg76
(lp1728
S':'
asbag69
(g90
g71
NtRp1729
(dp1730
g74
(dp1731
sg83
g1716
sg76
(lp1732
g69
(g70
g71
NtRp1733
(dp1734
g74
(dp1735
g82
I4
ssg83
g1729
sg76
(lp1736
S"<open file '<stderr>', mode 'w' at 0x7f97a1c89270>"
p1737
asbasbasbag69
(g85
g71
NtRp1738
(dp1739
g74
(dp1740
sg83
g859
sg76
(lp1741
g69
(g90
g71
NtRp1742
(dp1743
g74
(dp1744
g94
g95
ssg83
g1738
sg76
(lp1745
S'wsgi_file_wrapper'
p1746
asbag69
(g90
g71
NtRp1747
(dp1748
g74
(dp1749
g101
g102
ssg83
g1738
sg76
(lp1750
S':'
asbag69
(g90
g71
NtRp1751
(dp1752
g74
(dp1753
sg83
g1738
sg76
(lp1754
g69
(g70
g71
NtRp1755
(dp1756
g74
(dp1757
g82
I4
ssg83
g1751
sg76
(lp1758
S'<class wsgiref.util.FileWrapper at 0x1ac1808>'
p1759
asbasbasbag69
(g85
g71
NtRp1760
(dp1761
g74
(dp1762
sg83
g859
sg76
(lp1763
g69
(g90
g71
NtRp1764
(dp1765
g74
(dp1766
g94
g95
ssg83
g1760
sg76
(lp1767
S'wsgi_input'
p1768
asbag69
(g90
g71
NtRp1769
(dp1770
g74
(dp1771
g101
g102
ssg83
g1760
sg76
(lp1772
S':'
asbag69
(g90
g71
NtRp1773
(dp1774
g74
(dp1775
sg83
g1760
sg76
(lp1776
g69
(g70
g71
NtRp1777
(dp1778
g74
(dp1779
g82
I4
ssg83
g1773
sg76
(lp1780
S'<socket._fileobject object at 0x7f979417ca50>'
p1781
asbasbasbag69
(g85
g71
NtRp1782
(dp1783
g74
(dp1784
sg83
g859
sg76
(lp1785
g69
(g90
g71
NtRp1786
(dp1787
g74
(dp1788
g94
g95
ssg83
g1782
sg76
(lp1789
S'wsgi_multiprocess'
p1790
asbag69
(g90
g71
NtRp1791
(dp1792
g74
(dp1793
g101
g102
ssg83
g1782
sg76
(lp1794
S':'
asbag69
(g90
g71
NtRp1795
(dp1796
g74
(dp1797
sg83
g1782
sg76
(lp1798
g69
(g70
g71
NtRp1799
(dp1800
g74
(dp1801
g82
I4
ssg83
g1795
sg76
(lp1802
g112
asbasbasbag69
(g85
g71
NtRp1803
(dp1804
g74
(dp1805
sg83
g859
sg76
(lp1806
g69
(g90
g71
NtRp1807
(dp1808
g74
(dp1809
g94
g95
ssg83
g1803
sg76
(lp1810
S'wsgi_multithread'
p1811
asbag69
(g90
g71
NtRp1812
(dp1813
g74
(dp1814
g101
g102
ssg83
g1803
sg76
(lp1815
S':'
asbag69
(g90
g71
NtRp1816
(dp1817
g74
(dp1818
sg83
g1803
sg76
(lp1819
g69
(g70
g71
NtRp1820
(dp1821
g74
(dp1822
g82
I4
ssg83
g1816
sg76
(lp1823
S'True'
p1824
asbasbasbag69
(g85
g71
NtRp1825
(dp1826
g74
(dp1827
sg83
g859
sg76
(lp1828
g69
(g90
g71
NtRp1829
(dp1830
g74
(dp1831
g94
g95
ssg83
g1825
sg76
(lp1832
S'wsgi_run_once'
p1833
asbag69
(g90
g71
NtRp1834
(dp1835
g74
(dp1836
g101
g102
ssg83
g1825
sg76
(lp1837
S':'
asbag69
(g90
g71
NtRp1838
(dp1839
g74
(dp1840
sg83
g1825
sg76
(lp1841
g69
(g70
g71
NtRp1842
(dp1843
g74
(dp1844
g82
I4
ssg83
g1838
sg76
(lp1845
g112
asbasbasbag69
(g85
g71
NtRp1846
(dp1847
g74
(dp1848
sg83
g859
sg76
(lp1849
g69
(g90
g71
NtRp1850
(dp1851
g74
(dp1852
g94
g95
ssg83
g1846
sg76
(lp1853
S'wsgi_url_scheme'
p1854
asbag69
(g90
g71
NtRp1855
(dp1856
g74
(dp1857
g101
g102
ssg83
g1846
sg76
(lp1858
S':'
asbag69
(g90
g71
NtRp1859
(dp1860
g74
(dp1861
sg83
g1846
sg76
(lp1862
g69
(g70
g71
NtRp1863
(dp1864
g74
(dp1865
g82
I4
ssg83
g1859
sg76
(lp1866
S'http'
p1867
asbasbasbag69
(g85
g71
NtRp1868
(dp1869
g74
(dp1870
sg83
g859
sg76
(lp1871
g69
(g90
g71
NtRp1872
(dp1873
g74
(dp1874
g94
g95
ssg83
g1868
sg76
(lp1875
S'wsgi_version'
p1876
asbag69
(g90
g71
NtRp1877
(dp1878
g74
(dp1879
g101
g102
ssg83
g1868
sg76
(lp1880
S':'
asbag69
(g90
g71
NtRp1881
(dp1882
g74
(dp1883
sg83
g1868
sg76
(lp1884
g69
(g70
g71
NtRp1885
(dp1886
g74
(dp1887
g82
I4
ssg83
g1881
sg76
(lp1888
g69
(g78
g71
NtRp1889
(dp1890
g74
(dp1891
g82
I3
ssg83
Nsg76
(lp1892
g69
(g85
g71
NtRp1893
(dp1894
g74
(dp1895
sg83
g1889
sg76
(lp1896
g69
(g90
g71
NtRp1897
(dp1898
g74
(dp1899
sg83
g1893
sg76
(lp1900
g69
(g70
g71
NtRp1901
(dp1902
g74
(dp1903
g82
I3
ssg83
g1897
sg76
(lp1904
S'1'
asbasbasbag69
(g85
g71
NtRp1905
(dp1906
g74
(dp1907
sg83
g1889
sg76
(lp1908
g69
(g90
g71
NtRp1909
(dp1910
g74
(dp1911
sg83
g1905
sg76
(lp1912
g69
(g70
g71
NtRp1913
(dp1914
g74
(dp1915
g82
I3
ssg83
g1909
sg76
(lp1916
S'0'
asbasbasbasbasbasbasbasbasbasbasbag69
(g85
g71
NtRp1917
(dp1918
g74
(dp1919
sg83
g79
sg76
(lp1920
g69
(g90
g71
NtRp1921
(dp1922
g74
(dp1923
g94
g95
ssg83
g1917
sg76
(lp1924
S'extension'
p1925
asbag69
(g90
g71
NtRp1926
(dp1927
g74
(dp1928
g101
g102
ssg83
g1917
sg76
(lp1929
S':'
asbag69
(g90
g71
NtRp1930
(dp1931
g74
(dp1932
sg83
g1917
sg76
(lp1933
g69
(g70
g71
NtRp1934
(dp1935
g74
(dp1936
g82
I5
ssg83
g1930
sg76
(lp1937
S'html'
p1938
asbasbasbag69
(g85
g71
NtRp1939
(dp1940
g74
(dp1941
sg83
g79
sg76
(lp1942
g69
(g90
g71
NtRp1943
(dp1944
g74
(dp1945
g94
g95
ssg83
g1939
sg76
(lp1946
S'folder'
p1947
asbag69
(g90
g71
NtRp1948
(dp1949
g74
(dp1950
g101
g102
ssg83
g1939
sg76
(lp1951
S':'
asbag69
(g90
g71
NtRp1952
(dp1953
g74
(dp1954
sg83
g1939
sg76
(lp1955
g69
(g70
g71
NtRp1956
(dp1957
g74
(dp1958
g82
I5
ssg83
g1952
sg76
(lp1959
S'/home/wionel/Desktop/web2py/applications/music/'
p1960
asbasbasbag69
(g85
g71
NtRp1961
(dp1962
g74
(dp1963
sg83
g79
sg76
(lp1964
g69
(g90
g71
NtRp1965
(dp1966
g74
(dp1967
g94
g95
ssg83
g1961
sg76
(lp1968
S'function'
p1969
asbag69
(g90
g71
NtRp1970
(dp1971
g74
(dp1972
g101
g102
ssg83
g1961
sg76
(lp1973
S':'
asbag69
(g90
g71
NtRp1974
(dp1975
g74
(dp1976
sg83
g1961
sg76
(lp1977
g69
(g70
g71
NtRp1978
(dp1979
g74
(dp1980
g82
I5
ssg83
g1974
sg76
(lp1981
S'index'
p1982
asbasbasbag69
(g85
g71
NtRp1983
(dp1984
g74
(dp1985
sg83
g79
sg76
(lp1986
g69
(g90
g71
NtRp1987
(dp1988
g74
(dp1989
g94
g95
ssg83
g1983
sg76
(lp1990
S'get_vars'
p1991
asbag69
(g90
g71
NtRp1992
(dp1993
g74
(dp1994
g101
g102
ssg83
g1983
sg76
(lp1995
S':'
asbag69
(g90
g71
NtRp1996
(dp1997
g74
(dp1998
sg83
g1983
sg76
(lp1999
g69
(g70
g71
NtRp2000
(dp2001
g74
(dp2002
g82
I5
ssg83
g1996
sg76
(lp2003
g69
(g78
g71
NtRp2004
(dp2005
g74
(dp2006
g82
I4
ssg83
Nsg76
(lp2007
sbasbasbasbag69
(g85
g71
NtRp2008
(dp2009
g74
(dp2010
sg83
g79
sg76
(lp2011
g69
(g90
g71
NtRp2012
(dp2013
g74
(dp2014
g94
g95
ssg83
g2008
sg76
(lp2015
S'global_settings'
p2016
asbag69
(g90
g71
NtRp2017
(dp2018
g74
(dp2019
g101
g102
ssg83
g2008
sg76
(lp2020
S':'
asbag69
(g90
g71
NtRp2021
(dp2022
g74
(dp2023
sg83
g2008
sg76
(lp2024
g69
(g70
g71
NtRp2025
(dp2026
g74
(dp2027
g82
I5
ssg83
g2021
sg76
(lp2028
g69
(g78
g71
NtRp2029
(dp2030
g74
(dp2031
g82
I4
ssg83
Nsg76
(lp2032
g69
(g85
g71
NtRp2033
(dp2034
g74
(dp2035
sg83
g2029
sg76
(lp2036
g69
(g90
g71
NtRp2037
(dp2038
g74
(dp2039
g94
g95
ssg83
g2033
sg76
(lp2040
g871
asbag69
(g90
g71
NtRp2041
(dp2042
g74
(dp2043
g101
g102
ssg83
g2033
sg76
(lp2044
S':'
asbag69
(g90
g71
NtRp2045
(dp2046
g74
(dp2047
sg83
g2033
sg76
(lp2048
g69
(g70
g71
NtRp2049
(dp2050
g74
(dp2051
g82
I4
ssg83
g2045
sg76
(lp2052
S"set(['/home/wionel/Desktop/web2py/applications/admin/', '/home/wionel/Desktop/web2py/applications/welcome/', '/home/wionel/Desktop/web2py/applications/music/'])"
p2053
asbasbasbag69
(g85
g71
NtRp2054
(dp2055
g74
(dp2056
sg83
g2029
sg76
(lp2057
g69
(g90
g71
NtRp2058
(dp2059
g74
(dp2060
g94
g95
ssg83
g2054
sg76
(lp2061
g893
asbag69
(g90
g71
NtRp2062
(dp2063
g74
(dp2064
g101
g102
ssg83
g2054
sg76
(lp2065
S':'
asbag69
(g90
g71
NtRp2066
(dp2067
g74
(dp2068
sg83
g2054
sg76
(lp2069
g69
(g70
g71
NtRp2070
(dp2071
g74
(dp2072
g82
I4
ssg83
g2066
sg76
(lp2073
g906
asbasbasbag69
(g85
g71
NtRp2074
(dp2075
g74
(dp2076
sg83
g2029
sg76
(lp2077
g69
(g90
g71
NtRp2078
(dp2079
g74
(dp2080
g94
g95
ssg83
g2074
sg76
(lp2081
g915
asbag69
(g90
g71
NtRp2082
(dp2083
g74
(dp2084
g101
g102
ssg83
g2074
sg76
(lp2085
S':'
asbag69
(g90
g71
NtRp2086
(dp2087
g74
(dp2088
sg83
g2074
sg76
(lp2089
g69
(g70
g71
NtRp2090
(dp2091
g74
(dp2092
g82
I4
ssg83
g2086
sg76
(lp2093
g69
(g78
g71
NtRp2094
(dp2095
g74
(dp2096
g82
I3
ssg83
Nsg76
(lp2097
sbasbasbasbag69
(g85
g71
NtRp2098
(dp2099
g74
(dp2100
sg83
g2029
sg76
(lp2101
g69
(g90
g71
NtRp2102
(dp2103
g74
(dp2104
g94
g95
ssg83
g2098
sg76
(lp2105
g940
asbag69
(g90
g71
NtRp2106
(dp2107
g74
(dp2108
g101
g102
ssg83
g2098
sg76
(lp2109
S':'
asbag69
(g90
g71
NtRp2110
(dp2111
g74
(dp2112
sg83
g2098
sg76
(lp2113
g69
(g70
g71
NtRp2114
(dp2115
g74
(dp2116
g82
I4
ssg83
g2110
sg76
(lp2117
S"<Values at 0x1b69488: {'verbose': False, 'ip': '127.0.0.1', 'with_scheduler': False, 'ips': ['127.0.1.1'], 'shutdown_timeout': 5, 'taskbar': False, 'port': 8000, 'maxthreads': None, 'softcron': False, 'server_name': 'Rohan', 'bpython': False, 'nogui': False, 'pid_filename': 'httpserver.pid', 'extcron': False, 'runcron': False, 'run_system_tests': False, 'test': None, 'folder': '/home/wionel/Desktop/web2py', 'config': '', 'minthreads': None, 'winservice': '', 'shell': None, 'run': '', 'log_filename': 'httpserver.log', 'debuglevel': 30, 'args': [''], 'socket_timeout': 5, 'ssl_ca_certificate': None, 'scheduler': None, 'profiler_filename': None, 'ssl_private_key': '', 'scheduler_groups': None, 'password': '<ask>', 'request_queue_size': 5, 'ssl_certificate': '', 'cronjob': False, 'numthreads': None, 'quiet': False, 'interfaces': None, 'import_models': False, 'timeout': 10, 'plain': False, 'nobanner': False}>"
p2118
asbasbasbag69
(g85
g71
NtRp2119
(dp2120
g74
(dp2121
sg83
g2029
sg76
(lp2122
g69
(g90
g71
NtRp2123
(dp2124
g74
(dp2125
g94
g95
ssg83
g2119
sg76
(lp2126
g962
asbag69
(g90
g71
NtRp2127
(dp2128
g74
(dp2129
g101
g102
ssg83
g2119
sg76
(lp2130
S':'
asbag69
(g90
g71
NtRp2131
(dp2132
g74
(dp2133
sg83
g2119
sg76
(lp2134
g69
(g70
g71
NtRp2135
(dp2136
g74
(dp2137
g82
I4
ssg83
g2131
sg76
(lp2138
S'set([])'
p2139
asbasbasbag69
(g85
g71
NtRp2140
(dp2141
g74
(dp2142
sg83
g2029
sg76
(lp2143
g69
(g90
g71
NtRp2144
(dp2145
g74
(dp2146
g94
g95
ssg83
g2140
sg76
(lp2147
g984
asbag69
(g90
g71
NtRp2148
(dp2149
g74
(dp2150
g101
g102
ssg83
g2140
sg76
(lp2151
S':'
asbag69
(g90
g71
NtRp2152
(dp2153
g74
(dp2154
sg83
g2140
sg76
(lp2155
g69
(g70
g71
NtRp2156
(dp2157
g74
(dp2158
g82
I4
ssg83
g2152
sg76
(lp2159
g112
asbasbasbag69
(g85
g71
NtRp2160
(dp2161
g74
(dp2162
sg83
g2029
sg76
(lp2163
g69
(g90
g71
NtRp2164
(dp2165
g74
(dp2166
g94
g95
ssg83
g2160
sg76
(lp2167
g1005
asbag69
(g90
g71
NtRp2168
(dp2169
g74
(dp2170
g101
g102
ssg83
g2160
sg76
(lp2171
S':'
asbag69
(g90
g71
NtRp2172
(dp2173
g74
(dp2174
sg83
g2160
sg76
(lp2175
g69
(g70
g71
NtRp2176
(dp2177
g74
(dp2178
g82
I4
ssg83
g2172
sg76
(lp2179
g1018
asbasbasbag69
(g85
g71
NtRp2180
(dp2181
g74
(dp2182
sg83
g2029
sg76
(lp2183
g69
(g90
g71
NtRp2184
(dp2185
g74
(dp2186
g94
g95
ssg83
g2180
sg76
(lp2187
g1247
asbag69
(g90
g71
NtRp2188
(dp2189
g74
(dp2190
g101
g102
ssg83
g2180
sg76
(lp2191
S':'
asbag69
(g90
g71
NtRp2192
(dp2193
g74
(dp2194
sg83
g2180
sg76
(lp2195
g69
(g70
g71
NtRp2196
(dp2197
g74
(dp2198
g82
I4
ssg83
g2192
sg76
(lp2199
g112
asbasbasbag69
(g85
g71
NtRp2200
(dp2201
g74
(dp2202
sg83
g2029
sg76
(lp2203
g69
(g90
g71
NtRp2204
(dp2205
g74
(dp2206
g94
g95
ssg83
g2200
sg76
(lp2207
g1268
asbag69
(g90
g71
NtRp2208
(dp2209
g74
(dp2210
g101
g102
ssg83
g2200
sg76
(lp2211
S':'
asbag69
(g90
g71
NtRp2212
(dp2213
g74
(dp2214
sg83
g2200
sg76
(lp2215
g69
(g70
g71
NtRp2216
(dp2217
g74
(dp2218
g82
I4
ssg83
g2212
sg76
(lp2219
g112
asbasbasbag69
(g85
g71
NtRp2220
(dp2221
g74
(dp2222
sg83
g2029
sg76
(lp2223
g69
(g90
g71
NtRp2224
(dp2225
g74
(dp2226
g94
g95
ssg83
g2220
sg76
(lp2227
g1289
asbag69
(g90
g71
NtRp2228
(dp2229
g74
(dp2230
g101
g102
ssg83
g2220
sg76
(lp2231
S':'
asbag69
(g90
g71
NtRp2232
(dp2233
g74
(dp2234
sg83
g2220
sg76
(lp2235
g69
(g70
g71
NtRp2236
(dp2237
g74
(dp2238
g82
I4
ssg83
g2232
sg76
(lp2239
g69
(g78
g71
NtRp2240
(dp2241
g74
(dp2242
g82
I3
ssg83
Nsg76
(lp2243
g69
(g85
g71
NtRp2244
(dp2245
g74
(dp2246
sg83
g2240
sg76
(lp2247
g69
(g90
g71
NtRp2248
(dp2249
g74
(dp2250
sg83
g2244
sg76
(lp2251
g69
(g70
g71
NtRp2252
(dp2253
g74
(dp2254
g82
I3
ssg83
g2248
sg76
(lp2255
g1318
asbasbasbag69
(g85
g71
NtRp2256
(dp2257
g74
(dp2258
sg83
g2240
sg76
(lp2259
g69
(g90
g71
NtRp2260
(dp2261
g74
(dp2262
sg83
g2256
sg76
(lp2263
g69
(g70
g71
NtRp2264
(dp2265
g74
(dp2266
g82
I3
ssg83
g2260
sg76
(lp2267
g1331
asbasbasbag69
(g85
g71
NtRp2268
(dp2269
g74
(dp2270
sg83
g2240
sg76
(lp2271
g69
(g90
g71
NtRp2272
(dp2273
g74
(dp2274
sg83
g2268
sg76
(lp2275
g69
(g70
g71
NtRp2276
(dp2277
g74
(dp2278
g82
I3
ssg83
g2272
sg76
(lp2279
g1344
asbasbasbag69
(g85
g71
NtRp2280
(dp2281
g74
(dp2282
sg83
g2240
sg76
(lp2283
g69
(g90
g71
NtRp2284
(dp2285
g74
(dp2286
sg83
g2280
sg76
(lp2287
g69
(g70
g71
NtRp2288
(dp2289
g74
(dp2290
g82
I3
ssg83
g2284
sg76
(lp2291
g1357
asbasbasbag69
(g85
g71
NtRp2292
(dp2293
g74
(dp2294
sg83
g2240
sg76
(lp2295
g69
(g90
g71
NtRp2296
(dp2297
g74
(dp2298
sg83
g2292
sg76
(lp2299
g69
(g70
g71
NtRp2300
(dp2301
g74
(dp2302
g82
I3
ssg83
g2296
sg76
(lp2303
g1370
asbasbasbasbasbasbasbag69
(g85
g71
NtRp2304
(dp2305
g74
(dp2306
sg83
g2029
sg76
(lp2307
g69
(g90
g71
NtRp2308
(dp2309
g74
(dp2310
g94
g95
ssg83
g2304
sg76
(lp2311
g1637
asbag69
(g90
g71
NtRp2312
(dp2313
g74
(dp2314
g101
g102
ssg83
g2304
sg76
(lp2315
S':'
asbag69
(g90
g71
NtRp2316
(dp2317
g74
(dp2318
sg83
g2304
sg76
(lp2319
g69
(g70
g71
NtRp2320
(dp2321
g74
(dp2322
g82
I4
ssg83
g2316
sg76
(lp2323
g69
(g78
g71
NtRp2324
(dp2325
g74
(dp2326
g82
I3
ssg83
Nsg76
(lp2327
g69
(g85
g71
NtRp2328
(dp2329
g74
(dp2330
sg83
g2324
sg76
(lp2331
g69
(g90
g71
NtRp2332
(dp2333
g74
(dp2334
sg83
g2328
sg76
(lp2335
g69
(g70
g71
NtRp2336
(dp2337
g74
(dp2338
g82
I3
ssg83
g2332
sg76
(lp2339
S'2'
asbasbasbag69
(g85
g71
NtRp2340
(dp2341
g74
(dp2342
sg83
g2324
sg76
(lp2343
g69
(g90
g71
NtRp2344
(dp2345
g74
(dp2346
sg83
g2340
sg76
(lp2347
g69
(g70
g71
NtRp2348
(dp2349
g74
(dp2350
g82
I3
ssg83
g2344
sg76
(lp2351
S'2'
asbasbasbag69
(g85
g71
NtRp2352
(dp2353
g74
(dp2354
sg83
g2324
sg76
(lp2355
g69
(g90
g71
NtRp2356
(dp2357
g74
(dp2358
sg83
g2352
sg76
(lp2359
g69
(g70
g71
NtRp2360
(dp2361
g74
(dp2362
g82
I3
ssg83
g2356
sg76
(lp2363
S'1'
asbasbasbag69
(g85
g71
NtRp2364
(dp2365
g74
(dp2366
sg83
g2324
sg76
(lp2367
g69
(g90
g71
NtRp2368
(dp2369
g74
(dp2370
sg83
g2364
sg76
(lp2371
g69
(g70
g71
NtRp2372
(dp2373
g74
(dp2374
g82
I3
ssg83
g2368
sg76
(lp2375
S'datetime.datetime(2012, 10, 21, 16, 57, 4)'
p2376
asbasbasbag69
(g85
g71
NtRp2377
(dp2378
g74
(dp2379
sg83
g2324
sg76
(lp2380
g69
(g90
g71
NtRp2381
(dp2382
g74
(dp2383
sg83
g2377
sg76
(lp2384
g69
(g70
g71
NtRp2385
(dp2386
g74
(dp2387
g82
I3
ssg83
g2381
sg76
(lp2388
g1715
asbasbasbasbasbasbasbasbasbasbasbag69
(g85
g71
NtRp2389
(dp2390
g74
(dp2391
sg83
g79
sg76
(lp2392
g69
(g90
g71
NtRp2393
(dp2394
g74
(dp2395
g94
g95
ssg83
g2389
sg76
(lp2396
S'is_https'
p2397
asbag69
(g90
g71
NtRp2398
(dp2399
g74
(dp2400
g101
g102
ssg83
g2389
sg76
(lp2401
S':'
asbag69
(g90
g71
NtRp2402
(dp2403
g74
(dp2404
sg83
g2389
sg76
(lp2405
g69
(g70
g71
NtRp2406
(dp2407
g74
(dp2408
g82
I5
ssg83
g2402
sg76
(lp2409
g112
asbasbasbag69
(g85
g71
NtRp2410
(dp2411
g74
(dp2412
sg83
g79
sg76
(lp2413
g69
(g90
g71
NtRp2414
(dp2415
g74
(dp2416
g94
g95
ssg83
g2410
sg76
(lp2417
S'is_local'
p2418
asbag69
(g90
g71
NtRp2419
(dp2420
g74
(dp2421
g101
g102
ssg83
g2410
sg76
(lp2422
S':'
asbag69
(g90
g71
NtRp2423
(dp2424
g74
(dp2425
sg83
g2410
sg76
(lp2426
g69
(g70
g71
NtRp2427
(dp2428
g74
(dp2429
g82
I5
ssg83
g2423
sg76
(lp2430
g1824
asbasbasbag69
(g85
g71
NtRp2431
(dp2432
g74
(dp2433
sg83
g79
sg76
(lp2434
g69
(g90
g71
NtRp2435
(dp2436
g74
(dp2437
g94
g95
ssg83
g2431
sg76
(lp2438
S'is_restful'
p2439
asbag69
(g90
g71
NtRp2440
(dp2441
g74
(dp2442
g101
g102
ssg83
g2431
sg76
(lp2443
S':'
asbag69
(g90
g71
NtRp2444
(dp2445
g74
(dp2446
sg83
g2431
sg76
(lp2447
g69
(g70
g71
NtRp2448
(dp2449
g74
(dp2450
g82
I5
ssg83
g2444
sg76
(lp2451
g112
asbasbasbag69
(g85
g71
NtRp2452
(dp2453
g74
(dp2454
sg83
g79
sg76
(lp2455
g69
(g90
g71
NtRp2456
(dp2457
g74
(dp2458
g94
g95
ssg83
g2452
sg76
(lp2459
S'now'
p2460
asbag69
(g90
g71
NtRp2461
(dp2462
g74
(dp2463
g101
g102
ssg83
g2452
sg76
(lp2464
S':'
asbag69
(g90
g71
NtRp2465
(dp2466
g74
(dp2467
sg83
g2452
sg76
(lp2468
g69
(g70
g71
NtRp2469
(dp2470
g74
(dp2471
g82
I5
ssg83
g2465
sg76
(lp2472
S'datetime.datetime(2012, 11, 15, 23, 32, 31, 619054)'
p2473
asbasbasbag69
(g85
g71
NtRp2474
(dp2475
g74
(dp2476
sg83
g79
sg76
(lp2477
g69
(g90
g71
NtRp2478
(dp2479
g74
(dp2480
g94
g95
ssg83
g2474
sg76
(lp2481
S'post_vars'
p2482
asbag69
(g90
g71
NtRp2483
(dp2484
g74
(dp2485
g101
g102
ssg83
g2474
sg76
(lp2486
S':'
asbag69
(g90
g71
NtRp2487
(dp2488
g74
(dp2489
sg83
g2474
sg76
(lp2490
g69
(g70
g71
NtRp2491
(dp2492
g74
(dp2493
g82
I5
ssg83
g2487
sg76
(lp2494
g69
(g78
g71
NtRp2495
(dp2496
g74
(dp2497
g82
I4
ssg83
Nsg76
(lp2498
sbasbasbasbag69
(g85
g71
NtRp2499
(dp2500
g74
(dp2501
sg83
g79
sg76
(lp2502
g69
(g90
g71
NtRp2503
(dp2504
g74
(dp2505
g94
g95
ssg83
g2499
sg76
(lp2506
S'raw_args'
p2507
asbag69
(g90
g71
NtRp2508
(dp2509
g74
(dp2510
g101
g102
ssg83
g2499
sg76
(lp2511
S':'
asbag69
(g90
g71
NtRp2512
(dp2513
g74
(dp2514
sg83
g2499
sg76
(lp2515
g69
(g70
g71
NtRp2516
(dp2517
g74
(dp2518
g82
I5
ssg83
g2512
sg76
(lp2519
S''
asbasbasbag69
(g85
g71
NtRp2520
(dp2521
g74
(dp2522
sg83
g79
sg76
(lp2523
g69
(g90
g71
NtRp2524
(dp2525
g74
(dp2526
g94
g95
ssg83
g2520
sg76
(lp2527
S'raw_extension'
p2528
asbag69
(g90
g71
NtRp2529
(dp2530
g74
(dp2531
g101
g102
ssg83
g2520
sg76
(lp2532
S':'
asbag69
(g90
g71
NtRp2533
(dp2534
g74
(dp2535
sg83
g2520
sg76
(lp2536
g69
(g70
g71
NtRp2537
(dp2538
g74
(dp2539
g82
I5
ssg83
g2533
sg76
(lp2540
S'None'
p2541
asbasbasbag69
(g85
g71
NtRp2542
(dp2543
g74
(dp2544
sg83
g79
sg76
(lp2545
g69
(g90
g71
NtRp2546
(dp2547
g74
(dp2548
g94
g95
ssg83
g2542
sg76
(lp2549
S'url'
p2550
asbag69
(g90
g71
NtRp2551
(dp2552
g74
(dp2553
g101
g102
ssg83
g2542
sg76
(lp2554
S':'
asbag69
(g90
g71
NtRp2555
(dp2556
g74
(dp2557
sg83
g2542
sg76
(lp2558
g69
(g70
g71
NtRp2559
(dp2560
g74
(dp2561
g82
I5
ssg83
g2555
sg76
(lp2562
g1392
asbasbasbag69
(g85
g71
NtRp2563
(dp2564
g74
(dp2565
sg83
g79
sg76
(lp2566
g69
(g90
g71
NtRp2567
(dp2568
g74
(dp2569
g94
g95
ssg83
g2563
sg76
(lp2570
S'utcnow'
p2571
asbag69
(g90
g71
NtRp2572
(dp2573
g74
(dp2574
g101
g102
ssg83
g2563
sg76
(lp2575
S':'
asbag69
(g90
g71
NtRp2576
(dp2577
g74
(dp2578
sg83
g2563
sg76
(lp2579
g69
(g70
g71
NtRp2580
(dp2581
g74
(dp2582
g82
I5
ssg83
g2576
sg76
(lp2583
S'datetime.datetime(2012, 11, 15, 18, 2, 31, 619086)'
p2584
asbasbasbag69
(g85
g71
NtRp2585
(dp2586
g74
(dp2587
sg83
g79
sg76
(lp2588
g69
(g90
g71
NtRp2589
(dp2590
g74
(dp2591
g94
g95
ssg83
g2585
sg76
(lp2592
S'uuid'
p2593
asbag69
(g90
g71
NtRp2594
(dp2595
g74
(dp2596
g101
g102
ssg83
g2585
sg76
(lp2597
S':'
asbag69
(g90
g71
NtRp2598
(dp2599
g74
(dp2600
sg83
g2585
sg76
(lp2601
g69
(g70
g71
NtRp2602
(dp2603
g74
(dp2604
g82
I5
ssg83
g2598
sg76
(lp2605
S'music/127.0.0.1.2012-11-15.23-32-31.726f31de-2686-45d9-af47-3e42789957be'
p2606
asbasbasbag69
(g85
g71
NtRp2607
(dp2608
g74
(dp2609
sg83
g79
sg76
(lp2610
g69
(g90
g71
NtRp2611
(dp2612
g74
(dp2613
g94
g95
ssg83
g2607
sg76
(lp2614
S'vars'
p2615
asbag69
(g90
g71
NtRp2616
(dp2617
g74
(dp2618
g101
g102
ssg83
g2607
sg76
(lp2619
S':'
asbag69
(g90
g71
NtRp2620
(dp2621
g74
(dp2622
sg83
g2607
sg76
(lp2623
g69
(g70
g71
NtRp2624
(dp2625
g74
(dp2626
g82
I5
ssg83
g2620
sg76
(lp2627
g69
(g78
g71
NtRp2628
(dp2629
g74
(dp2630
g82
I4
ssg83
Nsg76
(lp2631
sbasbasbasbag69
(g85
g71
NtRp2632
(dp2633
g74
(dp2634
sg83
g79
sg76
(lp2635
g69
(g90
g71
NtRp2636
(dp2637
g74
(dp2638
g94
g95
ssg83
g2632
sg76
(lp2639
S'wsgi'
p2640
asbag69
(g90
g71
NtRp2641
(dp2642
g74
(dp2643
g101
g102
ssg83
g2632
sg76
(lp2644
S':'
asbag69
(g90
g71
NtRp2645
(dp2646
g74
(dp2647
sg83
g2632
sg76
(lp2648
g69
(g70
g71
NtRp2649
(dp2650
g74
(dp2651
g82
I5
ssg83
g2645
sg76
(lp2652
g69
(g78
g71
NtRp2653
(dp2654
g74
(dp2655
g82
I4
ssg83
Nsg76
(lp2656
g69
(g85
g71
NtRp2657
(dp2658
g74
(dp2659
sg83
g2653
sg76
(lp2660
g69
(g90
g71
NtRp2661
(dp2662
g74
(dp2663
g94
g95
ssg83
g2657
sg76
(lp2664
S'environ'
p2665
asbag69
(g90
g71
NtRp2666
(dp2667
g74
(dp2668
g101
g102
ssg83
g2657
sg76
(lp2669
S':'
asbag69
(g90
g71
NtRp2670
(dp2671
g74
(dp2672
sg83
g2657
sg76
(lp2673
g69
(g70
g71
NtRp2674
(dp2675
g74
(dp2676
g82
I4
ssg83
g2670
sg76
(lp2677
g69
(g78
g71
NtRp2678
(dp2679
g74
(dp2680
g82
I3
ssg83
Nsg76
(lp2681
g69
(g85
g71
NtRp2682
(dp2683
g74
(dp2684
sg83
g2678
sg76
(lp2685
g69
(g90
g71
NtRp2686
(dp2687
g74
(dp2688
g94
g95
ssg83
g2682
sg76
(lp2689
S'HTTP_ACCEPT'
p2690
asbag69
(g90
g71
NtRp2691
(dp2692
g74
(dp2693
g101
g102
ssg83
g2682
sg76
(lp2694
S':'
asbag69
(g90
g71
NtRp2695
(dp2696
g74
(dp2697
sg83
g2682
sg76
(lp2698
g69
(g70
g71
NtRp2699
(dp2700
g74
(dp2701
g82
I3
ssg83
g2695
sg76
(lp2702
g1040
asbasbasbag69
(g85
g71
NtRp2703
(dp2704
g74
(dp2705
sg83
g2678
sg76
(lp2706
g69
(g90
g71
NtRp2707
(dp2708
g74
(dp2709
g94
g95
ssg83
g2703
sg76
(lp2710
S'HTTP_ACCEPT_CHARSET'
p2711
asbag69
(g90
g71
NtRp2712
(dp2713
g74
(dp2714
g101
g102
ssg83
g2703
sg76
(lp2715
S':'
asbag69
(g90
g71
NtRp2716
(dp2717
g74
(dp2718
sg83
g2703
sg76
(lp2719
g69
(g70
g71
NtRp2720
(dp2721
g74
(dp2722
g82
I3
ssg83
g2716
sg76
(lp2723
g1062
asbasbasbag69
(g85
g71
NtRp2724
(dp2725
g74
(dp2726
sg83
g2678
sg76
(lp2727
g69
(g90
g71
NtRp2728
(dp2729
g74
(dp2730
g94
g95
ssg83
g2724
sg76
(lp2731
S'HTTP_ACCEPT_ENCODING'
p2732
asbag69
(g90
g71
NtRp2733
(dp2734
g74
(dp2735
g101
g102
ssg83
g2724
sg76
(lp2736
S':'
asbag69
(g90
g71
NtRp2737
(dp2738
g74
(dp2739
sg83
g2724
sg76
(lp2740
g69
(g70
g71
NtRp2741
(dp2742
g74
(dp2743
g82
I3
ssg83
g2737
sg76
(lp2744
g1084
asbasbasbag69
(g85
g71
NtRp2745
(dp2746
g74
(dp2747
sg83
g2678
sg76
(lp2748
g69
(g90
g71
NtRp2749
(dp2750
g74
(dp2751
g94
g95
ssg83
g2745
sg76
(lp2752
S'HTTP_ACCEPT_LANGUAGE'
p2753
asbag69
(g90
g71
NtRp2754
(dp2755
g74
(dp2756
g101
g102
ssg83
g2745
sg76
(lp2757
S':'
asbag69
(g90
g71
NtRp2758
(dp2759
g74
(dp2760
sg83
g2745
sg76
(lp2761
g69
(g70
g71
NtRp2762
(dp2763
g74
(dp2764
g82
I3
ssg83
g2758
sg76
(lp2765
g1106
asbasbasbag69
(g85
g71
NtRp2766
(dp2767
g74
(dp2768
sg83
g2678
sg76
(lp2769
g69
(g90
g71
NtRp2770
(dp2771
g74
(dp2772
g94
g95
ssg83
g2766
sg76
(lp2773
S'HTTP_CACHE_CONTROL'
p2774
asbag69
(g90
g71
NtRp2775
(dp2776
g74
(dp2777
g101
g102
ssg83
g2766
sg76
(lp2778
S':'
asbag69
(g90
g71
NtRp2779
(dp2780
g74
(dp2781
sg83
g2766
sg76
(lp2782
g69
(g70
g71
NtRp2783
(dp2784
g74
(dp2785
g82
I3
ssg83
g2779
sg76
(lp2786
g1128
asbasbasbag69
(g85
g71
NtRp2787
(dp2788
g74
(dp2789
sg83
g2678
sg76
(lp2790
g69
(g90
g71
NtRp2791
(dp2792
g74
(dp2793
g94
g95
ssg83
g2787
sg76
(lp2794
S'HTTP_CONNECTION'
p2795
asbag69
(g90
g71
NtRp2796
(dp2797
g74
(dp2798
g101
g102
ssg83
g2787
sg76
(lp2799
S':'
asbag69
(g90
g71
NtRp2800
(dp2801
g74
(dp2802
sg83
g2787
sg76
(lp2803
g69
(g70
g71
NtRp2804
(dp2805
g74
(dp2806
g82
I3
ssg83
g2800
sg76
(lp2807
g1150
asbasbasbag69
(g85
g71
NtRp2808
(dp2809
g74
(dp2810
sg83
g2678
sg76
(lp2811
g69
(g90
g71
NtRp2812
(dp2813
g74
(dp2814
g94
g95
ssg83
g2808
sg76
(lp2815
S'HTTP_COOKIE'
p2816
asbag69
(g90
g71
NtRp2817
(dp2818
g74
(dp2819
g101
g102
ssg83
g2808
sg76
(lp2820
S':'
asbag69
(g90
g71
NtRp2821
(dp2822
g74
(dp2823
sg83
g2808
sg76
(lp2824
g69
(g70
g71
NtRp2825
(dp2826
g74
(dp2827
g82
I3
ssg83
g2821
sg76
(lp2828
g1172
asbasbasbag69
(g85
g71
NtRp2829
(dp2830
g74
(dp2831
sg83
g2678
sg76
(lp2832
g69
(g90
g71
NtRp2833
(dp2834
g74
(dp2835
g94
g95
ssg83
g2829
sg76
(lp2836
S'HTTP_HOST'
p2837
asbag69
(g90
g71
NtRp2838
(dp2839
g74
(dp2840
g101
g102
ssg83
g2829
sg76
(lp2841
S':'
asbag69
(g90
g71
NtRp2842
(dp2843
g74
(dp2844
sg83
g2829
sg76
(lp2845
g69
(g70
g71
NtRp2846
(dp2847
g74
(dp2848
g82
I3
ssg83
g2842
sg76
(lp2849
g1194
asbasbasbag69
(g85
g71
NtRp2850
(dp2851
g74
(dp2852
sg83
g2678
sg76
(lp2853
g69
(g90
g71
NtRp2854
(dp2855
g74
(dp2856
g94
g95
ssg83
g2850
sg76
(lp2857
S'HTTP_REFERER'
p2858
asbag69
(g90
g71
NtRp2859
(dp2860
g74
(dp2861
g101
g102
ssg83
g2850
sg76
(lp2862
S':'
asbag69
(g90
g71
NtRp2863
(dp2864
g74
(dp2865
sg83
g2850
sg76
(lp2866
g69
(g70
g71
NtRp2867
(dp2868
g74
(dp2869
g82
I3
ssg83
g2863
sg76
(lp2870
g1216
asbasbasbag69
(g85
g71
NtRp2871
(dp2872
g74
(dp2873
sg83
g2678
sg76
(lp2874
g69
(g90
g71
NtRp2875
(dp2876
g74
(dp2877
g94
g95
ssg83
g2871
sg76
(lp2878
S'HTTP_USER_AGENT'
p2879
asbag69
(g90
g71
NtRp2880
(dp2881
g74
(dp2882
g101
g102
ssg83
g2871
sg76
(lp2883
S':'
asbag69
(g90
g71
NtRp2884
(dp2885
g74
(dp2886
sg83
g2871
sg76
(lp2887
g69
(g70
g71
NtRp2888
(dp2889
g74
(dp2890
g82
I3
ssg83
g2884
sg76
(lp2891
g1238
asbasbasbag69
(g85
g71
NtRp2892
(dp2893
g74
(dp2894
sg83
g2678
sg76
(lp2895
g69
(g90
g71
NtRp2896
(dp2897
g74
(dp2898
g94
g95
ssg83
g2892
sg76
(lp2899
S'PATH_INFO'
p2900
asbag69
(g90
g71
NtRp2901
(dp2902
g74
(dp2903
g101
g102
ssg83
g2892
sg76
(lp2904
S':'
asbag69
(g90
g71
NtRp2905
(dp2906
g74
(dp2907
sg83
g2892
sg76
(lp2908
g69
(g70
g71
NtRp2909
(dp2910
g74
(dp2911
g82
I3
ssg83
g2905
sg76
(lp2912
g1392
asbasbasbag69
(g85
g71
NtRp2913
(dp2914
g74
(dp2915
sg83
g2678
sg76
(lp2916
g69
(g90
g71
NtRp2917
(dp2918
g74
(dp2919
g94
g95
ssg83
g2913
sg76
(lp2920
S'QUERY_STRING'
p2921
asbag69
(g90
g71
NtRp2922
(dp2923
g74
(dp2924
g101
g102
ssg83
g2913
sg76
(lp2925
S':'
asbag69
(g90
g71
NtRp2926
(dp2927
g74
(dp2928
sg83
g2913
sg76
(lp2929
g69
(g70
g71
NtRp2930
(dp2931
g74
(dp2932
g82
I3
ssg83
g2926
sg76
(lp2933
S''
asbasbasbag69
(g85
g71
NtRp2934
(dp2935
g74
(dp2936
sg83
g2678
sg76
(lp2937
g69
(g90
g71
NtRp2938
(dp2939
g74
(dp2940
g94
g95
ssg83
g2934
sg76
(lp2941
S'REMOTE_ADDR'
p2942
asbag69
(g90
g71
NtRp2943
(dp2944
g74
(dp2945
g101
g102
ssg83
g2934
sg76
(lp2946
S':'
asbag69
(g90
g71
NtRp2947
(dp2948
g74
(dp2949
sg83
g2934
sg76
(lp2950
g69
(g70
g71
NtRp2951
(dp2952
g74
(dp2953
g82
I3
ssg83
g2947
sg76
(lp2954
g224
asbasbasbag69
(g85
g71
NtRp2955
(dp2956
g74
(dp2957
sg83
g2678
sg76
(lp2958
g69
(g90
g71
NtRp2959
(dp2960
g74
(dp2961
g94
g95
ssg83
g2955
sg76
(lp2962
S'REMOTE_PORT'
p2963
asbag69
(g90
g71
NtRp2964
(dp2965
g74
(dp2966
g101
g102
ssg83
g2955
sg76
(lp2967
S':'
asbag69
(g90
g71
NtRp2968
(dp2969
g74
(dp2970
sg83
g2955
sg76
(lp2971
g69
(g70
g71
NtRp2972
(dp2973
g74
(dp2974
g82
I3
ssg83
g2968
sg76
(lp2975
g1456
asbasbasbag69
(g85
g71
NtRp2976
(dp2977
g74
(dp2978
sg83
g2678
sg76
(lp2979
g69
(g90
g71
NtRp2980
(dp2981
g74
(dp2982
g94
g95
ssg83
g2976
sg76
(lp2983
S'REQUEST_METHOD'
p2984
asbag69
(g90
g71
NtRp2985
(dp2986
g74
(dp2987
g101
g102
ssg83
g2976
sg76
(lp2988
S':'
asbag69
(g90
g71
NtRp2989
(dp2990
g74
(dp2991
sg83
g2976
sg76
(lp2992
g69
(g70
g71
NtRp2993
(dp2994
g74
(dp2995
g82
I3
ssg83
g2989
sg76
(lp2996
g1478
asbasbasbag69
(g85
g71
NtRp2997
(dp2998
g74
(dp2999
sg83
g2678
sg76
(lp3000
g69
(g90
g71
NtRp3001
(dp3002
g74
(dp3003
g94
g95
ssg83
g2997
sg76
(lp3004
S'REQUEST_URI'
p3005
asbag69
(g90
g71
NtRp3006
(dp3007
g74
(dp3008
g101
g102
ssg83
g2997
sg76
(lp3009
S':'
asbag69
(g90
g71
NtRp3010
(dp3011
g74
(dp3012
sg83
g2997
sg76
(lp3013
g69
(g70
g71
NtRp3014
(dp3015
g74
(dp3016
g82
I3
ssg83
g3010
sg76
(lp3017
g1392
asbasbasbag69
(g85
g71
NtRp3018
(dp3019
g74
(dp3020
sg83
g2678
sg76
(lp3021
g69
(g90
g71
NtRp3022
(dp3023
g74
(dp3024
g94
g95
ssg83
g3018
sg76
(lp3025
S'SCRIPT_NAME'
p3026
asbag69
(g90
g71
NtRp3027
(dp3028
g74
(dp3029
g101
g102
ssg83
g3018
sg76
(lp3030
S':'
asbag69
(g90
g71
NtRp3031
(dp3032
g74
(dp3033
sg83
g3018
sg76
(lp3034
g69
(g70
g71
NtRp3035
(dp3036
g74
(dp3037
g82
I3
ssg83
g3031
sg76
(lp3038
S''
asbasbasbag69
(g85
g71
NtRp3039
(dp3040
g74
(dp3041
sg83
g2678
sg76
(lp3042
g69
(g90
g71
NtRp3043
(dp3044
g74
(dp3045
g94
g95
ssg83
g3039
sg76
(lp3046
S'SERVER_NAME'
p3047
asbag69
(g90
g71
NtRp3048
(dp3049
g74
(dp3050
g101
g102
ssg83
g3039
sg76
(lp3051
S':'
asbag69
(g90
g71
NtRp3052
(dp3053
g74
(dp3054
sg83
g3039
sg76
(lp3055
g69
(g70
g71
NtRp3056
(dp3057
g74
(dp3058
g82
I3
ssg83
g3052
sg76
(lp3059
g1357
asbasbasbag69
(g85
g71
NtRp3060
(dp3061
g74
(dp3062
sg83
g2678
sg76
(lp3063
g69
(g90
g71
NtRp3064
(dp3065
g74
(dp3066
g94
g95
ssg83
g3060
sg76
(lp3067
S'SERVER_PORT'
p3068
asbag69
(g90
g71
NtRp3069
(dp3070
g74
(dp3071
g101
g102
ssg83
g3060
sg76
(lp3072
S':'
asbag69
(g90
g71
NtRp3073
(dp3074
g74
(dp3075
sg83
g3060
sg76
(lp3076
g69
(g70
g71
NtRp3077
(dp3078
g74
(dp3079
g82
I3
ssg83
g3073
sg76
(lp3080
g1563
asbasbasbag69
(g85
g71
NtRp3081
(dp3082
g74
(dp3083
sg83
g2678
sg76
(lp3084
g69
(g90
g71
NtRp3085
(dp3086
g74
(dp3087
g94
g95
ssg83
g3081
sg76
(lp3088
S'SERVER_PROTOCOL'
p3089
asbag69
(g90
g71
NtRp3090
(dp3091
g74
(dp3092
g101
g102
ssg83
g3081
sg76
(lp3093
S':'
asbag69
(g90
g71
NtRp3094
(dp3095
g74
(dp3096
sg83
g3081
sg76
(lp3097
g69
(g70
g71
NtRp3098
(dp3099
g74
(dp3100
g82
I3
ssg83
g3094
sg76
(lp3101
g1585
asbasbasbag69
(g85
g71
NtRp3102
(dp3103
g74
(dp3104
sg83
g2678
sg76
(lp3105
g69
(g90
g71
NtRp3106
(dp3107
g74
(dp3108
g94
g95
ssg83
g3102
sg76
(lp3109
S'SERVER_SOFTWARE'
p3110
asbag69
(g90
g71
NtRp3111
(dp3112
g74
(dp3113
g101
g102
ssg83
g3102
sg76
(lp3114
S':'
asbag69
(g90
g71
NtRp3115
(dp3116
g74
(dp3117
sg83
g3102
sg76
(lp3118
g69
(g70
g71
NtRp3119
(dp3120
g74
(dp3121
g82
I3
ssg83
g3115
sg76
(lp3122
g1607
asbasbasbag69
(g85
g71
NtRp3123
(dp3124
g74
(dp3125
sg83
g2678
sg76
(lp3126
g69
(g90
g71
NtRp3127
(dp3128
g74
(dp3129
g94
g95
ssg83
g3123
sg76
(lp3130
S'wsgi.errors'
p3131
asbag69
(g90
g71
NtRp3132
(dp3133
g74
(dp3134
g101
g102
ssg83
g3123
sg76
(lp3135
S':'
asbag69
(g90
g71
NtRp3136
(dp3137
g74
(dp3138
sg83
g3123
sg76
(lp3139
g69
(g70
g71
NtRp3140
(dp3141
g74
(dp3142
g82
I3
ssg83
g3136
sg76
(lp3143
S"<open file '<stderr>', mode 'w' at 0x7f97a1c89270>"
p3144
asbasbasbag69
(g85
g71
NtRp3145
(dp3146
g74
(dp3147
sg83
g2678
sg76
(lp3148
g69
(g90
g71
NtRp3149
(dp3150
g74
(dp3151
g94
g95
ssg83
g3145
sg76
(lp3152
S'wsgi.file_wrapper'
p3153
asbag69
(g90
g71
NtRp3154
(dp3155
g74
(dp3156
g101
g102
ssg83
g3145
sg76
(lp3157
S':'
asbag69
(g90
g71
NtRp3158
(dp3159
g74
(dp3160
sg83
g3145
sg76
(lp3161
g69
(g70
g71
NtRp3162
(dp3163
g74
(dp3164
g82
I3
ssg83
g3158
sg76
(lp3165
S'<class wsgiref.util.FileWrapper at 0x1ac1808>'
p3166
asbasbasbag69
(g85
g71
NtRp3167
(dp3168
g74
(dp3169
sg83
g2678
sg76
(lp3170
g69
(g90
g71
NtRp3171
(dp3172
g74
(dp3173
g94
g95
ssg83
g3167
sg76
(lp3174
S'wsgi.input'
p3175
asbag69
(g90
g71
NtRp3176
(dp3177
g74
(dp3178
g101
g102
ssg83
g3167
sg76
(lp3179
S':'
asbag69
(g90
g71
NtRp3180
(dp3181
g74
(dp3182
sg83
g3167
sg76
(lp3183
g69
(g70
g71
NtRp3184
(dp3185
g74
(dp3186
g82
I3
ssg83
g3180
sg76
(lp3187
S'<cStringIO.StringO object at 0x7f975c3323b0>'
p3188
asbasbasbag69
(g85
g71
NtRp3189
(dp3190
g74
(dp3191
sg83
g2678
sg76
(lp3192
g69
(g90
g71
NtRp3193
(dp3194
g74
(dp3195
g94
g95
ssg83
g3189
sg76
(lp3196
S'wsgi.multiprocess'
p3197
asbag69
(g90
g71
NtRp3198
(dp3199
g74
(dp3200
g101
g102
ssg83
g3189
sg76
(lp3201
S':'
asbag69
(g90
g71
NtRp3202
(dp3203
g74
(dp3204
sg83
g3189
sg76
(lp3205
g69
(g70
g71
NtRp3206
(dp3207
g74
(dp3208
g82
I3
ssg83
g3202
sg76
(lp3209
g112
asbasbasbag69
(g85
g71
NtRp3210
(dp3211
g74
(dp3212
sg83
g2678
sg76
(lp3213
g69
(g90
g71
NtRp3214
(dp3215
g74
(dp3216
g94
g95
ssg83
g3210
sg76
(lp3217
S'wsgi.multithread'
p3218
asbag69
(g90
g71
NtRp3219
(dp3220
g74
(dp3221
g101
g102
ssg83
g3210
sg76
(lp3222
S':'
asbag69
(g90
g71
NtRp3223
(dp3224
g74
(dp3225
sg83
g3210
sg76
(lp3226
g69
(g70
g71
NtRp3227
(dp3228
g74
(dp3229
g82
I3
ssg83
g3223
sg76
(lp3230
g1824
asbasbasbag69
(g85
g71
NtRp3231
(dp3232
g74
(dp3233
sg83
g2678
sg76
(lp3234
g69
(g90
g71
NtRp3235
(dp3236
g74
(dp3237
g94
g95
ssg83
g3231
sg76
(lp3238
S'wsgi.run_once'
p3239
asbag69
(g90
g71
NtRp3240
(dp3241
g74
(dp3242
g101
g102
ssg83
g3231
sg76
(lp3243
S':'
asbag69
(g90
g71
NtRp3244
(dp3245
g74
(dp3246
sg83
g3231
sg76
(lp3247
g69
(g70
g71
NtRp3248
(dp3249
g74
(dp3250
g82
I3
ssg83
g3244
sg76
(lp3251
g112
asbasbasbag69
(g85
g71
NtRp3252
(dp3253
g74
(dp3254
sg83
g2678
sg76
(lp3255
g69
(g90
g71
NtRp3256
(dp3257
g74
(dp3258
g94
g95
ssg83
g3252
sg76
(lp3259
S'wsgi.url_scheme'
p3260
asbag69
(g90
g71
NtRp3261
(dp3262
g74
(dp3263
g101
g102
ssg83
g3252
sg76
(lp3264
S':'
asbag69
(g90
g71
NtRp3265
(dp3266
g74
(dp3267
sg83
g3252
sg76
(lp3268
g69
(g70
g71
NtRp3269
(dp3270
g74
(dp3271
g82
I3
ssg83
g3265
sg76
(lp3272
g1867
asbasbasbag69
(g85
g71
NtRp3273
(dp3274
g74
(dp3275
sg83
g2678
sg76
(lp3276
g69
(g90
g71
NtRp3277
(dp3278
g74
(dp3279
g94
g95
ssg83
g3273
sg76
(lp3280
S'wsgi.version'
p3281
asbag69
(g90
g71
NtRp3282
(dp3283
g74
(dp3284
g101
g102
ssg83
g3273
sg76
(lp3285
S':'
asbag69
(g90
g71
NtRp3286
(dp3287
g74
(dp3288
sg83
g3273
sg76
(lp3289
g69
(g70
g71
NtRp3290
(dp3291
g74
(dp3292
g82
I3
ssg83
g3286
sg76
(lp3293
S'1'
asbasbasbasbasbasbasbasbasbasbasbasbasbsS'frames'
p3294
(lp3295
(dp3296
S'file'
p3297
S'/home/wionel/Desktop/web2py/gluon/restricted.py'
p3298
sS'dump'
p3299
(dp3300
S'code'
p3301
S'\'left_sidebar_enabled,right_sidebar_enabled=False...(\\\'"></script>\\\\n</body>\\\\n</html>\\\\n\\\', escape=False)\''
p3302
sS'layer'
p3303
S"'/home/wionel/Desktop/web2py/applications/music/views/default/index.html'"
p3304
sS'global compile2'
p3305
S'<function compile2>'
p3306
sS'ccode'
p3307
S'undefined'
p3308
ssS'lnum'
p3309
I211
sS'lines'
p3310
(dp3311
I206
S"    environment['__name__'] = '__restricted__'"
p3312
sI207
S'    try:'
p3313
sI208
S'        if isinstance(code, types.CodeType):'
p3314
sI209
S'            ccode = code'
p3315
sI210
S'        else:'
p3316
sI211
S'            ccode = compile2(code, layer)'
p3317
sI212
S'        exec ccode in environment'
p3318
sI213
S'    except HTTP:'
p3319
sI214
S'        raise'
p3320
sI215
S'    except RestrictedError:'
p3321
ssS'call'
p3322
S'(code=\'left_sidebar_enabled,right_sidebar_enabled=False...(\\\'"></script>\\\\n</body>\\\\n</html>\\\\n\\\', escape=False)\', environment={\'A\': <class \'gluon.html.A\'>, \'Auth\': <class \'gluon.tools.Auth\'>, \'B\': <class \'gluon.html.B\'>, \'BEAUTIFY\': <class \'gluon.html.BEAUTIFY\'>, \'BODY\': <class \'gluon.html.BODY\'>, \'BR\': <class \'gluon.html.BR\'>, \'BUTTON\': <class \'gluon.html.BUTTON\'>, \'CAT\': <class \'gluon.html.CAT\'>, \'CENTER\': <class \'gluon.html.CENTER\'>, \'CLEANUP\': <class \'gluon.validators.CLEANUP\'>, ...}, layer=\'/home/wionel/Desktop/web2py/applications/music/views/default/index.html\')'
p3323
sS'func'
p3324
S'restricted'
p3325
sa(dp3326
g3297
S'/home/wionel/Desktop/web2py/gluon/restricted.py'
p3327
sg3299
(dp3328
S'builtincompile'
p3329
S'<built-in function compile>'
p3330
sS'code'
p3331
S'\'left_sidebar_enabled,right_sidebar_enabled=False...(\\\'"></script>\\\\n</body>\\\\n</html>\\\\n\\\', escape=False)\''
p3332
sS'code.rstrip'
p3333
S'<built-in method rstrip of str object>'
p3334
sS').replace'
p3335
g3308
sS'layer'
p3336
S"'/home/wionel/Desktop/web2py/applications/music/views/default/index.html'"
p3337
ssg3309
I194
sg3310
(dp3338
I192
S"    The +'\\n' is necessary else compile fails when code ends in a comment."
p3339
sI193
S'    """'
p3340
sI194
S"    return compile(code.rstrip().replace('\\r\\n', '\\n') + '\\n', layer, 'exec')"
p3341
sI195
S''
sI196
S''
sI197
S"def restricted(code, environment=None, layer='Unknown'):"
p3342
sI198
S'    """'
p3343
sI189
S''
sI190
S'def compile2(code, layer):'
p3344
sI191
S'    """'
p3345
ssg3322
S'(code=\'left_sidebar_enabled,right_sidebar_enabled=False...(\\\'"></script>\\\\n</body>\\\\n</html>\\\\n\\\', escape=False)\', layer=\'/home/wionel/Desktop/web2py/applications/music/views/default/index.html\')'
p3346
sg3324
S'compile2'
p3347
sasS'pyver'
p3348
S'Python 2.7.3: /usr/bin/python'
p3349
sS'session'
p3350
g69
(g70
g71
NtRp3351
(dp3352
g74
(dp3353
sg76
(lp3354
g69
(g78
g71
NtRp3355
(dp3356
g74
(dp3357
g82
I5
ssg83
Nsg76
(lp3358
g69
(g85
g71
NtRp3359
(dp3360
g74
(dp3361
sg83
g3355
sg76
(lp3362
g69
(g90
g71
NtRp3363
(dp3364
g74
(dp3365
g94
g95
ssg83
g3359
sg76
(lp3366
S'auth'
p3367
asbag69
(g90
g71
NtRp3368
(dp3369
g74
(dp3370
g101
g102
ssg83
g3359
sg76
(lp3371
S':'
asbag69
(g90
g71
NtRp3372
(dp3373
g74
(dp3374
sg83
g3359
sg76
(lp3375
g69
(g70
g71
NtRp3376
(dp3377
g74
(dp3378
g82
I5
ssg83
g3372
sg76
(lp3379
S'None'
p3380
asbasbasbag69
(g85
g71
NtRp3381
(dp3382
g74
(dp3383
sg83
g3355
sg76
(lp3384
g69
(g90
g71
NtRp3385
(dp3386
g74
(dp3387
g94
g95
ssg83
g3381
sg76
(lp3388
S'flash'
p3389
asbag69
(g90
g71
NtRp3390
(dp3391
g74
(dp3392
g101
g102
ssg83
g3381
sg76
(lp3393
S':'
asbag69
(g90
g71
NtRp3394
(dp3395
g74
(dp3396
sg83
g3381
sg76
(lp3397
g69
(g70
g71
NtRp3398
(dp3399
g74
(dp3400
g82
I5
ssg83
g3394
sg76
(lp3401
S'None'
p3402
asbasbasbag69
(g85
g71
NtRp3403
(dp3404
g74
(dp3405
sg83
g3355
sg76
(lp3406
g69
(g90
g71
NtRp3407
(dp3408
g74
(dp3409
g94
g95
ssg83
g3403
sg76
(lp3410
S'last_orderby'
p3411
asbag69
(g90
g71
NtRp3412
(dp3413
g74
(dp3414
g101
g102
ssg83
g3403
sg76
(lp3415
S':'
asbag69
(g90
g71
NtRp3416
(dp3417
g74
(dp3418
sg83
g3403
sg76
(lp3419
g69
(g70
g71
NtRp3420
(dp3421
g74
(dp3422
g82
I5
ssg83
g3416
sg76
(lp3423
S'None'
p3424
asbasbasbag69
(g85
g71
NtRp3425
(dp3426
g74
(dp3427
sg83
g3355
sg76
(lp3428
g69
(g90
g71
NtRp3429
(dp3430
g74
(dp3431
g94
g95
ssg83
g3425
sg76
(lp3432
S'last_query'
p3433
asbag69
(g90
g71
NtRp3434
(dp3435
g74
(dp3436
g101
g102
ssg83
g3425
sg76
(lp3437
S':'
asbag69
(g90
g71
NtRp3438
(dp3439
g74
(dp3440
sg83
g3425
sg76
(lp3441
g69
(g70
g71
NtRp3442
(dp3443
g74
(dp3444
g82
I5
ssg83
g3438
sg76
(lp3445
S'db.playlist.id>0'
p3446
asbasbasbasbasbsS'etype'
p3447
S"<type 'exceptions.SyntaxError'>"
p3448
sS'date'
p3449
S'Thu Nov 15 23:32:31 2012'
p3450
sS'response'
p3451
g69
(g70
g71
NtRp3452
(dp3453
g74
(dp3454
sg76
(lp3455
g69
(g78
g71
NtRp3456
(dp3457
g74
(dp3458
g82
I5
ssg83
Nsg76
(lp3459
g69
(g85
g71
NtRp3460
(dp3461
g74
(dp3462
sg83
g3456
sg76
(lp3463
g69
(g90
g71
NtRp3464
(dp3465
g74
(dp3466
g94
g95
ssg83
g3460
sg76
(lp3467
g167
asbag69
(g90
g71
NtRp3468
(dp3469
g74
(dp3470
g101
g102
ssg83
g3460
sg76
(lp3471
S':'
asbag69
(g90
g71
NtRp3472
(dp3473
g74
(dp3474
sg83
g3460
sg76
(lp3475
g69
(g70
g71
NtRp3476
(dp3477
g74
(dp3478
g82
I5
ssg83
g3472
sg76
(lp3479
S'<cStringIO.StringO object at 0x7f975c0f6308>'
p3480
asbasbasbag69
(g85
g71
NtRp3481
(dp3482
g74
(dp3483
sg83
g3456
sg76
(lp3484
g69
(g90
g71
NtRp3485
(dp3486
g74
(dp3487
g94
g95
ssg83
g3481
sg76
(lp3488
g255
asbag69
(g90
g71
NtRp3489
(dp3490
g74
(dp3491
g101
g102
ssg83
g3481
sg76
(lp3492
S':'
asbag69
(g90
g71
NtRp3493
(dp3494
g74
(dp3495
sg83
g3481
sg76
(lp3496
g69
(g70
g71
NtRp3497
(dp3498
g74
(dp3499
g82
I5
ssg83
g3493
sg76
(lp3500
g69
(g78
g71
NtRp3501
(dp3502
g74
(dp3503
g82
I4
ssg83
Nsg76
(lp3504
g69
(g85
g71
NtRp3505
(dp3506
g74
(dp3507
sg83
g3501
sg76
(lp3508
g69
(g90
g71
NtRp3509
(dp3510
g74
(dp3511
g94
g95
ssg83
g3505
sg76
(lp3512
S'session_id_music'
p3513
asbag69
(g90
g71
NtRp3514
(dp3515
g74
(dp3516
g101
g102
ssg83
g3505
sg76
(lp3517
S':'
asbag69
(g90
g71
NtRp3518
(dp3519
g74
(dp3520
sg83
g3505
sg76
(lp3521
g69
(g70
g71
NtRp3522
(dp3523
g74
(dp3524
g82
I4
ssg83
g3518
sg76
(lp3525
g487
ag69
(g78
g71
NtRp3526
(dp3527
g74
(dp3528
g82
I3
ssg83
Nsg76
(lp3529
g69
(g85
g71
NtRp3530
(dp3531
g74
(dp3532
sg83
g3526
sg76
(lp3533
g69
(g90
g71
NtRp3534
(dp3535
g74
(dp3536
g94
g95
ssg83
g3530
sg76
(lp3537
g306
asbag69
(g90
g71
NtRp3538
(dp3539
g74
(dp3540
g101
g102
ssg83
g3530
sg76
(lp3541
S':'
asbag69
(g90
g71
NtRp3542
(dp3543
g74
(dp3544
sg83
g3530
sg76
(lp3545
g69
(g70
g71
NtRp3546
(dp3547
g74
(dp3548
g82
I3
ssg83
g3542
sg76
(lp3549
S''
asbasbasbag69
(g85
g71
NtRp3550
(dp3551
g74
(dp3552
sg83
g3526
sg76
(lp3553
g69
(g90
g71
NtRp3554
(dp3555
g74
(dp3556
g94
g95
ssg83
g3550
sg76
(lp3557
g327
asbag69
(g90
g71
NtRp3558
(dp3559
g74
(dp3560
g101
g102
ssg83
g3550
sg76
(lp3561
S':'
asbag69
(g90
g71
NtRp3562
(dp3563
g74
(dp3564
sg83
g3550
sg76
(lp3565
g69
(g70
g71
NtRp3566
(dp3567
g74
(dp3568
g82
I3
ssg83
g3562
sg76
(lp3569
S''
asbasbasbag69
(g85
g71
NtRp3570
(dp3571
g74
(dp3572
sg83
g3526
sg76
(lp3573
g69
(g90
g71
NtRp3574
(dp3575
g74
(dp3576
g94
g95
ssg83
g3570
sg76
(lp3577
g348
asbag69
(g90
g71
NtRp3578
(dp3579
g74
(dp3580
g101
g102
ssg83
g3570
sg76
(lp3581
S':'
asbag69
(g90
g71
NtRp3582
(dp3583
g74
(dp3584
sg83
g3570
sg76
(lp3585
g69
(g70
g71
NtRp3586
(dp3587
g74
(dp3588
g82
I3
ssg83
g3582
sg76
(lp3589
S''
asbasbasbag69
(g85
g71
NtRp3590
(dp3591
g74
(dp3592
sg83
g3526
sg76
(lp3593
g69
(g90
g71
NtRp3594
(dp3595
g74
(dp3596
g94
g95
ssg83
g3590
sg76
(lp3597
g369
asbag69
(g90
g71
NtRp3598
(dp3599
g74
(dp3600
g101
g102
ssg83
g3590
sg76
(lp3601
S':'
asbag69
(g90
g71
NtRp3602
(dp3603
g74
(dp3604
sg83
g3590
sg76
(lp3605
g69
(g70
g71
NtRp3606
(dp3607
g74
(dp3608
g82
I3
ssg83
g3602
sg76
(lp3609
S''
asbasbasbag69
(g85
g71
NtRp3610
(dp3611
g74
(dp3612
sg83
g3526
sg76
(lp3613
g69
(g90
g71
NtRp3614
(dp3615
g74
(dp3616
g94
g95
ssg83
g3610
sg76
(lp3617
g390
asbag69
(g90
g71
NtRp3618
(dp3619
g74
(dp3620
g101
g102
ssg83
g3610
sg76
(lp3621
S':'
asbag69
(g90
g71
NtRp3622
(dp3623
g74
(dp3624
sg83
g3610
sg76
(lp3625
g69
(g70
g71
NtRp3626
(dp3627
g74
(dp3628
g82
I3
ssg83
g3622
sg76
(lp3629
S''
asbasbasbag69
(g85
g71
NtRp3630
(dp3631
g74
(dp3632
sg83
g3526
sg76
(lp3633
g69
(g90
g71
NtRp3634
(dp3635
g74
(dp3636
g94
g95
ssg83
g3630
sg76
(lp3637
g411
asbag69
(g90
g71
NtRp3638
(dp3639
g74
(dp3640
g101
g102
ssg83
g3630
sg76
(lp3641
S':'
asbag69
(g90
g71
NtRp3642
(dp3643
g74
(dp3644
sg83
g3630
sg76
(lp3645
g69
(g70
g71
NtRp3646
(dp3647
g74
(dp3648
g82
I3
ssg83
g3642
sg76
(lp3649
S'/'
asbasbasbag69
(g85
g71
NtRp3650
(dp3651
g74
(dp3652
sg83
g3526
sg76
(lp3653
g69
(g90
g71
NtRp3654
(dp3655
g74
(dp3656
g94
g95
ssg83
g3650
sg76
(lp3657
g432
asbag69
(g90
g71
NtRp3658
(dp3659
g74
(dp3660
g101
g102
ssg83
g3650
sg76
(lp3661
S':'
asbag69
(g90
g71
NtRp3662
(dp3663
g74
(dp3664
sg83
g3650
sg76
(lp3665
g69
(g70
g71
NtRp3666
(dp3667
g74
(dp3668
g82
I3
ssg83
g3662
sg76
(lp3669
S''
asbasbasbag69
(g85
g71
NtRp3670
(dp3671
g74
(dp3672
sg83
g3526
sg76
(lp3673
g69
(g90
g71
NtRp3674
(dp3675
g74
(dp3676
g94
g95
ssg83
g3670
sg76
(lp3677
g453
asbag69
(g90
g71
NtRp3678
(dp3679
g74
(dp3680
g101
g102
ssg83
g3670
sg76
(lp3681
S':'
asbag69
(g90
g71
NtRp3682
(dp3683
g74
(dp3684
sg83
g3670
sg76
(lp3685
g69
(g70
g71
NtRp3686
(dp3687
g74
(dp3688
g82
I3
ssg83
g3682
sg76
(lp3689
S''
asbasbasbasbasbasbasbasbasbasbasbag69
(g85
g71
NtRp3690
(dp3691
g74
(dp3692
sg83
g3456
sg76
(lp3693
g69
(g90
g71
NtRp3694
(dp3695
g74
(dp3696
g94
g95
ssg83
g3690
sg76
(lp3697
S'delimiters'
p3698
asbag69
(g90
g71
NtRp3699
(dp3700
g74
(dp3701
g101
g102
ssg83
g3690
sg76
(lp3702
S':'
asbag69
(g90
g71
NtRp3703
(dp3704
g74
(dp3705
sg83
g3690
sg76
(lp3706
g69
(g70
g71
NtRp3707
(dp3708
g74
(dp3709
g82
I5
ssg83
g3703
sg76
(lp3710
g69
(g78
g71
NtRp3711
(dp3712
g74
(dp3713
g82
I4
ssg83
Nsg76
(lp3714
g69
(g85
g71
NtRp3715
(dp3716
g74
(dp3717
sg83
g3711
sg76
(lp3718
g69
(g90
g71
NtRp3719
(dp3720
g74
(dp3721
sg83
g3715
sg76
(lp3722
g69
(g70
g71
NtRp3723
(dp3724
g74
(dp3725
g82
I4
ssg83
g3719
sg76
(lp3726
S'{{'
p3727
asbasbasbag69
(g85
g71
NtRp3728
(dp3729
g74
(dp3730
sg83
g3711
sg76
(lp3731
g69
(g90
g71
NtRp3732
(dp3733
g74
(dp3734
sg83
g3728
sg76
(lp3735
g69
(g70
g71
NtRp3736
(dp3737
g74
(dp3738
g82
I4
ssg83
g3732
sg76
(lp3739
S'}}'
p3740
asbasbasbasbasbasbasbag69
(g85
g71
NtRp3741
(dp3742
g74
(dp3743
sg83
g3456
sg76
(lp3744
g69
(g90
g71
NtRp3745
(dp3746
g74
(dp3747
g94
g95
ssg83
g3741
sg76
(lp3748
S'files'
p3749
asbag69
(g90
g71
NtRp3750
(dp3751
g74
(dp3752
g101
g102
ssg83
g3741
sg76
(lp3753
S':'
asbag69
(g90
g71
NtRp3754
(dp3755
g74
(dp3756
sg83
g3741
sg76
(lp3757
g69
(g70
g71
NtRp3758
(dp3759
g74
(dp3760
g82
I5
ssg83
g3754
sg76
(lp3761
g69
(g78
g71
NtRp3762
(dp3763
g74
(dp3764
g82
I4
ssg83
Nsg76
(lp3765
sbasbasbasbag69
(g85
g71
NtRp3766
(dp3767
g74
(dp3768
sg83
g3456
sg76
(lp3769
g69
(g90
g71
NtRp3770
(dp3771
g74
(dp3772
g94
g95
ssg83
g3766
sg76
(lp3773
S'flash'
p3774
asbag69
(g90
g71
NtRp3775
(dp3776
g74
(dp3777
g101
g102
ssg83
g3766
sg76
(lp3778
S':'
asbag69
(g90
g71
NtRp3779
(dp3780
g74
(dp3781
sg83
g3766
sg76
(lp3782
g69
(g70
g71
NtRp3783
(dp3784
g74
(dp3785
g82
I5
ssg83
g3779
sg76
(lp3786
cgluon.languages
lazyT_unpickle
p3787
(S's&\x00\x00\x00Please log in listen to your playlist!'
tRp3788
asbasbasbag69
(g85
g71
NtRp3789
(dp3790
g74
(dp3791
sg83
g3456
sg76
(lp3792
g69
(g90
g71
NtRp3793
(dp3794
g74
(dp3795
g94
g95
ssg83
g3789
sg76
(lp3796
S'generic_patterns'
p3797
asbag69
(g90
g71
NtRp3798
(dp3799
g74
(dp3800
g101
g102
ssg83
g3789
sg76
(lp3801
S':'
asbag69
(g90
g71
NtRp3802
(dp3803
g74
(dp3804
sg83
g3789
sg76
(lp3805
g69
(g70
g71
NtRp3806
(dp3807
g74
(dp3808
g82
I5
ssg83
g3802
sg76
(lp3809
g69
(g78
g71
NtRp3810
(dp3811
g74
(dp3812
g82
I4
ssg83
Nsg76
(lp3813
g69
(g85
g71
NtRp3814
(dp3815
g74
(dp3816
sg83
g3810
sg76
(lp3817
g69
(g90
g71
NtRp3818
(dp3819
g74
(dp3820
sg83
g3814
sg76
(lp3821
g69
(g70
g71
NtRp3822
(dp3823
g74
(dp3824
g82
I4
ssg83
g3818
sg76
(lp3825
S'*'
asbasbasbasbasbasbasbag69
(g85
g71
NtRp3826
(dp3827
g74
(dp3828
sg83
g3456
sg76
(lp3829
g69
(g90
g71
NtRp3830
(dp3831
g74
(dp3832
g94
g95
ssg83
g3826
sg76
(lp3833
S'google_analytics_id'
p3834
asbag69
(g90
g71
NtRp3835
(dp3836
g74
(dp3837
g101
g102
ssg83
g3826
sg76
(lp3838
S':'
asbag69
(g90
g71
NtRp3839
(dp3840
g74
(dp3841
sg83
g3826
sg76
(lp3842
g69
(g70
g71
NtRp3843
(dp3844
g74
(dp3845
g82
I5
ssg83
g3839
sg76
(lp3846
S'None'
p3847
asbasbasbag69
(g85
g71
NtRp3848
(dp3849
g74
(dp3850
sg83
g3456
sg76
(lp3851
g69
(g90
g71
NtRp3852
(dp3853
g74
(dp3854
g94
g95
ssg83
g3848
sg76
(lp3855
S'headers'
p3856
asbag69
(g90
g71
NtRp3857
(dp3858
g74
(dp3859
g101
g102
ssg83
g3848
sg76
(lp3860
S':'
asbag69
(g90
g71
NtRp3861
(dp3862
g74
(dp3863
sg83
g3848
sg76
(lp3864
g69
(g70
g71
NtRp3865
(dp3866
g74
(dp3867
g82
I5
ssg83
g3861
sg76
(lp3868
g69
(g78
g71
NtRp3869
(dp3870
g74
(dp3871
g82
I4
ssg83
Nsg76
(lp3872
g69
(g85
g71
NtRp3873
(dp3874
g74
(dp3875
sg83
g3869
sg76
(lp3876
g69
(g90
g71
NtRp3877
(dp3878
g74
(dp3879
g94
g95
ssg83
g3873
sg76
(lp3880
S'X-Powered-By'
p3881
asbag69
(g90
g71
NtRp3882
(dp3883
g74
(dp3884
g101
g102
ssg83
g3873
sg76
(lp3885
S':'
asbag69
(g90
g71
NtRp3886
(dp3887
g74
(dp3888
sg83
g3873
sg76
(lp3889
g69
(g70
g71
NtRp3890
(dp3891
g74
(dp3892
g82
I4
ssg83
g3886
sg76
(lp3893
S'web2py'
p3894
asbasbasbasbasbasbasbag69
(g85
g71
NtRp3895
(dp3896
g74
(dp3897
sg83
g3456
sg76
(lp3898
g69
(g90
g71
NtRp3899
(dp3900
g74
(dp3901
g94
g95
ssg83
g3895
sg76
(lp3902
S'menu'
p3903
asbag69
(g90
g71
NtRp3904
(dp3905
g74
(dp3906
g101
g102
ssg83
g3895
sg76
(lp3907
S':'
asbag69
(g90
g71
NtRp3908
(dp3909
g74
(dp3910
sg83
g3895
sg76
(lp3911
g69
(g70
g71
NtRp3912
(dp3913
g74
(dp3914
g82
I5
ssg83
g3908
sg76
(lp3915
g69
(g78
g71
NtRp3916
(dp3917
g74
(dp3918
g82
I4
ssg83
Nsg76
(lp3919
g69
(g85
g71
NtRp3920
(dp3921
g74
(dp3922
sg83
g3916
sg76
(lp3923
g69
(g90
g71
NtRp3924
(dp3925
g74
(dp3926
sg83
g3920
sg76
(lp3927
g69
(g70
g71
NtRp3928
(dp3929
g74
(dp3930
g82
I4
ssg83
g3924
sg76
(lp3931
g69
(g78
g71
NtRp3932
(dp3933
g74
(dp3934
g82
I3
ssg83
Nsg76
(lp3935
g69
(g85
g71
NtRp3936
(dp3937
g74
(dp3938
sg83
g3932
sg76
(lp3939
g69
(g90
g71
NtRp3940
(dp3941
g74
(dp3942
sg83
g3936
sg76
(lp3943
g69
(g70
g71
NtRp3944
(dp3945
g74
(dp3946
g82
I3
ssg83
g3940
sg76
(lp3947
g3787
(S's\x04\x00\x00\x00Home'
tRp3948
asbasbasbag69
(g85
g71
NtRp3949
(dp3950
g74
(dp3951
sg83
g3932
sg76
(lp3952
g69
(g90
g71
NtRp3953
(dp3954
g74
(dp3955
sg83
g3949
sg76
(lp3956
g69
(g70
g71
NtRp3957
(dp3958
g74
(dp3959
g82
I3
ssg83
g3953
sg76
(lp3960
g112
asbasbasbag69
(g85
g71
NtRp3961
(dp3962
g74
(dp3963
sg83
g3932
sg76
(lp3964
g69
(g90
g71
NtRp3965
(dp3966
g74
(dp3967
sg83
g3961
sg76
(lp3968
g69
(g70
g71
NtRp3969
(dp3970
g74
(dp3971
g82
I3
ssg83
g3965
sg76
(lp3972
S'/music/default/index'
p3973
asbasbasbag69
(g85
g71
NtRp3974
(dp3975
g74
(dp3976
sg83
g3932
sg76
(lp3977
g69
(g90
g71
NtRp3978
(dp3979
g74
(dp3980
sg83
g3974
sg76
(lp3981
g69
(g70
g71
NtRp3982
(dp3983
g74
(dp3984
g82
I3
ssg83
g3978
sg76
(lp3985
g69
(g78
g71
NtRp3986
(dp3987
g74
(dp3988
g82
I2
ssg83
Nsg76
(lp3989
sbasbasbasbasbasbasbasbag69
(g85
g71
NtRp3990
(dp3991
g74
(dp3992
sg83
g3916
sg76
(lp3993
g69
(g90
g71
NtRp3994
(dp3995
g74
(dp3996
sg83
g3990
sg76
(lp3997
g69
(g70
g71
NtRp3998
(dp3999
g74
(dp4000
g82
I4
ssg83
g3994
sg76
(lp4001
g69
(g78
g71
NtRp4002
(dp4003
g74
(dp4004
g82
I3
ssg83
Nsg76
(lp4005
g69
(g85
g71
NtRp4006
(dp4007
g74
(dp4008
sg83
g4002
sg76
(lp4009
g69
(g90
g71
NtRp4010
(dp4011
g74
(dp4012
sg83
g4006
sg76
(lp4013
g69
(g70
g71
NtRp4014
(dp4015
g74
(dp4016
g82
I3
ssg83
g4010
sg76
(lp4017
g69
(cgluon.html
SPAN
p4018
g71
NtRp4019
(dp4020
g74
(dp4021
S'_class'
p4022
S'highlighted'
p4023
ssg83
Nsg76
(lp4024
g3894
asbasbasbasbag69
(g85
g71
NtRp4025
(dp4026
g74
(dp4027
sg83
g4002
sg76
(lp4028
g69
(g90
g71
NtRp4029
(dp4030
g74
(dp4031
sg83
g4025
sg76
(lp4032
g69
(g70
g71
NtRp4033
(dp4034
g74
(dp4035
g82
I3
ssg83
g4029
sg76
(lp4036
g112
asbasbasbag69
(g85
g71
NtRp4037
(dp4038
g74
(dp4039
sg83
g4002
sg76
(lp4040
g69
(g90
g71
NtRp4041
(dp4042
g74
(dp4043
sg83
g4037
sg76
(lp4044
g69
(g70
g71
NtRp4045
(dp4046
g74
(dp4047
g82
I3
ssg83
g4041
sg76
(lp4048
S'http://web2py.com'
p4049
asbasbasbag69
(g85
g71
NtRp4050
(dp4051
g74
(dp4052
sg83
g4002
sg76
(lp4053
g69
(g90
g71
NtRp4054
(dp4055
g74
(dp4056
sg83
g4050
sg76
(lp4057
g69
(g70
g71
NtRp4058
(dp4059
g74
(dp4060
g82
I3
ssg83
g4054
sg76
(lp4061
g69
(g78
g71
NtRp4062
(dp4063
g74
(dp4064
g82
I2
ssg83
Nsg76
(lp4065
g69
(g85
g71
NtRp4066
(dp4067
g74
(dp4068
sg83
g4062
sg76
(lp4069
g69
(g90
g71
NtRp4070
(dp4071
g74
(dp4072
sg83
g4066
sg76
(lp4073
g69
(g70
g71
NtRp4074
(dp4075
g74
(dp4076
g82
I2
ssg83
g4070
sg76
(lp4077
g69
(g78
g71
NtRp4078
(dp4079
g74
(dp4080
g82
I1
ssg83
Nsg76
(lp4081
g69
(g85
g71
NtRp4082
(dp4083
g74
(dp4084
sg83
g4078
sg76
(lp4085
g69
(g90
g71
NtRp4086
(dp4087
g74
(dp4088
sg83
g4082
sg76
(lp4089
g69
(g70
g71
NtRp4090
(dp4091
g74
(dp4092
g82
I1
ssg83
g4086
sg76
(lp4093
g3787
(S's\x08\x00\x00\x00My Sites'
tRp4094
asbasbasbag69
(g85
g71
NtRp4095
(dp4096
g74
(dp4097
sg83
g4078
sg76
(lp4098
g69
(g90
g71
NtRp4099
(dp4100
g74
(dp4101
sg83
g4095
sg76
(lp4102
g69
(g70
g71
NtRp4103
(dp4104
g74
(dp4105
g82
I1
ssg83
g4099
sg76
(lp4106
I00
asbasbasbag69
(g85
g71
NtRp4107
(dp4108
g74
(dp4109
sg83
g4078
sg76
(lp4110
g69
(g90
g71
NtRp4111
(dp4112
g74
(dp4113
sg83
g4107
sg76
(lp4114
g69
(g70
g71
NtRp4115
(dp4116
g74
(dp4117
g82
I1
ssg83
g4111
sg76
(lp4118
S'/admin/default/site'
p4119
asbasbasbasbasbasbasbag69
(g85
g71
NtRp4120
(dp4121
g74
(dp4122
sg83
g4062
sg76
(lp4123
g69
(g90
g71
NtRp4124
(dp4125
g74
(dp4126
sg83
g4120
sg76
(lp4127
g69
(g70
g71
NtRp4128
(dp4129
g74
(dp4130
g82
I2
ssg83
g4124
sg76
(lp4131
g69
(g78
g71
NtRp4132
(dp4133
g74
(dp4134
g82
I1
ssg83
Nsg76
(lp4135
g69
(g85
g71
NtRp4136
(dp4137
g74
(dp4138
sg83
g4132
sg76
(lp4139
g69
(g90
g71
NtRp4140
(dp4141
g74
(dp4142
sg83
g4136
sg76
(lp4143
g69
(g70
g71
NtRp4144
(dp4145
g74
(dp4146
g82
I1
ssg83
g4140
sg76
(lp4147
g3787
(S's\x08\x00\x00\x00This App'
tRp4148
asbasbasbag69
(g85
g71
NtRp4149
(dp4150
g74
(dp4151
sg83
g4132
sg76
(lp4152
g69
(g90
g71
NtRp4153
(dp4154
g74
(dp4155
sg83
g4149
sg76
(lp4156
g69
(g70
g71
NtRp4157
(dp4158
g74
(dp4159
g82
I1
ssg83
g4153
sg76
(lp4160
I00
asbasbasbag69
(g85
g71
NtRp4161
(dp4162
g74
(dp4163
sg83
g4132
sg76
(lp4164
g69
(g90
g71
NtRp4165
(dp4166
g74
(dp4167
sg83
g4161
sg76
(lp4168
g69
(g70
g71
NtRp4169
(dp4170
g74
(dp4171
g82
I1
ssg83
g4165
sg76
(lp4172
S'/admin/default/design/music'
p4173
asbasbasbag69
(g85
g71
NtRp4174
(dp4175
g74
(dp4176
sg83
g4132
sg76
(lp4177
g69
(g90
g71
NtRp4178
(dp4179
g74
(dp4180
sg83
g4174
sg76
(lp4181
g69
(g70
g71
NtRp4182
(dp4183
g74
(dp4184
g82
I1
ssg83
g4178
sg76
(lp4185
(lp4186
(g3787
(S's\n\x00\x00\x00Controller'
tRp4187
I00
S'/admin/default/edit/music/controllers/default.py'
tp4188
a(g3787
(S's\x04\x00\x00\x00View'
tRp4189
I00
S'/admin/default/edit/music/views/default/index.html'
tp4190
a(g3787
(S's\x06\x00\x00\x00Layout'
tRp4191
I00
S'/admin/default/edit/music/views/layout.html'
tp4192
a(g3787
(S's\n\x00\x00\x00Stylesheet'
tRp4193
I00
S'/admin/default/edit/music/static/css/web2py.css'
tp4194
a(g3787
(S's\x08\x00\x00\x00DB Model'
tRp4195
I00
S'/admin/default/edit/music/models/db.py'
tp4196
a(g3787
(S's\n\x00\x00\x00Menu Model'
tRp4197
I00
S'/admin/default/edit/music/models/menu.py'
tp4198
a(g3787
(S's\x08\x00\x00\x00Database'
tRp4199
I00
S'/music/appadmin/index'
tp4200
a(g3787
(S's\x06\x00\x00\x00Errors'
tRp4201
I00
S'/admin/default/errors/music'
tp4202
a(g3787
(S's\x05\x00\x00\x00About'
tRp4203
I00
S'/admin/default/about/music'
tp4204
aasbasbasbasbasbasbasbag69
(g85
g71
NtRp4205
(dp4206
g74
(dp4207
sg83
g4062
sg76
(lp4208
g69
(g90
g71
NtRp4209
(dp4210
g74
(dp4211
sg83
g4205
sg76
(lp4212
g69
(g70
g71
NtRp4213
(dp4214
g74
(dp4215
g82
I2
ssg83
g4209
sg76
(lp4216
g69
(g78
g71
NtRp4217
(dp4218
g74
(dp4219
g82
I1
ssg83
Nsg76
(lp4220
g69
(g85
g71
NtRp4221
(dp4222
g74
(dp4223
sg83
g4217
sg76
(lp4224
g69
(g90
g71
NtRp4225
(dp4226
g74
(dp4227
sg83
g4221
sg76
(lp4228
g69
(g70
g71
NtRp4229
(dp4230
g74
(dp4231
g82
I1
ssg83
g4225
sg76
(lp4232
S'web2py.com'
p4233
asbasbasbag69
(g85
g71
NtRp4234
(dp4235
g74
(dp4236
sg83
g4217
sg76
(lp4237
g69
(g90
g71
NtRp4238
(dp4239
g74
(dp4240
sg83
g4234
sg76
(lp4241
g69
(g70
g71
NtRp4242
(dp4243
g74
(dp4244
g82
I1
ssg83
g4238
sg76
(lp4245
I00
asbasbasbag69
(g85
g71
NtRp4246
(dp4247
g74
(dp4248
sg83
g4217
sg76
(lp4249
g69
(g90
g71
NtRp4250
(dp4251
g74
(dp4252
sg83
g4246
sg76
(lp4253
g69
(g70
g71
NtRp4254
(dp4255
g74
(dp4256
g82
I1
ssg83
g4250
sg76
(lp4257
S'http://www.web2py.com'
p4258
asbasbasbag69
(g85
g71
NtRp4259
(dp4260
g74
(dp4261
sg83
g4217
sg76
(lp4262
g69
(g90
g71
NtRp4263
(dp4264
g74
(dp4265
sg83
g4259
sg76
(lp4266
g69
(g70
g71
NtRp4267
(dp4268
g74
(dp4269
g82
I1
ssg83
g4263
sg76
(lp4270
(lp4271
(g3787
(S's\x08\x00\x00\x00Download'
tRp4272
I00
S'http://www.web2py.com/examples/default/download'
p4273
tp4274
a(g3787
(S's\x07\x00\x00\x00Support'
tRp4275
I00
S'http://www.web2py.com/examples/default/support'
p4276
tp4277
a(g3787
(S's\x04\x00\x00\x00Demo'
tRp4278
I00
S'http://web2py.com/demo_admin'
p4279
tp4280
a(g3787
(S's\x0e\x00\x00\x00Quick Examples'
tRp4281
I00
S'http://web2py.com/examples/default/examples'
p4282
tp4283
a(g3787
(S's\x03\x00\x00\x00FAQ'
tRp4284
I00
S'http://web2py.com/AlterEgo'
p4285
tp4286
a(g3787
(S's\x06\x00\x00\x00Videos'
tRp4287
I00
S'http://www.web2py.com/examples/default/videos/'
p4288
tp4289
a(g3787
(S's\x11\x00\x00\x00Free Applications'
tRp4290
I00
S'http://web2py.com/appliances'
p4291
tp4292
a(g3787
(S's\x07\x00\x00\x00Plugins'
tRp4293
I00
S'http://web2py.com/plugins'
p4294
tp4295
a(g3787
(S's\x07\x00\x00\x00Layouts'
tRp4296
I00
S'http://web2py.com/layouts'
p4297
tp4298
a(g3787
(S's\x07\x00\x00\x00Recipes'
tRp4299
I00
S'http://web2pyslices.com/'
p4300
tp4301
a(g3787
(S's\x08\x00\x00\x00Semantic'
tRp4302
I00
S'http://web2py.com/semantic'
p4303
tp4304
aasbasbasbasbasbasbasbag69
(g85
g71
NtRp4305
(dp4306
g74
(dp4307
sg83
g4062
sg76
(lp4308
g69
(g90
g71
NtRp4309
(dp4310
g74
(dp4311
sg83
g4305
sg76
(lp4312
g69
(g70
g71
NtRp4313
(dp4314
g74
(dp4315
g82
I2
ssg83
g4309
sg76
(lp4316
g69
(g78
g71
NtRp4317
(dp4318
g74
(dp4319
g82
I1
ssg83
Nsg76
(lp4320
g69
(g85
g71
NtRp4321
(dp4322
g74
(dp4323
sg83
g4317
sg76
(lp4324
g69
(g90
g71
NtRp4325
(dp4326
g74
(dp4327
sg83
g4321
sg76
(lp4328
g69
(g70
g71
NtRp4329
(dp4330
g74
(dp4331
g82
I1
ssg83
g4325
sg76
(lp4332
g3787
(S's\r\x00\x00\x00Documentation'
tRp4333
asbasbasbag69
(g85
g71
NtRp4334
(dp4335
g74
(dp4336
sg83
g4317
sg76
(lp4337
g69
(g90
g71
NtRp4338
(dp4339
g74
(dp4340
sg83
g4334
sg76
(lp4341
g69
(g70
g71
NtRp4342
(dp4343
g74
(dp4344
g82
I1
ssg83
g4338
sg76
(lp4345
I00
asbasbasbag69
(g85
g71
NtRp4346
(dp4347
g74
(dp4348
sg83
g4317
sg76
(lp4349
g69
(g90
g71
NtRp4350
(dp4351
g74
(dp4352
sg83
g4346
sg76
(lp4353
g69
(g70
g71
NtRp4354
(dp4355
g74
(dp4356
g82
I1
ssg83
g4350
sg76
(lp4357
S'http://www.web2py.com/book'
p4358
asbasbasbag69
(g85
g71
NtRp4359
(dp4360
g74
(dp4361
sg83
g4317
sg76
(lp4362
g69
(g90
g71
NtRp4363
(dp4364
g74
(dp4365
sg83
g4359
sg76
(lp4366
g69
(g70
g71
NtRp4367
(dp4368
g74
(dp4369
g82
I1
ssg83
g4363
sg76
(lp4370
(lp4371
(g3787
(S's\x07\x00\x00\x00Preface'
tRp4372
I00
S'http://www.web2py.com/book/default/chapter/00'
p4373
tp4374
a(g3787
(S's\x0c\x00\x00\x00Introduction'
tRp4375
I00
S'http://www.web2py.com/book/default/chapter/01'
p4376
tp4377
a(g3787
(S's\x06\x00\x00\x00Python'
tRp4378
I00
S'http://www.web2py.com/book/default/chapter/02'
p4379
tp4380
a(g3787
(S's\x08\x00\x00\x00Overview'
tRp4381
I00
S'http://www.web2py.com/book/default/chapter/03'
p4382
tp4383
a(g3787
(S's\x08\x00\x00\x00The Core'
tRp4384
I00
S'http://www.web2py.com/book/default/chapter/04'
p4385
tp4386
a(g3787
(S's\t\x00\x00\x00The Views'
tRp4387
I00
S'http://www.web2py.com/book/default/chapter/05'
p4388
tp4389
a(g3787
(S's\x08\x00\x00\x00Database'
tRp4390
I00
S'http://www.web2py.com/book/default/chapter/06'
p4391
tp4392
a(g3787
(S's\x14\x00\x00\x00Forms and Validators'
tRp4393
I00
S'http://www.web2py.com/book/default/chapter/07'
p4394
tp4395
a(g3787
(S's\r\x00\x00\x00Email and SMS'
tRp4396
I00
S'http://www.web2py.com/book/default/chapter/08'
p4397
tp4398
a(g3787
(S's\x0e\x00\x00\x00Access Control'
tRp4399
I00
S'http://www.web2py.com/book/default/chapter/09'
p4400
tp4401
a(g3787
(S's\x08\x00\x00\x00Services'
tRp4402
I00
S'http://www.web2py.com/book/default/chapter/10'
p4403
tp4404
a(g3787
(S's\x0c\x00\x00\x00Ajax Recipes'
tRp4405
I00
S'http://www.web2py.com/book/default/chapter/11'
p4406
tp4407
a(g3787
(S's\x16\x00\x00\x00Components and Plugins'
tRp4408
I00
S'http://www.web2py.com/book/default/chapter/12'
p4409
tp4410
a(g3787
(S's\x12\x00\x00\x00Deployment Recipes'
tRp4411
I00
S'http://www.web2py.com/book/default/chapter/13'
p4412
tp4413
a(g3787
(S's\r\x00\x00\x00Other Recipes'
tRp4414
I00
S'http://www.web2py.com/book/default/chapter/14'
p4415
tp4416
a(g3787
(S's\r\x00\x00\x00Buy this book'
tRp4417
I00
S'http://stores.lulu.com/web2py'
p4418
tp4419
aasbasbasbasbasbasbasbag69
(g85
g71
NtRp4420
(dp4421
g74
(dp4422
sg83
g4062
sg76
(lp4423
g69
(g90
g71
NtRp4424
(dp4425
g74
(dp4426
sg83
g4420
sg76
(lp4427
g69
(g70
g71
NtRp4428
(dp4429
g74
(dp4430
g82
I2
ssg83
g4424
sg76
(lp4431
g69
(g78
g71
NtRp4432
(dp4433
g74
(dp4434
g82
I1
ssg83
Nsg76
(lp4435
g69
(g85
g71
NtRp4436
(dp4437
g74
(dp4438
sg83
g4432
sg76
(lp4439
g69
(g90
g71
NtRp4440
(dp4441
g74
(dp4442
sg83
g4436
sg76
(lp4443
g69
(g70
g71
NtRp4444
(dp4445
g74
(dp4446
g82
I1
ssg83
g4440
sg76
(lp4447
g3787
(S's\t\x00\x00\x00Community'
tRp4448
asbasbasbag69
(g85
g71
NtRp4449
(dp4450
g74
(dp4451
sg83
g4432
sg76
(lp4452
g69
(g90
g71
NtRp4453
(dp4454
g74
(dp4455
sg83
g4449
sg76
(lp4456
g69
(g70
g71
NtRp4457
(dp4458
g74
(dp4459
g82
I1
ssg83
g4453
sg76
(lp4460
I00
asbasbasbag69
(g85
g71
NtRp4461
(dp4462
g74
(dp4463
sg83
g4432
sg76
(lp4464
g69
(g90
g71
NtRp4465
(dp4466
g74
(dp4467
sg83
g4461
sg76
(lp4468
g69
(g70
g71
NtRp4469
(dp4470
g74
(dp4471
g82
I1
ssg83
g4465
sg76
(lp4472
Nasbasbasbag69
(g85
g71
NtRp4473
(dp4474
g74
(dp4475
sg83
g4432
sg76
(lp4476
g69
(g90
g71
NtRp4477
(dp4478
g74
(dp4479
sg83
g4473
sg76
(lp4480
g69
(g70
g71
NtRp4481
(dp4482
g74
(dp4483
g82
I1
ssg83
g4477
sg76
(lp4484
(lp4485
(g3787
(S's\x06\x00\x00\x00Groups'
tRp4486
I00
S'http://www.web2py.com/examples/default/usergroups'
p4487
tp4488
a(g3787
(S's\x07\x00\x00\x00Twitter'
tRp4489
I00
S'http://twitter.com/web2py'
p4490
tp4491
a(g3787
(S's\t\x00\x00\x00Live Chat'
tRp4492
I00
S'http://webchat.freenode.net/?channels=web2py'
p4493
tp4494
aasbasbasbasbasbasbasbag69
(g85
g71
NtRp4495
(dp4496
g74
(dp4497
sg83
g4062
sg76
(lp4498
g69
(g90
g71
NtRp4499
(dp4500
g74
(dp4501
sg83
g4495
sg76
(lp4502
g69
(g70
g71
NtRp4503
(dp4504
g74
(dp4505
g82
I2
ssg83
g4499
sg76
(lp4506
g69
(g78
g71
NtRp4507
(dp4508
g74
(dp4509
g82
I1
ssg83
Nsg76
(lp4510
g69
(g85
g71
NtRp4511
(dp4512
g74
(dp4513
sg83
g4507
sg76
(lp4514
g69
(g90
g71
NtRp4515
(dp4516
g74
(dp4517
sg83
g4511
sg76
(lp4518
g69
(g70
g71
NtRp4519
(dp4520
g74
(dp4521
g82
I1
ssg83
g4515
sg76
(lp4522
g3787
(S's\x07\x00\x00\x00Plugins'
tRp4523
asbasbasbag69
(g85
g71
NtRp4524
(dp4525
g74
(dp4526
sg83
g4507
sg76
(lp4527
g69
(g90
g71
NtRp4528
(dp4529
g74
(dp4530
sg83
g4524
sg76
(lp4531
g69
(g70
g71
NtRp4532
(dp4533
g74
(dp4534
g82
I1
ssg83
g4528
sg76
(lp4535
I00
asbasbasbag69
(g85
g71
NtRp4536
(dp4537
g74
(dp4538
sg83
g4507
sg76
(lp4539
g69
(g90
g71
NtRp4540
(dp4541
g74
(dp4542
sg83
g4536
sg76
(lp4543
g69
(g70
g71
NtRp4544
(dp4545
g74
(dp4546
g82
I1
ssg83
g4540
sg76
(lp4547
Nasbasbasbag69
(g85
g71
NtRp4548
(dp4549
g74
(dp4550
sg83
g4507
sg76
(lp4551
g69
(g90
g71
NtRp4552
(dp4553
g74
(dp4554
sg83
g4548
sg76
(lp4555
g69
(g70
g71
NtRp4556
(dp4557
g74
(dp4558
g82
I1
ssg83
g4552
sg76
(lp4559
(lp4560
(S'plugin_wiki'
p4561
I00
S'http://web2py.com/examples/default/download'
p4562
tp4563
a(g3787
(S's\r\x00\x00\x00Other Plugins'
tRp4564
I00
g4294
tp4565
a(g3787
(S's\x0e\x00\x00\x00Layout Plugins'
tRp4566
I00
g4297
tp4567
aasbasbasbasbasbasbasbasbasbasbasbasbasbasbasbasbasbasbasbag69
(g85
g71
NtRp4568
(dp4569
g74
(dp4570
sg83
g3456
sg76
(lp4571
g69
(g90
g71
NtRp4572
(dp4573
g74
(dp4574
g94
g95
ssg83
g4568
sg76
(lp4575
S'meta'
p4576
asbag69
(g90
g71
NtRp4577
(dp4578
g74
(dp4579
g101
g102
ssg83
g4568
sg76
(lp4580
S':'
asbag69
(g90
g71
NtRp4581
(dp4582
g74
(dp4583
sg83
g4568
sg76
(lp4584
g69
(g70
g71
NtRp4585
(dp4586
g74
(dp4587
g82
I5
ssg83
g4581
sg76
(lp4588
g69
(g78
g71
NtRp4589
(dp4590
g74
(dp4591
g82
I4
ssg83
Nsg76
(lp4592
g69
(g85
g71
NtRp4593
(dp4594
g74
(dp4595
sg83
g4589
sg76
(lp4596
g69
(g90
g71
NtRp4597
(dp4598
g74
(dp4599
g94
g95
ssg83
g4593
sg76
(lp4600
S'author'
p4601
asbag69
(g90
g71
NtRp4602
(dp4603
g74
(dp4604
g101
g102
ssg83
g4593
sg76
(lp4605
S':'
asbag69
(g90
g71
NtRp4606
(dp4607
g74
(dp4608
sg83
g4593
sg76
(lp4609
g69
(g70
g71
NtRp4610
(dp4611
g74
(dp4612
g82
I4
ssg83
g4606
sg76
(lp4613
S'Your Name <you@example.com>'
p4614
asbasbasbag69
(g85
g71
NtRp4615
(dp4616
g74
(dp4617
sg83
g4589
sg76
(lp4618
g69
(g90
g71
NtRp4619
(dp4620
g74
(dp4621
g94
g95
ssg83
g4615
sg76
(lp4622
S'description'
p4623
asbag69
(g90
g71
NtRp4624
(dp4625
g74
(dp4626
g101
g102
ssg83
g4615
sg76
(lp4627
S':'
asbag69
(g90
g71
NtRp4628
(dp4629
g74
(dp4630
sg83
g4615
sg76
(lp4631
g69
(g70
g71
NtRp4632
(dp4633
g74
(dp4634
g82
I4
ssg83
g4628
sg76
(lp4635
S'a cool new app'
p4636
asbasbasbag69
(g85
g71
NtRp4637
(dp4638
g74
(dp4639
sg83
g4589
sg76
(lp4640
g69
(g90
g71
NtRp4641
(dp4642
g74
(dp4643
g94
g95
ssg83
g4637
sg76
(lp4644
S'generator'
p4645
asbag69
(g90
g71
NtRp4646
(dp4647
g74
(dp4648
g101
g102
ssg83
g4637
sg76
(lp4649
S':'
asbag69
(g90
g71
NtRp4650
(dp4651
g74
(dp4652
sg83
g4637
sg76
(lp4653
g69
(g70
g71
NtRp4654
(dp4655
g74
(dp4656
g82
I4
ssg83
g4650
sg76
(lp4657
S'Web2py Web Framework'
p4658
asbasbasbag69
(g85
g71
NtRp4659
(dp4660
g74
(dp4661
sg83
g4589
sg76
(lp4662
g69
(g90
g71
NtRp4663
(dp4664
g74
(dp4665
g94
g95
ssg83
g4659
sg76
(lp4666
S'keywords'
p4667
asbag69
(g90
g71
NtRp4668
(dp4669
g74
(dp4670
g101
g102
ssg83
g4659
sg76
(lp4671
S':'
asbag69
(g90
g71
NtRp4672
(dp4673
g74
(dp4674
sg83
g4659
sg76
(lp4675
g69
(g70
g71
NtRp4676
(dp4677
g74
(dp4678
g82
I4
ssg83
g4672
sg76
(lp4679
S'web2py, python, framework'
p4680
asbasbasbasbasbasbasbag69
(g85
g71
NtRp4681
(dp4682
g74
(dp4683
sg83
g3456
sg76
(lp4684
g69
(g90
g71
NtRp4685
(dp4686
g74
(dp4687
g94
g95
ssg83
g4681
sg76
(lp4688
S'models_to_run'
p4689
asbag69
(g90
g71
NtRp4690
(dp4691
g74
(dp4692
g101
g102
ssg83
g4681
sg76
(lp4693
S':'
asbag69
(g90
g71
NtRp4694
(dp4695
g74
(dp4696
sg83
g4681
sg76
(lp4697
g69
(g70
g71
NtRp4698
(dp4699
g74
(dp4700
g82
I5
ssg83
g4694
sg76
(lp4701
g69
(g78
g71
NtRp4702
(dp4703
g74
(dp4704
g82
I4
ssg83
Nsg76
(lp4705
g69
(g85
g71
NtRp4706
(dp4707
g74
(dp4708
sg83
g4702
sg76
(lp4709
g69
(g90
g71
NtRp4710
(dp4711
g74
(dp4712
sg83
g4706
sg76
(lp4713
g69
(g70
g71
NtRp4714
(dp4715
g74
(dp4716
g82
I4
ssg83
g4710
sg76
(lp4717
S'^\\w+\\.py$'
p4718
asbasbasbag69
(g85
g71
NtRp4719
(dp4720
g74
(dp4721
sg83
g4702
sg76
(lp4722
g69
(g90
g71
NtRp4723
(dp4724
g74
(dp4725
sg83
g4719
sg76
(lp4726
g69
(g70
g71
NtRp4727
(dp4728
g74
(dp4729
g82
I4
ssg83
g4723
sg76
(lp4730
S'^default/\\w+\\.py$'
p4731
asbasbasbag69
(g85
g71
NtRp4732
(dp4733
g74
(dp4734
sg83
g4702
sg76
(lp4735
g69
(g90
g71
NtRp4736
(dp4737
g74
(dp4738
sg83
g4732
sg76
(lp4739
g69
(g70
g71
NtRp4740
(dp4741
g74
(dp4742
g82
I4
ssg83
g4736
sg76
(lp4743
S'^default/index/\\w+\\.py$'
p4744
asbasbasbasbasbasbasbag69
(g85
g71
NtRp4745
(dp4746
g74
(dp4747
sg83
g3456
sg76
(lp4748
g69
(g90
g71
NtRp4749
(dp4750
g74
(dp4751
g94
g95
ssg83
g4745
sg76
(lp4752
S'postprocessing'
p4753
asbag69
(g90
g71
NtRp4754
(dp4755
g74
(dp4756
g101
g102
ssg83
g4745
sg76
(lp4757
S':'
asbag69
(g90
g71
NtRp4758
(dp4759
g74
(dp4760
sg83
g4745
sg76
(lp4761
g69
(g70
g71
NtRp4762
(dp4763
g74
(dp4764
g82
I5
ssg83
g4758
sg76
(lp4765
g69
(g78
g71
NtRp4766
(dp4767
g74
(dp4768
g82
I4
ssg83
Nsg76
(lp4769
sbasbasbasbag69
(g85
g71
NtRp4770
(dp4771
g74
(dp4772
sg83
g3456
sg76
(lp4773
g69
(g90
g71
NtRp4774
(dp4775
g74
(dp4776
g94
g95
ssg83
g4770
sg76
(lp4777
S'session_cookie_expires'
p4778
asbag69
(g90
g71
NtRp4779
(dp4780
g74
(dp4781
g101
g102
ssg83
g4770
sg76
(lp4782
S':'
asbag69
(g90
g71
NtRp4783
(dp4784
g74
(dp4785
sg83
g4770
sg76
(lp4786
g69
(g70
g71
NtRp4787
(dp4788
g74
(dp4789
g82
I5
ssg83
g4783
sg76
(lp4790
S'None'
p4791
asbasbasbag69
(g85
g71
NtRp4792
(dp4793
g74
(dp4794
sg83
g3456
sg76
(lp4795
g69
(g90
g71
NtRp4796
(dp4797
g74
(dp4798
g94
g95
ssg83
g4792
sg76
(lp4799
S'session_data_name'
p4800
asbag69
(g90
g71
NtRp4801
(dp4802
g74
(dp4803
g101
g102
ssg83
g4792
sg76
(lp4804
S':'
asbag69
(g90
g71
NtRp4805
(dp4806
g74
(dp4807
sg83
g4792
sg76
(lp4808
g69
(g70
g71
NtRp4809
(dp4810
g74
(dp4811
g82
I5
ssg83
g4805
sg76
(lp4812
S'session_data_music'
p4813
asbasbasbag69
(g85
g71
NtRp4814
(dp4815
g74
(dp4816
sg83
g3456
sg76
(lp4817
g69
(g90
g71
NtRp4818
(dp4819
g74
(dp4820
g94
g95
ssg83
g4814
sg76
(lp4821
S'session_file'
p4822
asbag69
(g90
g71
NtRp4823
(dp4824
g74
(dp4825
g101
g102
ssg83
g4814
sg76
(lp4826
S':'
asbag69
(g90
g71
NtRp4827
(dp4828
g74
(dp4829
sg83
g4814
sg76
(lp4830
g69
(g70
g71
NtRp4831
(dp4832
g74
(dp4833
g82
I5
ssg83
g4827
sg76
(lp4834
S"<open file '/home/wionel/Desktop/web2py/applications/music/sessions/127.0.0.1-a6c98d34-e136-48f9-b717-d7c43867d2b1', mode 'rb+' at 0x7f976c1b4780>"
p4835
asbasbasbag69
(g85
g71
NtRp4836
(dp4837
g74
(dp4838
sg83
g3456
sg76
(lp4839
g69
(g90
g71
NtRp4840
(dp4841
g74
(dp4842
g94
g95
ssg83
g4836
sg76
(lp4843
S'session_filename'
p4844
asbag69
(g90
g71
NtRp4845
(dp4846
g74
(dp4847
g101
g102
ssg83
g4836
sg76
(lp4848
S':'
asbag69
(g90
g71
NtRp4849
(dp4850
g74
(dp4851
sg83
g4836
sg76
(lp4852
g69
(g70
g71
NtRp4853
(dp4854
g74
(dp4855
g82
I5
ssg83
g4849
sg76
(lp4856
S'/home/wionel/Desktop/web2py/applications/music/sessions/127.0.0.1-a6c98d34-e136-48f9-b717-d7c43867d2b1'
p4857
asbasbasbag69
(g85
g71
NtRp4858
(dp4859
g74
(dp4860
sg83
g3456
sg76
(lp4861
g69
(g90
g71
NtRp4862
(dp4863
g74
(dp4864
g94
g95
ssg83
g4858
sg76
(lp4865
S'session_id'
p4866
asbag69
(g90
g71
NtRp4867
(dp4868
g74
(dp4869
g101
g102
ssg83
g4858
sg76
(lp4870
S':'
asbag69
(g90
g71
NtRp4871
(dp4872
g74
(dp4873
sg83
g4858
sg76
(lp4874
g69
(g70
g71
NtRp4875
(dp4876
g74
(dp4877
g82
I5
ssg83
g4871
sg76
(lp4878
g487
asbasbasbag69
(g85
g71
NtRp4879
(dp4880
g74
(dp4881
sg83
g3456
sg76
(lp4882
g69
(g90
g71
NtRp4883
(dp4884
g74
(dp4885
g94
g95
ssg83
g4879
sg76
(lp4886
S'session_id_name'
p4887
asbag69
(g90
g71
NtRp4888
(dp4889
g74
(dp4890
g101
g102
ssg83
g4879
sg76
(lp4891
S':'
asbag69
(g90
g71
NtRp4892
(dp4893
g74
(dp4894
sg83
g4879
sg76
(lp4895
g69
(g70
g71
NtRp4896
(dp4897
g74
(dp4898
g82
I5
ssg83
g4892
sg76
(lp4899
g3513
asbasbasbag69
(g85
g71
NtRp4900
(dp4901
g74
(dp4902
sg83
g3456
sg76
(lp4903
g69
(g90
g71
NtRp4904
(dp4905
g74
(dp4906
g94
g95
ssg83
g4900
sg76
(lp4907
S'session_locked'
p4908
asbag69
(g90
g71
NtRp4909
(dp4910
g74
(dp4911
g101
g102
ssg83
g4900
sg76
(lp4912
S':'
asbag69
(g90
g71
NtRp4913
(dp4914
g74
(dp4915
sg83
g4900
sg76
(lp4916
g69
(g70
g71
NtRp4917
(dp4918
g74
(dp4919
g82
I5
ssg83
g4913
sg76
(lp4920
g1824
asbasbasbag69
(g85
g71
NtRp4921
(dp4922
g74
(dp4923
sg83
g3456
sg76
(lp4924
g69
(g90
g71
NtRp4925
(dp4926
g74
(dp4927
g94
g95
ssg83
g4921
sg76
(lp4928
S'session_new'
p4929
asbag69
(g90
g71
NtRp4930
(dp4931
g74
(dp4932
g101
g102
ssg83
g4921
sg76
(lp4933
S':'
asbag69
(g90
g71
NtRp4934
(dp4935
g74
(dp4936
sg83
g4921
sg76
(lp4937
g69
(g70
g71
NtRp4938
(dp4939
g74
(dp4940
g82
I5
ssg83
g4934
sg76
(lp4941
g112
asbasbasbag69
(g85
g71
NtRp4942
(dp4943
g74
(dp4944
sg83
g3456
sg76
(lp4945
g69
(g90
g71
NtRp4946
(dp4947
g74
(dp4948
g94
g95
ssg83
g4942
sg76
(lp4949
S'session_storage_type'
p4950
asbag69
(g90
g71
NtRp4951
(dp4952
g74
(dp4953
g101
g102
ssg83
g4942
sg76
(lp4954
S':'
asbag69
(g90
g71
NtRp4955
(dp4956
g74
(dp4957
sg83
g4942
sg76
(lp4958
g69
(g70
g71
NtRp4959
(dp4960
g74
(dp4961
g82
I5
ssg83
g4955
sg76
(lp4962
g3297
asbasbasbag69
(g85
g71
NtRp4963
(dp4964
g74
(dp4965
sg83
g3456
sg76
(lp4966
g69
(g90
g71
NtRp4967
(dp4968
g74
(dp4969
g94
g95
ssg83
g4963
sg76
(lp4970
S'status'
p4971
asbag69
(g90
g71
NtRp4972
(dp4973
g74
(dp4974
g101
g102
ssg83
g4963
sg76
(lp4975
S':'
asbag69
(g90
g71
NtRp4976
(dp4977
g74
(dp4978
sg83
g4963
sg76
(lp4979
g69
(g70
g71
NtRp4980
(dp4981
g74
(dp4982
g82
I5
ssg83
g4976
sg76
(lp4983
S'200'
p4984
asbasbasbag69
(g85
g71
NtRp4985
(dp4986
g74
(dp4987
sg83
g3456
sg76
(lp4988
g69
(g90
g71
NtRp4989
(dp4990
g74
(dp4991
g94
g95
ssg83
g4985
sg76
(lp4992
S'subtitle'
p4993
asbag69
(g90
g71
NtRp4994
(dp4995
g74
(dp4996
g101
g102
ssg83
g4985
sg76
(lp4997
S':'
asbag69
(g90
g71
NtRp4998
(dp4999
g74
(dp5000
sg83
g4985
sg76
(lp5001
g69
(g70
g71
NtRp5002
(dp5003
g74
(dp5004
g82
I5
ssg83
g4998
sg76
(lp5005
g3787
(S's\r\x00\x00\x00customize me!'
tRp5006
asbasbasbag69
(g85
g71
NtRp5007
(dp5008
g74
(dp5009
sg83
g3456
sg76
(lp5010
g69
(g90
g71
NtRp5011
(dp5012
g74
(dp5013
g94
g95
ssg83
g5007
sg76
(lp5014
S'title'
p5015
asbag69
(g90
g71
NtRp5016
(dp5017
g74
(dp5018
g101
g102
ssg83
g5007
sg76
(lp5019
S':'
asbag69
(g90
g71
NtRp5020
(dp5021
g74
(dp5022
sg83
g5007
sg76
(lp5023
g69
(g70
g71
NtRp5024
(dp5025
g74
(dp5026
g82
I5
ssg83
g5020
sg76
(lp5027
S'Music'
p5028
asbasbasbag69
(g85
g71
NtRp5029
(dp5030
g74
(dp5031
sg83
g3456
sg76
(lp5032
g69
(g90
g71
NtRp5033
(dp5034
g74
(dp5035
g94
g95
ssg83
g5029
sg76
(lp5036
S'view'
p5037
asbag69
(g90
g71
NtRp5038
(dp5039
g74
(dp5040
g101
g102
ssg83
g5029
sg76
(lp5041
S':'
asbag69
(g90
g71
NtRp5042
(dp5043
g74
(dp5044
sg83
g5029
sg76
(lp5045
g69
(g70
g71
NtRp5046
(dp5047
g74
(dp5048
g82
I5
ssg83
g5042
sg76
(lp5049
S'default/index.html'
p5050
asbasbasbasbasbsS'locals'
p5051
(dp5052
g4
S"'/home/wionel/Desktop/web2py/applications/music/views/default/index.html'"
p5053
sg6
S'\'left_sidebar_enabled,right_sidebar_enabled=False...(\\\'"></script>\\\\n</body>\\\\n</html>\\\\n\\\', escape=False)\''
p5054
sssS'traceback'
p5055
S'Traceback (most recent call last):\n  File "/home/wionel/Desktop/web2py/gluon/restricted.py", line 211, in restricted\n    ccode = compile2(code, layer)\n  File "/home/wionel/Desktop/web2py/gluon/restricted.py", line 194, in compile2\n    return compile(code.rstrip().replace(\'\\r\\n\', \'\\n\') + \'\\n\', layer, \'exec\')\n  File "/home/wionel/Desktop/web2py/applications/music/views/default/index.html", line 125\n    \nSyntaxError: keyword can\'t be an expression\n'
p5056
s.