(dp1
S'output'
p2
S"<type 'exceptions.SyntaxError'> invalid syntax (playlist.html, line 111)"
p3
sS'layer'
p4
S'/home/wionel/Desktop/web2py/applications/music/views/default/playlist.html'
p5
sS'code'
p6
S'response.write(\'<!DOCTYPE html>\\n<!-- paulirish.com/2008/conditional-stylesheets-vs-css-hacks-answer-neither/ -->\\n<!--[if lt IE 7]><html class="ie ie6 ie-lte9 ie-lte8 ie-lte7 no-js" lang="\', escape=False)\nresponse.write(T.accepted_language or \'en\')\nresponse.write(\'"> <![endif]-->\\n<!--[if IE 7]><html class="ie ie7 ie-lte9 ie-lte8 ie-lte7 no-js" lang="\', escape=False)\nresponse.write(T.accepted_language or \'en\')\nresponse.write(\'"> <![endif]-->\\n<!--[if IE 8]><html class="ie ie8 ie-lte9 ie-lte8 no-js" lang="\', escape=False)\nresponse.write(T.accepted_language or \'en\')\nresponse.write(\'"> <![endif]-->\\n<!--[if IE 9]><html class="ie9 ie-lte9 no-js" lang="\', escape=False)\nresponse.write(T.accepted_language or \'en\')\nresponse.write(\'"> <![endif]-->\\n<!--[if (gt IE 9)|!(IE)]><!--> <html class="no-js" lang="\', escape=False)\nresponse.write(T.accepted_language or \'en\')\nresponse.write(\'"> <!--<![endif]-->\\n<head>\\n  <meta charset="utf-8" />\\n  <!-- www.phpied.com/conditional-comments-block-downloads/ -->\\n  <!-- Always force latest IE rendering engine\\n       (even in intranet) & Chrome Frame\\n       Remove this if you use the .htaccess -->\\n  <!--[if IE]>\\n      <meta http-equiv="X-UA-Compatible" content="IE=edge\', escape=False)\nresponse.write(not request.is_local and \',chrome=1\' or \'\')\nresponse.write(\'">\\n      <![endif]-->\\n\\n  <title>\', escape=False)\nresponse.write(response.title or request.application)\nresponse.write(\'</title>\\n\\n  <!-- http://dev.w3.org/html5/markup/meta.name.html -->\\n  <meta name="application-name" content="\', escape=False)\nresponse.write(request.application)\nresponse.write(\'" />\\n\\n  <!-- Speaking of Google, don\\\'t forget to set your site up:\\n       http://google.com/webmasters -->\\n  <meta name="google-site-verification" content="" />\\n\\n  <!--  Mobile Viewport Fix\\n        j.mp/mobileviewport & davidbcalhoun.com/2010/viewport-metatag\\n        device-width: Occupy full width of the screen in its current orientation\\n        initial-scale = 1.0 retains dimensions instead of zooming out if page height > device height\\n        user-scalable = yes allows the user to zoom in -->\\n  <meta name="viewport" content="width=device-width, initial-scale=1.0">\\n\\n  <link rel="shortcut icon" href="\', escape=False)\nresponse.write(URL(\'static\',\'images/favicon.ico\'))\nresponse.write(\'" type="image/x-icon">\\n  <link rel="apple-touch-icon" href="\', escape=False)\nresponse.write(URL(\'static\',\'images/favicon.png\'))\nresponse.write(\'">\\n\\n  <!-- All JavaScript at the bottom, except for Modernizr which enables\\n       HTML5 elements & feature detects -->\\n  <script src="\', escape=False)\nresponse.write(URL(\'static\',\'js/modernizr.custom.js\'))\nresponse.write(\'"></script>\\n  <script src="\', escape=False)\nresponse.write(URL(\'static\',\'js/music.js\'))\nresponse.write(\'"></script>\\n  <!-- include stylesheets -->\\n  \', escape=False)\nresponse.files.append(URL(\'static\',\'css/web2py.css\'))\nresponse.files.append(URL(\'static\',\'css/bootstrap.min.css\'))\nresponse.files.append(URL(\'static\',\'css/bootstrap-responsive.min.css\'))\nresponse.files.append(URL(\'static\',\'css/web2py_bootstrap.css\'))\nresponse.write(\'\\n\\n  \', escape=False)\nresponse.write(\'<script type="text/javascript"><!--\\n    // These variables are used by the web2py_ajax_init function in web2py_ajax.js (which is loaded below).\\n    var w2p_ajax_confirm_message = "\', escape=False)\nresponse.write(T(\'Are you sure you want to delete this object?\'))\nresponse.write(\'";\\n    var w2p_ajax_date_format = "\', escape=False)\nresponse.write(T(\'%Y-%m-%d\'))\nresponse.write(\'";\\n    var w2p_ajax_datetime_format = "\', escape=False)\nresponse.write(T(\'%Y-%m-%d %H:%M:%S\'))\nresponse.write(\'";\\n    //--></script>\\n\', escape=False)\nresponse.files.insert(0,URL(\'static\',\'js/jquery.js\'))\nresponse.files.insert(1,URL(\'static\',\'css/calendar.css\'))\nresponse.files.insert(2,URL(\'static\',\'js/calendar.js\'))\nresponse.files.insert(3,URL(\'static\',\'js/web2py.js\'))\nresponse.include_meta()\nresponse.include_files()\nresponse.write(\'\\n\', escape=False)\nresponse.write(\'\\n\\n  \', escape=False)\n# using sidebars need to know what sidebar you want to use\nleft_sidebar_enabled = globals().get(\'left_sidebar_enabled\',False)\nright_sidebar_enabled = globals().get(\'right_sidebar_enabled\',False)\nmiddle_columns = {0:\'span12\',1:\'span9\',2:\'span6\'}[\n(left_sidebar_enabled and 1 or 0)+(right_sidebar_enabled and 1 or 0)]\nresponse.write(\'\\n\\n  <!-- uncomment here to load jquery-ui\\n       <link rel="stylesheet" href="http://ajax.googleapis.com/ajax/libs/jqueryui/1.8.16/themes/base/jquery-ui.css" type="text/css" media="all" />\\n       <script src="http://ajax.googleapis.com/ajax/libs/jqueryui/1.8.16/jquery-ui.min.js" type="text/javascript"></script>\\n       uncomment to load jquery-ui //-->\\n  <noscript><link href="\', escape=False)\nresponse.write(URL(\'static\', \'css/web2py_bootstrap_nojs.css\'))\nresponse.write(\'" rel="stylesheet" type="text/css" /></noscript>\\n  \', escape=False)\nresponse.write(\'\\n</head>\\n\\n<body>\\n  <!-- Navbar ================================================== -->\\n  <div class="navbar navbar-inverse navbar-fixed-top">\\n    <div class="flash">\', escape=False)\nresponse.write(response.flash or \'\')\nresponse.write(\'</div>\\n    <div class="navbar-inner">\\n      <div class="container">\\n        <!-- the next tag is necessary for bootstrap menus, do not remove -->\\n        <button type="button" class="btn btn-navbar" data-toggle="collapse" data-target=".nav-collapse">\\n          <span class="icon-bar"></span>\\n          <span class="icon-bar"></span>\\n          <span class="icon-bar"></span>\\n        </button>\\n        <!--a class="brand" href="http://www.web2py.com/"><b>web<span>2</span>py</b>&trade;&nbsp;</a-->\\n        <ul id="navbar" class="nav pull-right">\', escape=False)\nresponse.write(\'auth\' in globals() and auth.navbar(mode="dropdown") or \'\')\nresponse.write(\'</ul>\\n        <div class="nav-collapse">\\n          <ul class="nav">\\n\\t\\t\\t<li>\\n\\t\\t\\t\\t<a href="/music/default/index">Home</a>\\n\\t\\t\\t</li>\\n          </ul>\\n          \', escape=False)\n#is_mobile=request.user_agent().is_mobile\nresponse.write(\'\\n          \', escape=False)\n#if response.menu:\nresponse.write(\'\\n          \', escape=False)\n#=MENU(response.menu, _class=\'mobile-menu nav\' if is_mobile else \'nav\',mobile=is_mobile,li_class=\'dropdown\',ul_class=\'dropdown-menu\')\nresponse.write(\'\\n          \', escape=False)\n#pass\nresponse.write(\'\\n        </div><!--/.nav-collapse -->\\n      </div>\\n    </div>\\n  </div><!--/top navbar -->\\n\\n  <div class="container">\\n    <!-- Masthead ================================================== -->\\n    <header class="mastheader row" id="header">\\n        <div class="span12">\\n            <div class="page-header" style="margin:0" >\\n                <h1>\\n                    \', escape=False)\n#=response.title or request.application\nresponse.write(\'\\n                    Music @ IIIT\\n                    <small>\', escape=False)\n#=response.subtitle or \'\'\nresponse.write(\'</small>\\n                </h1>\\n            </div>\\n        </div>\\n    </header>\\n\\n    <section id="main" class="main row">\\n        \', escape=False)\nif left_sidebar_enabled:\n    response.write(\'\\n        <div class="span3 left-sidebar">\\n            \', escape=False)\n    response.write(\'\\n            <h3>Left Sidebar</h3>\\n            <p></p>\\n            \', escape=False)\n    response.write(\'\\n        </div>\\n        \', escape=False)\n    pass\nresponse.write(\'\\n\\n        <div class="\', escape=False)\nresponse.write(middle_columns)\nresponse.write(\'">\\n            \', escape=False)\nresponse.write(\'\\n            \', escape=False)\nresponse.write(\'\\n<form id="save" name="save" method="post" action="\', escape=False)\nresponse.write(URL(\'default\',\'save\'))\nresponse.write(\'"  >\\n<div style="padding:7px">\\n    <center><h1 style="color:lightgrey" >Create Playlist</h1></center>\\n    <div><h4>Name : </h4><input type="text" id="playlist_name" name="playlist_name" /></div>\\n    <h4>Song Selection : </h4>\\n    <div>\\n        <div id="avaliable_songs" class="btn" style=" text-align:left;cursor: auto;float: left; height: 300px; background: none repeat scroll 0% 0% lightyellow; width: 30%;">  \\n            <h2>Available Songs :</h2>\\n            <div style="height:230px;overflow:scroll;overflow-x:hidden;">\\n               \', escape=False)\nif \'songs\' in globals():\n    response.write(\'\\n                 \', escape=False)\n    for song in songs :\n        response.write(\'\\n            \\t\\t<div onclick="select(\\\'\', escape=False)\n        response.write(song.id)\n        response.write(\'\\\')" id="\', escape=False)\n        response.write(song.id)\n        response.write(\'" style="width:95%;padding-top:4px;height:26px;padding-left:5px;border-radius:5px;cursor:pointer;margin-top:5px;background:lightblue" >\\n                        <span>\\n                            \', escape=False)\n        response.write(song.title)\n        response.write(\'\\n                        </span>\\n                    </div>\\n               \\t \', escape=False)\n        pass\n    response.write(\'\\n               \', escape=False)\n    pass\nresponse.write(\'\\n             </div>\\n        </div>\\n        <div style="float: left; height: 100px; width: 20px;">&nbsp;</div>\\n        <div class="btn" style=" text-align:left;cursor: auto;float: left;height: 300px; background: none repeat scroll 0% 0% pink; width: 30%;">\\n            <h2>Current Selection :</h2>\\n            <div  id="current_selection" style="height:230px;overflow:scroll;overflow-x:hidden;">\\n                 \', escape=False)\nif \'p_songs\' in globals():\n    response.write(\'\\n             \\t\\t\', escape=False)\n    for p_song in p_songs:\n        response.write(\'\\n            \\t\\t\\t<div onclick="select(\\\'\', escape=False)\n        response.write(p_song.id)\n        response.write(\'\\\')" id="\', escape=False)\n        response.write(p_song.id)\n        response.write(\'" style="width:95%;padding-top:4px;height:26px;padding-left:5px;border-radius:5px;cursor:pointer;margin-top:5px;background:lightblue" >\\n                        \\t<span>\\n                            \', escape=False)\n        response.write(p_song.title)\n        response.write(\'\\n                        \\t</span>\\n                    \\t</div>\\n                \\t\', escape=False)\n        pass\n    response.write(\'\\n                \', escape=False)\n    pass\nresponse.write(\'\\n             </div>\\n            </div>\\n        </div>\\n            <input  type="hidden" name="songlist" id="songlist" value="" />\\n            <script>\\n                \', escape=False)\nif(\'songlist\' in globals():)\ndocument.getElementById(songlist).value = {{=songlist\nresponse.write(\';\\n                \', escape=False)\npass\nresponse.write(\'\\n            \\t\\n            \\t\\n    \\t\\t</script>\\n            \\n            \\n            \\n        </div>    \\n    </div>\\n    <div style="float: left; height: 100px; width: 20px;">&nbsp;</div>\\n    <div>\\n        <button onclick="clear_selection()" >Clear Selection</button>\\n    </div>\\n</div>\\n\\t<div>\\n        <input onclick="return check();" type="submit" value="Save Playlist"/>    \\n    </div>\\n<form>\\n\', escape=False)\nresponse.write(\'\\n            \', escape=False)\nresponse.write(\'\\n        </div>\\n\\n        \', escape=False)\nif right_sidebar_enabled:\n    response.write(\'\\n        <div class="span3">\\n            \', escape=False)\n    response.write(\'\\n            <h3>Right Sidebar</h3>\\n            <p></p>\\n            \', escape=False)\n    response.write(\'\\n        </div>\\n        \', escape=False)\n    pass\nresponse.write(\'\\n    </section><!--/main-->\\n\\n    <!-- Footer ================================================== -->\\n    <div class="row">\\n        <footer class="footer span12" id="footer">\\n            <div class="footer-content">\\n                \', escape=False)\nresponse.write(\' <!-- this is default footer -->\\n                <div class="copyright pull-left">\', escape=False)\nresponse.write(T(\'Copyright\'))\nresponse.write(\' &#169; \', escape=False)\nresponse.write(request.now.year)\nresponse.write(\'</div>\\n                <div id="poweredBy" class="pull-right">\\n                    \', escape=False)\nresponse.write(T(\'Powered by\'))\nresponse.write(\'\\n                    <a href="http://www.web2py.com/">web2py</a>\\n                </div>\\n                \', escape=False)\nresponse.write(\'\\n            </div>\\n        </footer>\\n    </div>\\n\\n  </div> <!-- /container -->\\n\\n  <!-- The javascript =============================================\\n       (Placed at the end of the document so the pages load faster) -->\\n  <script src="\', escape=False)\nresponse.write(URL(\'static\',\'js/bootstrap.min.js\'))\nresponse.write(\'"></script>\\n  <script src="\', escape=False)\nresponse.write(URL(\'static\',\'js/web2py_bootstrap.js\'))\nresponse.write(\'"></script>\\n  <!--[if lt IE 7 ]>\\n      <script src="\', escape=False)\nresponse.write(URL(\'static\',\'js/dd_belatedpng.js\'))\nresponse.write(\'"></script>\\n      <script> DD_belatedPNG.fix(\\\'img, .png_bg\\\'); //fix any <img> or .png_bg background-images </script>\\n      <![endif]-->\\n  \', escape=False)\nif response.google_analytics_id:\n    response.write(\'<script type="text/javascript"> var _gaq = _gaq || []; _gaq.push([\\\'_setAccount\\\', \\\'\', escape=False)\n    response.write(response.google_analytics_id)\n    response.write("\']); _gaq.push([\'_trackPageview\']); (function() { var ga = document.createElement(\'script\'); ga.type = \'text/javascript\'; ga.async = true; ga.src = (\'https:\' == document.location.protocol ? \'https://ssl\' : \'http://www\') + \'.google-analytics.com/ga.js\'; var s = document.getElementsByTagName(\'script\')[0]; s.parentNode.insertBefore(ga, s); })(); </script> ", escape=False)\n    pass\nresponse.write(\'\\n  <script src="\', escape=False)\nresponse.write(URL(\'static\',\'js/share.js\',vars=dict(static=URL(\'static\',\'images\'))))\nresponse.write(\'"></script>\\n</body>\\n</html>\\n\', escape=False)'
p7
sS'snapshot'
p8
(dp9
S'exception'
p10
(dp11
S'__getslice__'
p12
S"<method-wrapper '__getslice__' of exceptions.SyntaxError object>"
p13
sS'text'
p14
S'"if(\'songlist\' in globals():)\\n"'
p15
sS'__str__'
p16
S"<method-wrapper '__str__' of exceptions.SyntaxError object>"
p17
sS'__reduce__'
p18
S'<built-in method __reduce__ of exceptions.SyntaxError object>'
p19
sS'__dict__'
p20
S'{}'
p21
sS'__sizeof__'
p22
S'<built-in method __sizeof__ of exceptions.SyntaxError object>'
p23
sS'__init__'
p24
S"<method-wrapper '__init__' of exceptions.SyntaxError object>"
p25
sS'__setattr__'
p26
S"<method-wrapper '__setattr__' of exceptions.SyntaxError object>"
p27
sS'__reduce_ex__'
p28
S'<built-in method __reduce_ex__ of exceptions.SyntaxError object>'
p29
sS'__new__'
p30
S'<built-in method __new__ of type object>'
p31
sS'__format__'
p32
S'<built-in method __format__ of exceptions.SyntaxError object>'
p33
sS'__class__'
p34
S"<type 'exceptions.SyntaxError'>"
p35
sS'filename'
p36
S"'/home/wionel/Desktop/web2py/applications/music/views/default/playlist.html'"
p37
sS'lineno'
p38
S'111'
p39
sS'msg'
p40
S"'invalid syntax'"
p41
sS'__doc__'
p42
S"'Invalid syntax.'"
p43
sS'__getitem__'
p44
S"<method-wrapper '__getitem__' of exceptions.SyntaxError object>"
p45
sS'__setstate__'
p46
S'<built-in method __setstate__ of exceptions.SyntaxError object>'
p47
sS'__getattribute__'
p48
S"<method-wrapper '__getattribute__' of exceptions.SyntaxError object>"
p49
sS'print_file_and_line'
p50
S'None'
p51
sS'args'
p52
S'(\'invalid syntax\', (\'/home/wionel/Desktop/web2py/applications/music/views/default/playlist.html\', 111, 27, "if(\'songlist\' in globals():)\\n"))'
p53
sS'__subclasshook__'
p54
S'<built-in method __subclasshook__ of type object>'
p55
sS'offset'
p56
S'27'
p57
sS'__unicode__'
p58
S'<built-in method __unicode__ of exceptions.SyntaxError object>'
p59
sS'__delattr__'
p60
S"<method-wrapper '__delattr__' of exceptions.SyntaxError object>"
p61
sS'__repr__'
p62
S"<method-wrapper '__repr__' of exceptions.SyntaxError object>"
p63
sS'__hash__'
p64
S"<method-wrapper '__hash__' of exceptions.SyntaxError object>"
p65
ssS'evalue'
p66
S'invalid syntax (playlist.html, line 111)'
p67
sS'request'
p68
ccopy_reg
_reconstructor
p69
(cgluon.html
BEAUTIFY
p70
c__builtin__
object
p71
NtRp72
(dp73
S'attributes'
p74
(dp75
sS'components'
p76
(lp77
g69
(cgluon.html
TABLE
p78
g71
NtRp79
(dp80
g74
(dp81
S'level'
p82
I5
ssS'parent'
p83
Nsg76
(lp84
g69
(cgluon.html
TR
p85
g71
NtRp86
(dp87
g74
(dp88
sg83
g79
sg76
(lp89
g69
(cgluon.html
TD
p90
g71
NtRp91
(dp92
g74
(dp93
S'_style'
p94
S'font-weight:bold;vertical-align:top'
p95
ssg83
g86
sg76
(lp96
S'ajax'
p97
asbag69
(g90
g71
NtRp98
(dp99
g74
(dp100
S'_valign'
p101
S'top'
p102
ssg83
g86
sg76
(lp103
S':'
asbag69
(g90
g71
NtRp104
(dp105
g74
(dp106
sg83
g86
sg76
(lp107
g69
(g70
g71
NtRp108
(dp109
g74
(dp110
g82
I5
ssg83
g104
sg76
(lp111
S'False'
p112
asbasbasbag69
(g85
g71
NtRp113
(dp114
g74
(dp115
sg83
g79
sg76
(lp116
g69
(g90
g71
NtRp117
(dp118
g74
(dp119
g94
g95
ssg83
g113
sg76
(lp120
S'application'
p121
asbag69
(g90
g71
NtRp122
(dp123
g74
(dp124
g101
g102
ssg83
g113
sg76
(lp125
S':'
asbag69
(g90
g71
NtRp126
(dp127
g74
(dp128
sg83
g113
sg76
(lp129
g69
(g70
g71
NtRp130
(dp131
g74
(dp132
g82
I5
ssg83
g126
sg76
(lp133
S'music'
p134
asbasbasbag69
(g85
g71
NtRp135
(dp136
g74
(dp137
sg83
g79
sg76
(lp138
g69
(g90
g71
NtRp139
(dp140
g74
(dp141
g94
g95
ssg83
g135
sg76
(lp142
g52
asbag69
(g90
g71
NtRp143
(dp144
g74
(dp145
g101
g102
ssg83
g135
sg76
(lp146
S':'
asbag69
(g90
g71
NtRp147
(dp148
g74
(dp149
sg83
g135
sg76
(lp150
g69
(g70
g71
NtRp151
(dp152
g74
(dp153
g82
I5
ssg83
g147
sg76
(lp154
g69
(g78
g71
NtRp155
(dp156
g74
(dp157
g82
I4
ssg83
Nsg76
(lp158
sbasbasbasbag69
(g85
g71
NtRp159
(dp160
g74
(dp161
sg83
g79
sg76
(lp162
g69
(g90
g71
NtRp163
(dp164
g74
(dp165
g94
g95
ssg83
g159
sg76
(lp166
S'body'
p167
asbag69
(g90
g71
NtRp168
(dp169
g74
(dp170
g101
g102
ssg83
g159
sg76
(lp171
S':'
asbag69
(g90
g71
NtRp172
(dp173
g74
(dp174
sg83
g159
sg76
(lp175
g69
(g70
g71
NtRp176
(dp177
g74
(dp178
g82
I5
ssg83
g172
sg76
(lp179
S'<cStringIO.StringO object at 0x7f81083dbb58>'
p180
asbasbasbag69
(g85
g71
NtRp181
(dp182
g74
(dp183
sg83
g79
sg76
(lp184
g69
(g90
g71
NtRp185
(dp186
g74
(dp187
g94
g95
ssg83
g181
sg76
(lp188
S'cid'
p189
asbag69
(g90
g71
NtRp190
(dp191
g74
(dp192
g101
g102
ssg83
g181
sg76
(lp193
S':'
asbag69
(g90
g71
NtRp194
(dp195
g74
(dp196
sg83
g181
sg76
(lp197
g69
(g70
g71
NtRp198
(dp199
g74
(dp200
g82
I5
ssg83
g194
sg76
(lp201
S'None'
p202
asbasbasbag69
(g85
g71
NtRp203
(dp204
g74
(dp205
sg83
g79
sg76
(lp206
g69
(g90
g71
NtRp207
(dp208
g74
(dp209
g94
g95
ssg83
g203
sg76
(lp210
S'client'
p211
asbag69
(g90
g71
NtRp212
(dp213
g74
(dp214
g101
g102
ssg83
g203
sg76
(lp215
S':'
asbag69
(g90
g71
NtRp216
(dp217
g74
(dp218
sg83
g203
sg76
(lp219
g69
(g70
g71
NtRp220
(dp221
g74
(dp222
g82
I5
ssg83
g216
sg76
(lp223
S'127.0.0.1'
p224
asbasbasbag69
(g85
g71
NtRp225
(dp226
g74
(dp227
sg83
g79
sg76
(lp228
g69
(g90
g71
NtRp229
(dp230
g74
(dp231
g94
g95
ssg83
g225
sg76
(lp232
S'controller'
p233
asbag69
(g90
g71
NtRp234
(dp235
g74
(dp236
g101
g102
ssg83
g225
sg76
(lp237
S':'
asbag69
(g90
g71
NtRp238
(dp239
g74
(dp240
sg83
g225
sg76
(lp241
g69
(g70
g71
NtRp242
(dp243
g74
(dp244
g82
I5
ssg83
g238
sg76
(lp245
S'default'
p246
asbasbasbag69
(g85
g71
NtRp247
(dp248
g74
(dp249
sg83
g79
sg76
(lp250
g69
(g90
g71
NtRp251
(dp252
g74
(dp253
g94
g95
ssg83
g247
sg76
(lp254
S'cookies'
p255
asbag69
(g90
g71
NtRp256
(dp257
g74
(dp258
g101
g102
ssg83
g247
sg76
(lp259
S':'
asbag69
(g90
g71
NtRp260
(dp261
g74
(dp262
sg83
g247
sg76
(lp263
g69
(g70
g71
NtRp264
(dp265
g74
(dp266
g82
I5
ssg83
g260
sg76
(lp267
g69
(g78
g71
NtRp268
(dp269
g74
(dp270
g82
I4
ssg83
Nsg76
(lp271
g69
(g85
g71
NtRp272
(dp273
g74
(dp274
sg83
g268
sg76
(lp275
g69
(g90
g71
NtRp276
(dp277
g74
(dp278
g94
g95
ssg83
g272
sg76
(lp279
S'session_id_admin'
p280
asbag69
(g90
g71
NtRp281
(dp282
g74
(dp283
g101
g102
ssg83
g272
sg76
(lp284
S':'
asbag69
(g90
g71
NtRp285
(dp286
g74
(dp287
sg83
g272
sg76
(lp288
g69
(g70
g71
NtRp289
(dp290
g74
(dp291
g82
I4
ssg83
g285
sg76
(lp292
S'127.0.0.1-b219e5e2-515c-4b16-b7ec-dfc8af6f68cc'
p293
ag69
(g78
g71
NtRp294
(dp295
g74
(dp296
g82
I3
ssg83
Nsg76
(lp297
g69
(g85
g71
NtRp298
(dp299
g74
(dp300
sg83
g294
sg76
(lp301
g69
(g90
g71
NtRp302
(dp303
g74
(dp304
g94
g95
ssg83
g298
sg76
(lp305
S'comment'
p306
asbag69
(g90
g71
NtRp307
(dp308
g74
(dp309
g101
g102
ssg83
g298
sg76
(lp310
S':'
asbag69
(g90
g71
NtRp311
(dp312
g74
(dp313
sg83
g298
sg76
(lp314
g69
(g70
g71
NtRp315
(dp316
g74
(dp317
g82
I3
ssg83
g311
sg76
(lp318
S''
asbasbasbag69
(g85
g71
NtRp319
(dp320
g74
(dp321
sg83
g294
sg76
(lp322
g69
(g90
g71
NtRp323
(dp324
g74
(dp325
g94
g95
ssg83
g319
sg76
(lp326
S'domain'
p327
asbag69
(g90
g71
NtRp328
(dp329
g74
(dp330
g101
g102
ssg83
g319
sg76
(lp331
S':'
asbag69
(g90
g71
NtRp332
(dp333
g74
(dp334
sg83
g319
sg76
(lp335
g69
(g70
g71
NtRp336
(dp337
g74
(dp338
g82
I3
ssg83
g332
sg76
(lp339
S''
asbasbasbag69
(g85
g71
NtRp340
(dp341
g74
(dp342
sg83
g294
sg76
(lp343
g69
(g90
g71
NtRp344
(dp345
g74
(dp346
g94
g95
ssg83
g340
sg76
(lp347
S'expires'
p348
asbag69
(g90
g71
NtRp349
(dp350
g74
(dp351
g101
g102
ssg83
g340
sg76
(lp352
S':'
asbag69
(g90
g71
NtRp353
(dp354
g74
(dp355
sg83
g340
sg76
(lp356
g69
(g70
g71
NtRp357
(dp358
g74
(dp359
g82
I3
ssg83
g353
sg76
(lp360
S''
asbasbasbag69
(g85
g71
NtRp361
(dp362
g74
(dp363
sg83
g294
sg76
(lp364
g69
(g90
g71
NtRp365
(dp366
g74
(dp367
g94
g95
ssg83
g361
sg76
(lp368
S'httponly'
p369
asbag69
(g90
g71
NtRp370
(dp371
g74
(dp372
g101
g102
ssg83
g361
sg76
(lp373
S':'
asbag69
(g90
g71
NtRp374
(dp375
g74
(dp376
sg83
g361
sg76
(lp377
g69
(g70
g71
NtRp378
(dp379
g74
(dp380
g82
I3
ssg83
g374
sg76
(lp381
S''
asbasbasbag69
(g85
g71
NtRp382
(dp383
g74
(dp384
sg83
g294
sg76
(lp385
g69
(g90
g71
NtRp386
(dp387
g74
(dp388
g94
g95
ssg83
g382
sg76
(lp389
S'max-age'
p390
asbag69
(g90
g71
NtRp391
(dp392
g74
(dp393
g101
g102
ssg83
g382
sg76
(lp394
S':'
asbag69
(g90
g71
NtRp395
(dp396
g74
(dp397
sg83
g382
sg76
(lp398
g69
(g70
g71
NtRp399
(dp400
g74
(dp401
g82
I3
ssg83
g395
sg76
(lp402
S''
asbasbasbag69
(g85
g71
NtRp403
(dp404
g74
(dp405
sg83
g294
sg76
(lp406
g69
(g90
g71
NtRp407
(dp408
g74
(dp409
g94
g95
ssg83
g403
sg76
(lp410
S'path'
p411
asbag69
(g90
g71
NtRp412
(dp413
g74
(dp414
g101
g102
ssg83
g403
sg76
(lp415
S':'
asbag69
(g90
g71
NtRp416
(dp417
g74
(dp418
sg83
g403
sg76
(lp419
g69
(g70
g71
NtRp420
(dp421
g74
(dp422
g82
I3
ssg83
g416
sg76
(lp423
S''
asbasbasbag69
(g85
g71
NtRp424
(dp425
g74
(dp426
sg83
g294
sg76
(lp427
g69
(g90
g71
NtRp428
(dp429
g74
(dp430
g94
g95
ssg83
g424
sg76
(lp431
S'secure'
p432
asbag69
(g90
g71
NtRp433
(dp434
g74
(dp435
g101
g102
ssg83
g424
sg76
(lp436
S':'
asbag69
(g90
g71
NtRp437
(dp438
g74
(dp439
sg83
g424
sg76
(lp440
g69
(g70
g71
NtRp441
(dp442
g74
(dp443
g82
I3
ssg83
g437
sg76
(lp444
S''
asbasbasbag69
(g85
g71
NtRp445
(dp446
g74
(dp447
sg83
g294
sg76
(lp448
g69
(g90
g71
NtRp449
(dp450
g74
(dp451
g94
g95
ssg83
g445
sg76
(lp452
S'version'
p453
asbag69
(g90
g71
NtRp454
(dp455
g74
(dp456
g101
g102
ssg83
g445
sg76
(lp457
S':'
asbag69
(g90
g71
NtRp458
(dp459
g74
(dp460
sg83
g445
sg76
(lp461
g69
(g70
g71
NtRp462
(dp463
g74
(dp464
g82
I3
ssg83
g458
sg76
(lp465
S''
asbasbasbasbasbasbasbag69
(g85
g71
NtRp466
(dp467
g74
(dp468
sg83
g268
sg76
(lp469
g69
(g90
g71
NtRp470
(dp471
g74
(dp472
g94
g95
ssg83
g466
sg76
(lp473
S'session_id_music'
p474
asbag69
(g90
g71
NtRp475
(dp476
g74
(dp477
g101
g102
ssg83
g466
sg76
(lp478
S':'
asbag69
(g90
g71
NtRp479
(dp480
g74
(dp481
sg83
g466
sg76
(lp482
g69
(g70
g71
NtRp483
(dp484
g74
(dp485
g82
I4
ssg83
g479
sg76
(lp486
S'127.0.0.1-adc6eb33-f19b-4659-bd7d-4019f40bbf7e'
p487
ag69
(g78
g71
NtRp488
(dp489
g74
(dp490
g82
I3
ssg83
Nsg76
(lp491
g69
(g85
g71
NtRp492
(dp493
g74
(dp494
sg83
g488
sg76
(lp495
g69
(g90
g71
NtRp496
(dp497
g74
(dp498
g94
g95
ssg83
g492
sg76
(lp499
g306
asbag69
(g90
g71
NtRp500
(dp501
g74
(dp502
g101
g102
ssg83
g492
sg76
(lp503
S':'
asbag69
(g90
g71
NtRp504
(dp505
g74
(dp506
sg83
g492
sg76
(lp507
g69
(g70
g71
NtRp508
(dp509
g74
(dp510
g82
I3
ssg83
g504
sg76
(lp511
S''
asbasbasbag69
(g85
g71
NtRp512
(dp513
g74
(dp514
sg83
g488
sg76
(lp515
g69
(g90
g71
NtRp516
(dp517
g74
(dp518
g94
g95
ssg83
g512
sg76
(lp519
g327
asbag69
(g90
g71
NtRp520
(dp521
g74
(dp522
g101
g102
ssg83
g512
sg76
(lp523
S':'
asbag69
(g90
g71
NtRp524
(dp525
g74
(dp526
sg83
g512
sg76
(lp527
g69
(g70
g71
NtRp528
(dp529
g74
(dp530
g82
I3
ssg83
g524
sg76
(lp531
S''
asbasbasbag69
(g85
g71
NtRp532
(dp533
g74
(dp534
sg83
g488
sg76
(lp535
g69
(g90
g71
NtRp536
(dp537
g74
(dp538
g94
g95
ssg83
g532
sg76
(lp539
g348
asbag69
(g90
g71
NtRp540
(dp541
g74
(dp542
g101
g102
ssg83
g532
sg76
(lp543
S':'
asbag69
(g90
g71
NtRp544
(dp545
g74
(dp546
sg83
g532
sg76
(lp547
g69
(g70
g71
NtRp548
(dp549
g74
(dp550
g82
I3
ssg83
g544
sg76
(lp551
S''
asbasbasbag69
(g85
g71
NtRp552
(dp553
g74
(dp554
sg83
g488
sg76
(lp555
g69
(g90
g71
NtRp556
(dp557
g74
(dp558
g94
g95
ssg83
g552
sg76
(lp559
g369
asbag69
(g90
g71
NtRp560
(dp561
g74
(dp562
g101
g102
ssg83
g552
sg76
(lp563
S':'
asbag69
(g90
g71
NtRp564
(dp565
g74
(dp566
sg83
g552
sg76
(lp567
g69
(g70
g71
NtRp568
(dp569
g74
(dp570
g82
I3
ssg83
g564
sg76
(lp571
S''
asbasbasbag69
(g85
g71
NtRp572
(dp573
g74
(dp574
sg83
g488
sg76
(lp575
g69
(g90
g71
NtRp576
(dp577
g74
(dp578
g94
g95
ssg83
g572
sg76
(lp579
g390
asbag69
(g90
g71
NtRp580
(dp581
g74
(dp582
g101
g102
ssg83
g572
sg76
(lp583
S':'
asbag69
(g90
g71
NtRp584
(dp585
g74
(dp586
sg83
g572
sg76
(lp587
g69
(g70
g71
NtRp588
(dp589
g74
(dp590
g82
I3
ssg83
g584
sg76
(lp591
S''
asbasbasbag69
(g85
g71
NtRp592
(dp593
g74
(dp594
sg83
g488
sg76
(lp595
g69
(g90
g71
NtRp596
(dp597
g74
(dp598
g94
g95
ssg83
g592
sg76
(lp599
g411
asbag69
(g90
g71
NtRp600
(dp601
g74
(dp602
g101
g102
ssg83
g592
sg76
(lp603
S':'
asbag69
(g90
g71
NtRp604
(dp605
g74
(dp606
sg83
g592
sg76
(lp607
g69
(g70
g71
NtRp608
(dp609
g74
(dp610
g82
I3
ssg83
g604
sg76
(lp611
S''
asbasbasbag69
(g85
g71
NtRp612
(dp613
g74
(dp614
sg83
g488
sg76
(lp615
g69
(g90
g71
NtRp616
(dp617
g74
(dp618
g94
g95
ssg83
g612
sg76
(lp619
g432
asbag69
(g90
g71
NtRp620
(dp621
g74
(dp622
g101
g102
ssg83
g612
sg76
(lp623
S':'
asbag69
(g90
g71
NtRp624
(dp625
g74
(dp626
sg83
g612
sg76
(lp627
g69
(g70
g71
NtRp628
(dp629
g74
(dp630
g82
I3
ssg83
g624
sg76
(lp631
S''
asbasbasbag69
(g85
g71
NtRp632
(dp633
g74
(dp634
sg83
g488
sg76
(lp635
g69
(g90
g71
NtRp636
(dp637
g74
(dp638
g94
g95
ssg83
g632
sg76
(lp639
g453
asbag69
(g90
g71
NtRp640
(dp641
g74
(dp642
g101
g102
ssg83
g632
sg76
(lp643
S':'
asbag69
(g90
g71
NtRp644
(dp645
g74
(dp646
sg83
g632
sg76
(lp647
g69
(g70
g71
NtRp648
(dp649
g74
(dp650
g82
I3
ssg83
g644
sg76
(lp651
S''
asbasbasbasbasbasbasbag69
(g85
g71
NtRp652
(dp653
g74
(dp654
sg83
g268
sg76
(lp655
g69
(g90
g71
NtRp656
(dp657
g74
(dp658
g94
g95
ssg83
g652
sg76
(lp659
S'session_id_welcome'
p660
asbag69
(g90
g71
NtRp661
(dp662
g74
(dp663
g101
g102
ssg83
g652
sg76
(lp664
S':'
asbag69
(g90
g71
NtRp665
(dp666
g74
(dp667
sg83
g652
sg76
(lp668
g69
(g70
g71
NtRp669
(dp670
g74
(dp671
g82
I4
ssg83
g665
sg76
(lp672
S'127.0.0.1-cf1e1d48-8570-440d-98a4-a34b5cb99250'
p673
ag69
(g78
g71
NtRp674
(dp675
g74
(dp676
g82
I3
ssg83
Nsg76
(lp677
g69
(g85
g71
NtRp678
(dp679
g74
(dp680
sg83
g674
sg76
(lp681
g69
(g90
g71
NtRp682
(dp683
g74
(dp684
g94
g95
ssg83
g678
sg76
(lp685
g306
asbag69
(g90
g71
NtRp686
(dp687
g74
(dp688
g101
g102
ssg83
g678
sg76
(lp689
S':'
asbag69
(g90
g71
NtRp690
(dp691
g74
(dp692
sg83
g678
sg76
(lp693
g69
(g70
g71
NtRp694
(dp695
g74
(dp696
g82
I3
ssg83
g690
sg76
(lp697
S''
asbasbasbag69
(g85
g71
NtRp698
(dp699
g74
(dp700
sg83
g674
sg76
(lp701
g69
(g90
g71
NtRp702
(dp703
g74
(dp704
g94
g95
ssg83
g698
sg76
(lp705
g327
asbag69
(g90
g71
NtRp706
(dp707
g74
(dp708
g101
g102
ssg83
g698
sg76
(lp709
S':'
asbag69
(g90
g71
NtRp710
(dp711
g74
(dp712
sg83
g698
sg76
(lp713
g69
(g70
g71
NtRp714
(dp715
g74
(dp716
g82
I3
ssg83
g710
sg76
(lp717
S''
asbasbasbag69
(g85
g71
NtRp718
(dp719
g74
(dp720
sg83
g674
sg76
(lp721
g69
(g90
g71
NtRp722
(dp723
g74
(dp724
g94
g95
ssg83
g718
sg76
(lp725
g348
asbag69
(g90
g71
NtRp726
(dp727
g74
(dp728
g101
g102
ssg83
g718
sg76
(lp729
S':'
asbag69
(g90
g71
NtRp730
(dp731
g74
(dp732
sg83
g718
sg76
(lp733
g69
(g70
g71
NtRp734
(dp735
g74
(dp736
g82
I3
ssg83
g730
sg76
(lp737
S''
asbasbasbag69
(g85
g71
NtRp738
(dp739
g74
(dp740
sg83
g674
sg76
(lp741
g69
(g90
g71
NtRp742
(dp743
g74
(dp744
g94
g95
ssg83
g738
sg76
(lp745
g369
asbag69
(g90
g71
NtRp746
(dp747
g74
(dp748
g101
g102
ssg83
g738
sg76
(lp749
S':'
asbag69
(g90
g71
NtRp750
(dp751
g74
(dp752
sg83
g738
sg76
(lp753
g69
(g70
g71
NtRp754
(dp755
g74
(dp756
g82
I3
ssg83
g750
sg76
(lp757
S''
asbasbasbag69
(g85
g71
NtRp758
(dp759
g74
(dp760
sg83
g674
sg76
(lp761
g69
(g90
g71
NtRp762
(dp763
g74
(dp764
g94
g95
ssg83
g758
sg76
(lp765
g390
asbag69
(g90
g71
NtRp766
(dp767
g74
(dp768
g101
g102
ssg83
g758
sg76
(lp769
S':'
asbag69
(g90
g71
NtRp770
(dp771
g74
(dp772
sg83
g758
sg76
(lp773
g69
(g70
g71
NtRp774
(dp775
g74
(dp776
g82
I3
ssg83
g770
sg76
(lp777
S''
asbasbasbag69
(g85
g71
NtRp778
(dp779
g74
(dp780
sg83
g674
sg76
(lp781
g69
(g90
g71
NtRp782
(dp783
g74
(dp784
g94
g95
ssg83
g778
sg76
(lp785
g411
asbag69
(g90
g71
NtRp786
(dp787
g74
(dp788
g101
g102
ssg83
g778
sg76
(lp789
S':'
asbag69
(g90
g71
NtRp790
(dp791
g74
(dp792
sg83
g778
sg76
(lp793
g69
(g70
g71
NtRp794
(dp795
g74
(dp796
g82
I3
ssg83
g790
sg76
(lp797
S''
asbasbasbag69
(g85
g71
NtRp798
(dp799
g74
(dp800
sg83
g674
sg76
(lp801
g69
(g90
g71
NtRp802
(dp803
g74
(dp804
g94
g95
ssg83
g798
sg76
(lp805
g432
asbag69
(g90
g71
NtRp806
(dp807
g74
(dp808
g101
g102
ssg83
g798
sg76
(lp809
S':'
asbag69
(g90
g71
NtRp810
(dp811
g74
(dp812
sg83
g798
sg76
(lp813
g69
(g70
g71
NtRp814
(dp815
g74
(dp816
g82
I3
ssg83
g810
sg76
(lp817
S''
asbasbasbag69
(g85
g71
NtRp818
(dp819
g74
(dp820
sg83
g674
sg76
(lp821
g69
(g90
g71
NtRp822
(dp823
g74
(dp824
g94
g95
ssg83
g818
sg76
(lp825
g453
asbag69
(g90
g71
NtRp826
(dp827
g74
(dp828
g101
g102
ssg83
g818
sg76
(lp829
S':'
asbag69
(g90
g71
NtRp830
(dp831
g74
(dp832
sg83
g818
sg76
(lp833
g69
(g70
g71
NtRp834
(dp835
g74
(dp836
g82
I3
ssg83
g830
sg76
(lp837
S''
asbasbasbasbasbasbasbasbasbasbasbag69
(g85
g71
NtRp838
(dp839
g74
(dp840
sg83
g79
sg76
(lp841
g69
(g90
g71
NtRp842
(dp843
g74
(dp844
g94
g95
ssg83
g838
sg76
(lp845
S'env'
p846
asbag69
(g90
g71
NtRp847
(dp848
g74
(dp849
g101
g102
ssg83
g838
sg76
(lp850
S':'
asbag69
(g90
g71
NtRp851
(dp852
g74
(dp853
sg83
g838
sg76
(lp854
g69
(g70
g71
NtRp855
(dp856
g74
(dp857
g82
I5
ssg83
g851
sg76
(lp858
g69
(g78
g71
NtRp859
(dp860
g74
(dp861
g82
I4
ssg83
Nsg76
(lp862
g69
(g85
g71
NtRp863
(dp864
g74
(dp865
sg83
g859
sg76
(lp866
g69
(g90
g71
NtRp867
(dp868
g74
(dp869
g94
g95
ssg83
g863
sg76
(lp870
S'app_folders'
p871
asbag69
(g90
g71
NtRp872
(dp873
g74
(dp874
g101
g102
ssg83
g863
sg76
(lp875
S':'
asbag69
(g90
g71
NtRp876
(dp877
g74
(dp878
sg83
g863
sg76
(lp879
g69
(g70
g71
NtRp880
(dp881
g74
(dp882
g82
I4
ssg83
g876
sg76
(lp883
S"set(['/home/wionel/Desktop/web2py/applications/admin/', '/home/wionel/Desktop/web2py/applications/welcome/', '/home/wionel/Desktop/web2py/applications/music/'])"
p884
asbasbasbag69
(g85
g71
NtRp885
(dp886
g74
(dp887
sg83
g859
sg76
(lp888
g69
(g90
g71
NtRp889
(dp890
g74
(dp891
g94
g95
ssg83
g885
sg76
(lp892
S'applications_parent'
p893
asbag69
(g90
g71
NtRp894
(dp895
g74
(dp896
g101
g102
ssg83
g885
sg76
(lp897
S':'
asbag69
(g90
g71
NtRp898
(dp899
g74
(dp900
sg83
g885
sg76
(lp901
g69
(g70
g71
NtRp902
(dp903
g74
(dp904
g82
I4
ssg83
g898
sg76
(lp905
S'/home/wionel/Desktop/web2py'
p906
asbasbasbag69
(g85
g71
NtRp907
(dp908
g74
(dp909
sg83
g859
sg76
(lp910
g69
(g90
g71
NtRp911
(dp912
g74
(dp913
g94
g95
ssg83
g907
sg76
(lp914
S'cmd_args'
p915
asbag69
(g90
g71
NtRp916
(dp917
g74
(dp918
g101
g102
ssg83
g907
sg76
(lp919
S':'
asbag69
(g90
g71
NtRp920
(dp921
g74
(dp922
sg83
g907
sg76
(lp923
g69
(g70
g71
NtRp924
(dp925
g74
(dp926
g82
I4
ssg83
g920
sg76
(lp927
g69
(g78
g71
NtRp928
(dp929
g74
(dp930
g82
I3
ssg83
Nsg76
(lp931
sbasbasbasbag69
(g85
g71
NtRp932
(dp933
g74
(dp934
sg83
g859
sg76
(lp935
g69
(g90
g71
NtRp936
(dp937
g74
(dp938
g94
g95
ssg83
g932
sg76
(lp939
S'cmd_options'
p940
asbag69
(g90
g71
NtRp941
(dp942
g74
(dp943
g101
g102
ssg83
g932
sg76
(lp944
S':'
asbag69
(g90
g71
NtRp945
(dp946
g74
(dp947
sg83
g932
sg76
(lp948
g69
(g70
g71
NtRp949
(dp950
g74
(dp951
g82
I4
ssg83
g945
sg76
(lp952
S"<Values at 0x2d6d488: {'verbose': False, 'ip': '127.0.0.1', 'with_scheduler': False, 'ips': ['127.0.1.1'], 'shutdown_timeout': 5, 'taskbar': False, 'port': 8000, 'maxthreads': None, 'softcron': False, 'server_name': 'Rohan', 'bpython': False, 'nogui': False, 'pid_filename': 'httpserver.pid', 'extcron': False, 'runcron': False, 'run_system_tests': False, 'test': None, 'folder': '/home/wionel/Desktop/web2py', 'config': '', 'minthreads': None, 'winservice': '', 'shell': None, 'run': '', 'log_filename': 'httpserver.log', 'debuglevel': 30, 'args': [''], 'socket_timeout': 5, 'ssl_ca_certificate': None, 'scheduler': None, 'profiler_filename': None, 'ssl_private_key': '', 'scheduler_groups': None, 'password': '<ask>', 'request_queue_size': 5, 'ssl_certificate': '', 'cronjob': False, 'numthreads': None, 'quiet': False, 'interfaces': None, 'import_models': False, 'timeout': 10, 'plain': False, 'nobanner': False}>"
p953
asbasbasbag69
(g85
g71
NtRp954
(dp955
g74
(dp956
sg83
g859
sg76
(lp957
g69
(g90
g71
NtRp958
(dp959
g74
(dp960
g94
g95
ssg83
g954
sg76
(lp961
S'db_sessions'
p962
asbag69
(g90
g71
NtRp963
(dp964
g74
(dp965
g101
g102
ssg83
g954
sg76
(lp966
S':'
asbag69
(g90
g71
NtRp967
(dp968
g74
(dp969
sg83
g954
sg76
(lp970
g69
(g70
g71
NtRp971
(dp972
g74
(dp973
g82
I4
ssg83
g967
sg76
(lp974
S'set([])'
p975
asbasbasbag69
(g85
g71
NtRp976
(dp977
g74
(dp978
sg83
g859
sg76
(lp979
g69
(g90
g71
NtRp980
(dp981
g74
(dp982
g94
g95
ssg83
g976
sg76
(lp983
S'debugging'
p984
asbag69
(g90
g71
NtRp985
(dp986
g74
(dp987
g101
g102
ssg83
g976
sg76
(lp988
S':'
asbag69
(g90
g71
NtRp989
(dp990
g74
(dp991
sg83
g976
sg76
(lp992
g69
(g70
g71
NtRp993
(dp994
g74
(dp995
g82
I4
ssg83
g989
sg76
(lp996
g112
asbasbasbag69
(g85
g71
NtRp997
(dp998
g74
(dp999
sg83
g859
sg76
(lp1000
g69
(g90
g71
NtRp1001
(dp1002
g74
(dp1003
g94
g95
ssg83
g997
sg76
(lp1004
S'gluon_parent'
p1005
asbag69
(g90
g71
NtRp1006
(dp1007
g74
(dp1008
g101
g102
ssg83
g997
sg76
(lp1009
S':'
asbag69
(g90
g71
NtRp1010
(dp1011
g74
(dp1012
sg83
g997
sg76
(lp1013
g69
(g70
g71
NtRp1014
(dp1015
g74
(dp1016
g82
I4
ssg83
g1010
sg76
(lp1017
S'/home/wionel/Desktop/web2py'
p1018
asbasbasbag69
(g85
g71
NtRp1019
(dp1020
g74
(dp1021
sg83
g859
sg76
(lp1022
g69
(g90
g71
NtRp1023
(dp1024
g74
(dp1025
g94
g95
ssg83
g1019
sg76
(lp1026
S'http_accept'
p1027
asbag69
(g90
g71
NtRp1028
(dp1029
g74
(dp1030
g101
g102
ssg83
g1019
sg76
(lp1031
S':'
asbag69
(g90
g71
NtRp1032
(dp1033
g74
(dp1034
sg83
g1019
sg76
(lp1035
g69
(g70
g71
NtRp1036
(dp1037
g74
(dp1038
g82
I4
ssg83
g1032
sg76
(lp1039
S'text/html,application/xhtml+xml,application/xml;q=0.9,*/*;q=0.8'
p1040
asbasbasbag69
(g85
g71
NtRp1041
(dp1042
g74
(dp1043
sg83
g859
sg76
(lp1044
g69
(g90
g71
NtRp1045
(dp1046
g74
(dp1047
g94
g95
ssg83
g1041
sg76
(lp1048
S'http_accept_charset'
p1049
asbag69
(g90
g71
NtRp1050
(dp1051
g74
(dp1052
g101
g102
ssg83
g1041
sg76
(lp1053
S':'
asbag69
(g90
g71
NtRp1054
(dp1055
g74
(dp1056
sg83
g1041
sg76
(lp1057
g69
(g70
g71
NtRp1058
(dp1059
g74
(dp1060
g82
I4
ssg83
g1054
sg76
(lp1061
S'ISO-8859-1,utf-8;q=0.7,*;q=0.3'
p1062
asbasbasbag69
(g85
g71
NtRp1063
(dp1064
g74
(dp1065
sg83
g859
sg76
(lp1066
g69
(g90
g71
NtRp1067
(dp1068
g74
(dp1069
g94
g95
ssg83
g1063
sg76
(lp1070
S'http_accept_encoding'
p1071
asbag69
(g90
g71
NtRp1072
(dp1073
g74
(dp1074
g101
g102
ssg83
g1063
sg76
(lp1075
S':'
asbag69
(g90
g71
NtRp1076
(dp1077
g74
(dp1078
sg83
g1063
sg76
(lp1079
g69
(g70
g71
NtRp1080
(dp1081
g74
(dp1082
g82
I4
ssg83
g1076
sg76
(lp1083
S'gzip,deflate,sdch'
p1084
asbasbasbag69
(g85
g71
NtRp1085
(dp1086
g74
(dp1087
sg83
g859
sg76
(lp1088
g69
(g90
g71
NtRp1089
(dp1090
g74
(dp1091
g94
g95
ssg83
g1085
sg76
(lp1092
S'http_accept_language'
p1093
asbag69
(g90
g71
NtRp1094
(dp1095
g74
(dp1096
g101
g102
ssg83
g1085
sg76
(lp1097
S':'
asbag69
(g90
g71
NtRp1098
(dp1099
g74
(dp1100
sg83
g1085
sg76
(lp1101
g69
(g70
g71
NtRp1102
(dp1103
g74
(dp1104
g82
I4
ssg83
g1098
sg76
(lp1105
S'en-US,en;q=0.8'
p1106
asbasbasbag69
(g85
g71
NtRp1107
(dp1108
g74
(dp1109
sg83
g859
sg76
(lp1110
g69
(g90
g71
NtRp1111
(dp1112
g74
(dp1113
g94
g95
ssg83
g1107
sg76
(lp1114
S'http_cache_control'
p1115
asbag69
(g90
g71
NtRp1116
(dp1117
g74
(dp1118
g101
g102
ssg83
g1107
sg76
(lp1119
S':'
asbag69
(g90
g71
NtRp1120
(dp1121
g74
(dp1122
sg83
g1107
sg76
(lp1123
g69
(g70
g71
NtRp1124
(dp1125
g74
(dp1126
g82
I4
ssg83
g1120
sg76
(lp1127
S'max-age=0'
p1128
asbasbasbag69
(g85
g71
NtRp1129
(dp1130
g74
(dp1131
sg83
g859
sg76
(lp1132
g69
(g90
g71
NtRp1133
(dp1134
g74
(dp1135
g94
g95
ssg83
g1129
sg76
(lp1136
S'http_connection'
p1137
asbag69
(g90
g71
NtRp1138
(dp1139
g74
(dp1140
g101
g102
ssg83
g1129
sg76
(lp1141
S':'
asbag69
(g90
g71
NtRp1142
(dp1143
g74
(dp1144
sg83
g1129
sg76
(lp1145
g69
(g70
g71
NtRp1146
(dp1147
g74
(dp1148
g82
I4
ssg83
g1142
sg76
(lp1149
S'keep-alive'
p1150
asbasbasbag69
(g85
g71
NtRp1151
(dp1152
g74
(dp1153
sg83
g859
sg76
(lp1154
g69
(g90
g71
NtRp1155
(dp1156
g74
(dp1157
g94
g95
ssg83
g1151
sg76
(lp1158
S'http_cookie'
p1159
asbag69
(g90
g71
NtRp1160
(dp1161
g74
(dp1162
g101
g102
ssg83
g1151
sg76
(lp1163
S':'
asbag69
(g90
g71
NtRp1164
(dp1165
g74
(dp1166
sg83
g1151
sg76
(lp1167
g69
(g70
g71
NtRp1168
(dp1169
g74
(dp1170
g82
I4
ssg83
g1164
sg76
(lp1171
S'session_id_welcome=127.0.0.1-cf1e1d48-8570-440d-98a4-a34b5cb99250; session_id_music=127.0.0.1-adc6eb33-f19b-4659-bd7d-4019f40bbf7e; session_id_admin=127.0.0.1-b219e5e2-515c-4b16-b7ec-dfc8af6f68cc'
p1172
asbasbasbag69
(g85
g71
NtRp1173
(dp1174
g74
(dp1175
sg83
g859
sg76
(lp1176
g69
(g90
g71
NtRp1177
(dp1178
g74
(dp1179
g94
g95
ssg83
g1173
sg76
(lp1180
S'http_host'
p1181
asbag69
(g90
g71
NtRp1182
(dp1183
g74
(dp1184
g101
g102
ssg83
g1173
sg76
(lp1185
S':'
asbag69
(g90
g71
NtRp1186
(dp1187
g74
(dp1188
sg83
g1173
sg76
(lp1189
g69
(g70
g71
NtRp1190
(dp1191
g74
(dp1192
g82
I4
ssg83
g1186
sg76
(lp1193
S'127.0.0.1:8000'
p1194
asbasbasbag69
(g85
g71
NtRp1195
(dp1196
g74
(dp1197
sg83
g859
sg76
(lp1198
g69
(g90
g71
NtRp1199
(dp1200
g74
(dp1201
g94
g95
ssg83
g1195
sg76
(lp1202
S'http_referer'
p1203
asbag69
(g90
g71
NtRp1204
(dp1205
g74
(dp1206
g101
g102
ssg83
g1195
sg76
(lp1207
S':'
asbag69
(g90
g71
NtRp1208
(dp1209
g74
(dp1210
sg83
g1195
sg76
(lp1211
g69
(g70
g71
NtRp1212
(dp1213
g74
(dp1214
g82
I4
ssg83
g1208
sg76
(lp1215
S'http://127.0.0.1:8000/music/default/user/login?_next=%2Fmusic%2Fdefault%2Fplaylist'
p1216
asbasbasbag69
(g85
g71
NtRp1217
(dp1218
g74
(dp1219
sg83
g859
sg76
(lp1220
g69
(g90
g71
NtRp1221
(dp1222
g74
(dp1223
g94
g95
ssg83
g1217
sg76
(lp1224
S'http_user_agent'
p1225
asbag69
(g90
g71
NtRp1226
(dp1227
g74
(dp1228
g101
g102
ssg83
g1217
sg76
(lp1229
S':'
asbag69
(g90
g71
NtRp1230
(dp1231
g74
(dp1232
sg83
g1217
sg76
(lp1233
g69
(g70
g71
NtRp1234
(dp1235
g74
(dp1236
g82
I4
ssg83
g1230
sg76
(lp1237
S'Mozilla/5.0 (X11; Linux x86_64) AppleWebKit/537.4 (KHTML, like Gecko) Chrome/22.0.1229.92 Safari/537.4'
p1238
asbasbasbag69
(g85
g71
NtRp1239
(dp1240
g74
(dp1241
sg83
g859
sg76
(lp1242
g69
(g90
g71
NtRp1243
(dp1244
g74
(dp1245
g94
g95
ssg83
g1239
sg76
(lp1246
S'is_jython'
p1247
asbag69
(g90
g71
NtRp1248
(dp1249
g74
(dp1250
g101
g102
ssg83
g1239
sg76
(lp1251
S':'
asbag69
(g90
g71
NtRp1252
(dp1253
g74
(dp1254
sg83
g1239
sg76
(lp1255
g69
(g70
g71
NtRp1256
(dp1257
g74
(dp1258
g82
I4
ssg83
g1252
sg76
(lp1259
g112
asbasbasbag69
(g85
g71
NtRp1260
(dp1261
g74
(dp1262
sg83
g859
sg76
(lp1263
g69
(g90
g71
NtRp1264
(dp1265
g74
(dp1266
g94
g95
ssg83
g1260
sg76
(lp1267
S'is_pypy'
p1268
asbag69
(g90
g71
NtRp1269
(dp1270
g74
(dp1271
g101
g102
ssg83
g1260
sg76
(lp1272
S':'
asbag69
(g90
g71
NtRp1273
(dp1274
g74
(dp1275
sg83
g1260
sg76
(lp1276
g69
(g70
g71
NtRp1277
(dp1278
g74
(dp1279
g82
I4
ssg83
g1273
sg76
(lp1280
g112
asbasbasbag69
(g85
g71
NtRp1281
(dp1282
g74
(dp1283
sg83
g859
sg76
(lp1284
g69
(g90
g71
NtRp1285
(dp1286
g74
(dp1287
g94
g95
ssg83
g1281
sg76
(lp1288
S'local_hosts'
p1289
asbag69
(g90
g71
NtRp1290
(dp1291
g74
(dp1292
g101
g102
ssg83
g1281
sg76
(lp1293
S':'
asbag69
(g90
g71
NtRp1294
(dp1295
g74
(dp1296
sg83
g1281
sg76
(lp1297
g69
(g70
g71
NtRp1298
(dp1299
g74
(dp1300
g82
I4
ssg83
g1294
sg76
(lp1301
g69
(g78
g71
NtRp1302
(dp1303
g74
(dp1304
g82
I3
ssg83
Nsg76
(lp1305
g69
(g85
g71
NtRp1306
(dp1307
g74
(dp1308
sg83
g1302
sg76
(lp1309
g69
(g90
g71
NtRp1310
(dp1311
g74
(dp1312
sg83
g1306
sg76
(lp1313
g69
(g70
g71
NtRp1314
(dp1315
g74
(dp1316
g82
I3
ssg83
g1310
sg76
(lp1317
S'127.0.0.1'
p1318
asbasbasbag69
(g85
g71
NtRp1319
(dp1320
g74
(dp1321
sg83
g1302
sg76
(lp1322
g69
(g90
g71
NtRp1323
(dp1324
g74
(dp1325
sg83
g1319
sg76
(lp1326
g69
(g70
g71
NtRp1327
(dp1328
g74
(dp1329
g82
I3
ssg83
g1323
sg76
(lp1330
S'::ffff:127.0.0.1'
p1331
asbasbasbag69
(g85
g71
NtRp1332
(dp1333
g74
(dp1334
sg83
g1302
sg76
(lp1335
g69
(g90
g71
NtRp1336
(dp1337
g74
(dp1338
sg83
g1332
sg76
(lp1339
g69
(g70
g71
NtRp1340
(dp1341
g74
(dp1342
g82
I3
ssg83
g1336
sg76
(lp1343
S'Rohan'
p1344
asbasbasbag69
(g85
g71
NtRp1345
(dp1346
g74
(dp1347
sg83
g1302
sg76
(lp1348
g69
(g90
g71
NtRp1349
(dp1350
g74
(dp1351
sg83
g1345
sg76
(lp1352
g69
(g70
g71
NtRp1353
(dp1354
g74
(dp1355
g82
I3
ssg83
g1349
sg76
(lp1356
S'Rohan'
p1357
asbasbasbag69
(g85
g71
NtRp1358
(dp1359
g74
(dp1360
sg83
g1302
sg76
(lp1361
g69
(g90
g71
NtRp1362
(dp1363
g74
(dp1364
sg83
g1358
sg76
(lp1365
g69
(g70
g71
NtRp1366
(dp1367
g74
(dp1368
g82
I3
ssg83
g1362
sg76
(lp1369
S'127.0.1.1'
p1370
asbasbasbasbasbasbasbag69
(g85
g71
NtRp1371
(dp1372
g74
(dp1373
sg83
g859
sg76
(lp1374
g69
(g90
g71
NtRp1375
(dp1376
g74
(dp1377
g94
g95
ssg83
g1371
sg76
(lp1378
S'path_info'
p1379
asbag69
(g90
g71
NtRp1380
(dp1381
g74
(dp1382
g101
g102
ssg83
g1371
sg76
(lp1383
S':'
asbag69
(g90
g71
NtRp1384
(dp1385
g74
(dp1386
sg83
g1371
sg76
(lp1387
g69
(g70
g71
NtRp1388
(dp1389
g74
(dp1390
g82
I4
ssg83
g1384
sg76
(lp1391
S'/music/default/playlist'
p1392
asbasbasbag69
(g85
g71
NtRp1393
(dp1394
g74
(dp1395
sg83
g859
sg76
(lp1396
g69
(g90
g71
NtRp1397
(dp1398
g74
(dp1399
g94
g95
ssg83
g1393
sg76
(lp1400
S'query_string'
p1401
asbag69
(g90
g71
NtRp1402
(dp1403
g74
(dp1404
g101
g102
ssg83
g1393
sg76
(lp1405
S':'
asbag69
(g90
g71
NtRp1406
(dp1407
g74
(dp1408
sg83
g1393
sg76
(lp1409
g69
(g70
g71
NtRp1410
(dp1411
g74
(dp1412
g82
I4
ssg83
g1406
sg76
(lp1413
S''
asbasbasbag69
(g85
g71
NtRp1414
(dp1415
g74
(dp1416
sg83
g859
sg76
(lp1417
g69
(g90
g71
NtRp1418
(dp1419
g74
(dp1420
g94
g95
ssg83
g1414
sg76
(lp1421
S'remote_addr'
p1422
asbag69
(g90
g71
NtRp1423
(dp1424
g74
(dp1425
g101
g102
ssg83
g1414
sg76
(lp1426
S':'
asbag69
(g90
g71
NtRp1427
(dp1428
g74
(dp1429
sg83
g1414
sg76
(lp1430
g69
(g70
g71
NtRp1431
(dp1432
g74
(dp1433
g82
I4
ssg83
g1427
sg76
(lp1434
g224
asbasbasbag69
(g85
g71
NtRp1435
(dp1436
g74
(dp1437
sg83
g859
sg76
(lp1438
g69
(g90
g71
NtRp1439
(dp1440
g74
(dp1441
g94
g95
ssg83
g1435
sg76
(lp1442
S'remote_port'
p1443
asbag69
(g90
g71
NtRp1444
(dp1445
g74
(dp1446
g101
g102
ssg83
g1435
sg76
(lp1447
S':'
asbag69
(g90
g71
NtRp1448
(dp1449
g74
(dp1450
sg83
g1435
sg76
(lp1451
g69
(g70
g71
NtRp1452
(dp1453
g74
(dp1454
g82
I4
ssg83
g1448
sg76
(lp1455
S'47496'
p1456
asbasbasbag69
(g85
g71
NtRp1457
(dp1458
g74
(dp1459
sg83
g859
sg76
(lp1460
g69
(g90
g71
NtRp1461
(dp1462
g74
(dp1463
g94
g95
ssg83
g1457
sg76
(lp1464
S'request_method'
p1465
asbag69
(g90
g71
NtRp1466
(dp1467
g74
(dp1468
g101
g102
ssg83
g1457
sg76
(lp1469
S':'
asbag69
(g90
g71
NtRp1470
(dp1471
g74
(dp1472
sg83
g1457
sg76
(lp1473
g69
(g70
g71
NtRp1474
(dp1475
g74
(dp1476
g82
I4
ssg83
g1470
sg76
(lp1477
S'GET'
p1478
asbasbasbag69
(g85
g71
NtRp1479
(dp1480
g74
(dp1481
sg83
g859
sg76
(lp1482
g69
(g90
g71
NtRp1483
(dp1484
g74
(dp1485
g94
g95
ssg83
g1479
sg76
(lp1486
S'request_uri'
p1487
asbag69
(g90
g71
NtRp1488
(dp1489
g74
(dp1490
g101
g102
ssg83
g1479
sg76
(lp1491
S':'
asbag69
(g90
g71
NtRp1492
(dp1493
g74
(dp1494
sg83
g1479
sg76
(lp1495
g69
(g70
g71
NtRp1496
(dp1497
g74
(dp1498
g82
I4
ssg83
g1492
sg76
(lp1499
g1392
asbasbasbag69
(g85
g71
NtRp1500
(dp1501
g74
(dp1502
sg83
g859
sg76
(lp1503
g69
(g90
g71
NtRp1504
(dp1505
g74
(dp1506
g94
g95
ssg83
g1500
sg76
(lp1507
S'script_name'
p1508
asbag69
(g90
g71
NtRp1509
(dp1510
g74
(dp1511
g101
g102
ssg83
g1500
sg76
(lp1512
S':'
asbag69
(g90
g71
NtRp1513
(dp1514
g74
(dp1515
sg83
g1500
sg76
(lp1516
g69
(g70
g71
NtRp1517
(dp1518
g74
(dp1519
g82
I4
ssg83
g1513
sg76
(lp1520
S''
asbasbasbag69
(g85
g71
NtRp1521
(dp1522
g74
(dp1523
sg83
g859
sg76
(lp1524
g69
(g90
g71
NtRp1525
(dp1526
g74
(dp1527
g94
g95
ssg83
g1521
sg76
(lp1528
S'server_name'
p1529
asbag69
(g90
g71
NtRp1530
(dp1531
g74
(dp1532
g101
g102
ssg83
g1521
sg76
(lp1533
S':'
asbag69
(g90
g71
NtRp1534
(dp1535
g74
(dp1536
sg83
g1521
sg76
(lp1537
g69
(g70
g71
NtRp1538
(dp1539
g74
(dp1540
g82
I4
ssg83
g1534
sg76
(lp1541
g1357
asbasbasbag69
(g85
g71
NtRp1542
(dp1543
g74
(dp1544
sg83
g859
sg76
(lp1545
g69
(g90
g71
NtRp1546
(dp1547
g74
(dp1548
g94
g95
ssg83
g1542
sg76
(lp1549
S'server_port'
p1550
asbag69
(g90
g71
NtRp1551
(dp1552
g74
(dp1553
g101
g102
ssg83
g1542
sg76
(lp1554
S':'
asbag69
(g90
g71
NtRp1555
(dp1556
g74
(dp1557
sg83
g1542
sg76
(lp1558
g69
(g70
g71
NtRp1559
(dp1560
g74
(dp1561
g82
I4
ssg83
g1555
sg76
(lp1562
S'8000'
p1563
asbasbasbag69
(g85
g71
NtRp1564
(dp1565
g74
(dp1566
sg83
g859
sg76
(lp1567
g69
(g90
g71
NtRp1568
(dp1569
g74
(dp1570
g94
g95
ssg83
g1564
sg76
(lp1571
S'server_protocol'
p1572
asbag69
(g90
g71
NtRp1573
(dp1574
g74
(dp1575
g101
g102
ssg83
g1564
sg76
(lp1576
S':'
asbag69
(g90
g71
NtRp1577
(dp1578
g74
(dp1579
sg83
g1564
sg76
(lp1580
g69
(g70
g71
NtRp1581
(dp1582
g74
(dp1583
g82
I4
ssg83
g1577
sg76
(lp1584
S'HTTP/1.1'
p1585
asbasbasbag69
(g85
g71
NtRp1586
(dp1587
g74
(dp1588
sg83
g859
sg76
(lp1589
g69
(g90
g71
NtRp1590
(dp1591
g74
(dp1592
g94
g95
ssg83
g1586
sg76
(lp1593
S'server_software'
p1594
asbag69
(g90
g71
NtRp1595
(dp1596
g74
(dp1597
g101
g102
ssg83
g1586
sg76
(lp1598
S':'
asbag69
(g90
g71
NtRp1599
(dp1600
g74
(dp1601
sg83
g1586
sg76
(lp1602
g69
(g70
g71
NtRp1603
(dp1604
g74
(dp1605
g82
I4
ssg83
g1599
sg76
(lp1606
S'Rocket 1.2.5'
p1607
asbasbasbag69
(g85
g71
NtRp1608
(dp1609
g74
(dp1610
sg83
g859
sg76
(lp1611
g69
(g90
g71
NtRp1612
(dp1613
g74
(dp1614
g94
g95
ssg83
g1608
sg76
(lp1615
S'web2py_path'
p1616
asbag69
(g90
g71
NtRp1617
(dp1618
g74
(dp1619
g101
g102
ssg83
g1608
sg76
(lp1620
S':'
asbag69
(g90
g71
NtRp1621
(dp1622
g74
(dp1623
sg83
g1608
sg76
(lp1624
g69
(g70
g71
NtRp1625
(dp1626
g74
(dp1627
g82
I4
ssg83
g1621
sg76
(lp1628
g906
asbasbasbag69
(g85
g71
NtRp1629
(dp1630
g74
(dp1631
sg83
g859
sg76
(lp1632
g69
(g90
g71
NtRp1633
(dp1634
g74
(dp1635
g94
g95
ssg83
g1629
sg76
(lp1636
S'web2py_version'
p1637
asbag69
(g90
g71
NtRp1638
(dp1639
g74
(dp1640
g101
g102
ssg83
g1629
sg76
(lp1641
S':'
asbag69
(g90
g71
NtRp1642
(dp1643
g74
(dp1644
sg83
g1629
sg76
(lp1645
g69
(g70
g71
NtRp1646
(dp1647
g74
(dp1648
g82
I4
ssg83
g1642
sg76
(lp1649
g69
(g78
g71
NtRp1650
(dp1651
g74
(dp1652
g82
I3
ssg83
Nsg76
(lp1653
g69
(g85
g71
NtRp1654
(dp1655
g74
(dp1656
sg83
g1650
sg76
(lp1657
g69
(g90
g71
NtRp1658
(dp1659
g74
(dp1660
sg83
g1654
sg76
(lp1661
g69
(g70
g71
NtRp1662
(dp1663
g74
(dp1664
g82
I3
ssg83
g1658
sg76
(lp1665
S'2'
asbasbasbag69
(g85
g71
NtRp1666
(dp1667
g74
(dp1668
sg83
g1650
sg76
(lp1669
g69
(g90
g71
NtRp1670
(dp1671
g74
(dp1672
sg83
g1666
sg76
(lp1673
g69
(g70
g71
NtRp1674
(dp1675
g74
(dp1676
g82
I3
ssg83
g1670
sg76
(lp1677
S'2'
asbasbasbag69
(g85
g71
NtRp1678
(dp1679
g74
(dp1680
sg83
g1650
sg76
(lp1681
g69
(g90
g71
NtRp1682
(dp1683
g74
(dp1684
sg83
g1678
sg76
(lp1685
g69
(g70
g71
NtRp1686
(dp1687
g74
(dp1688
g82
I3
ssg83
g1682
sg76
(lp1689
S'1'
asbasbasbag69
(g85
g71
NtRp1690
(dp1691
g74
(dp1692
sg83
g1650
sg76
(lp1693
g69
(g90
g71
NtRp1694
(dp1695
g74
(dp1696
sg83
g1690
sg76
(lp1697
g69
(g70
g71
NtRp1698
(dp1699
g74
(dp1700
g82
I3
ssg83
g1694
sg76
(lp1701
S'datetime.datetime(2012, 10, 21, 16, 57, 4)'
p1702
asbasbasbag69
(g85
g71
NtRp1703
(dp1704
g74
(dp1705
sg83
g1650
sg76
(lp1706
g69
(g90
g71
NtRp1707
(dp1708
g74
(dp1709
sg83
g1703
sg76
(lp1710
g69
(g70
g71
NtRp1711
(dp1712
g74
(dp1713
g82
I3
ssg83
g1707
sg76
(lp1714
S'stable'
p1715
asbasbasbasbasbasbasbag69
(g85
g71
NtRp1716
(dp1717
g74
(dp1718
sg83
g859
sg76
(lp1719
g69
(g90
g71
NtRp1720
(dp1721
g74
(dp1722
g94
g95
ssg83
g1716
sg76
(lp1723
S'wsgi_errors'
p1724
asbag69
(g90
g71
NtRp1725
(dp1726
g74
(dp1727
g101
g102
ssg83
g1716
sg76
(lp1728
S':'
asbag69
(g90
g71
NtRp1729
(dp1730
g74
(dp1731
sg83
g1716
sg76
(lp1732
g69
(g70
g71
NtRp1733
(dp1734
g74
(dp1735
g82
I4
ssg83
g1729
sg76
(lp1736
S"<open file '<stderr>', mode 'w' at 0x7f811fe6f270>"
p1737
asbasbasbag69
(g85
g71
NtRp1738
(dp1739
g74
(dp1740
sg83
g859
sg76
(lp1741
g69
(g90
g71
NtRp1742
(dp1743
g74
(dp1744
g94
g95
ssg83
g1738
sg76
(lp1745
S'wsgi_file_wrapper'
p1746
asbag69
(g90
g71
NtRp1747
(dp1748
g74
(dp1749
g101
g102
ssg83
g1738
sg76
(lp1750
S':'
asbag69
(g90
g71
NtRp1751
(dp1752
g74
(dp1753
sg83
g1738
sg76
(lp1754
g69
(g70
g71
NtRp1755
(dp1756
g74
(dp1757
g82
I4
ssg83
g1751
sg76
(lp1758
S'<class wsgiref.util.FileWrapper at 0x2cc6808>'
p1759
asbasbasbag69
(g85
g71
NtRp1760
(dp1761
g74
(dp1762
sg83
g859
sg76
(lp1763
g69
(g90
g71
NtRp1764
(dp1765
g74
(dp1766
g94
g95
ssg83
g1760
sg76
(lp1767
S'wsgi_input'
p1768
asbag69
(g90
g71
NtRp1769
(dp1770
g74
(dp1771
g101
g102
ssg83
g1760
sg76
(lp1772
S':'
asbag69
(g90
g71
NtRp1773
(dp1774
g74
(dp1775
sg83
g1760
sg76
(lp1776
g69
(g70
g71
NtRp1777
(dp1778
g74
(dp1779
g82
I4
ssg83
g1773
sg76
(lp1780
S'<socket._fileobject object at 0x7f80fc287650>'
p1781
asbasbasbag69
(g85
g71
NtRp1782
(dp1783
g74
(dp1784
sg83
g859
sg76
(lp1785
g69
(g90
g71
NtRp1786
(dp1787
g74
(dp1788
g94
g95
ssg83
g1782
sg76
(lp1789
S'wsgi_multiprocess'
p1790
asbag69
(g90
g71
NtRp1791
(dp1792
g74
(dp1793
g101
g102
ssg83
g1782
sg76
(lp1794
S':'
asbag69
(g90
g71
NtRp1795
(dp1796
g74
(dp1797
sg83
g1782
sg76
(lp1798
g69
(g70
g71
NtRp1799
(dp1800
g74
(dp1801
g82
I4
ssg83
g1795
sg76
(lp1802
g112
asbasbasbag69
(g85
g71
NtRp1803
(dp1804
g74
(dp1805
sg83
g859
sg76
(lp1806
g69
(g90
g71
NtRp1807
(dp1808
g74
(dp1809
g94
g95
ssg83
g1803
sg76
(lp1810
S'wsgi_multithread'
p1811
asbag69
(g90
g71
NtRp1812
(dp1813
g74
(dp1814
g101
g102
ssg83
g1803
sg76
(lp1815
S':'
asbag69
(g90
g71
NtRp1816
(dp1817
g74
(dp1818
sg83
g1803
sg76
(lp1819
g69
(g70
g71
NtRp1820
(dp1821
g74
(dp1822
g82
I4
ssg83
g1816
sg76
(lp1823
S'True'
p1824
asbasbasbag69
(g85
g71
NtRp1825
(dp1826
g74
(dp1827
sg83
g859
sg76
(lp1828
g69
(g90
g71
NtRp1829
(dp1830
g74
(dp1831
g94
g95
ssg83
g1825
sg76
(lp1832
S'wsgi_run_once'
p1833
asbag69
(g90
g71
NtRp1834
(dp1835
g74
(dp1836
g101
g102
ssg83
g1825
sg76
(lp1837
S':'
asbag69
(g90
g71
NtRp1838
(dp1839
g74
(dp1840
sg83
g1825
sg76
(lp1841
g69
(g70
g71
NtRp1842
(dp1843
g74
(dp1844
g82
I4
ssg83
g1838
sg76
(lp1845
g112
asbasbasbag69
(g85
g71
NtRp1846
(dp1847
g74
(dp1848
sg83
g859
sg76
(lp1849
g69
(g90
g71
NtRp1850
(dp1851
g74
(dp1852
g94
g95
ssg83
g1846
sg76
(lp1853
S'wsgi_url_scheme'
p1854
asbag69
(g90
g71
NtRp1855
(dp1856
g74
(dp1857
g101
g102
ssg83
g1846
sg76
(lp1858
S':'
asbag69
(g90
g71
NtRp1859
(dp1860
g74
(dp1861
sg83
g1846
sg76
(lp1862
g69
(g70
g71
NtRp1863
(dp1864
g74
(dp1865
g82
I4
ssg83
g1859
sg76
(lp1866
S'http'
p1867
asbasbasbag69
(g85
g71
NtRp1868
(dp1869
g74
(dp1870
sg83
g859
sg76
(lp1871
g69
(g90
g71
NtRp1872
(dp1873
g74
(dp1874
g94
g95
ssg83
g1868
sg76
(lp1875
S'wsgi_version'
p1876
asbag69
(g90
g71
NtRp1877
(dp1878
g74
(dp1879
g101
g102
ssg83
g1868
sg76
(lp1880
S':'
asbag69
(g90
g71
NtRp1881
(dp1882
g74
(dp1883
sg83
g1868
sg76
(lp1884
g69
(g70
g71
NtRp1885
(dp1886
g74
(dp1887
g82
I4
ssg83
g1881
sg76
(lp1888
g69
(g78
g71
NtRp1889
(dp1890
g74
(dp1891
g82
I3
ssg83
Nsg76
(lp1892
g69
(g85
g71
NtRp1893
(dp1894
g74
(dp1895
sg83
g1889
sg76
(lp1896
g69
(g90
g71
NtRp1897
(dp1898
g74
(dp1899
sg83
g1893
sg76
(lp1900
g69
(g70
g71
NtRp1901
(dp1902
g74
(dp1903
g82
I3
ssg83
g1897
sg76
(lp1904
S'1'
asbasbasbag69
(g85
g71
NtRp1905
(dp1906
g74
(dp1907
sg83
g1889
sg76
(lp1908
g69
(g90
g71
NtRp1909
(dp1910
g74
(dp1911
sg83
g1905
sg76
(lp1912
g69
(g70
g71
NtRp1913
(dp1914
g74
(dp1915
g82
I3
ssg83
g1909
sg76
(lp1916
S'0'
asbasbasbasbasbasbasbasbasbasbasbag69
(g85
g71
NtRp1917
(dp1918
g74
(dp1919
sg83
g79
sg76
(lp1920
g69
(g90
g71
NtRp1921
(dp1922
g74
(dp1923
g94
g95
ssg83
g1917
sg76
(lp1924
S'extension'
p1925
asbag69
(g90
g71
NtRp1926
(dp1927
g74
(dp1928
g101
g102
ssg83
g1917
sg76
(lp1929
S':'
asbag69
(g90
g71
NtRp1930
(dp1931
g74
(dp1932
sg83
g1917
sg76
(lp1933
g69
(g70
g71
NtRp1934
(dp1935
g74
(dp1936
g82
I5
ssg83
g1930
sg76
(lp1937
S'html'
p1938
asbasbasbag69
(g85
g71
NtRp1939
(dp1940
g74
(dp1941
sg83
g79
sg76
(lp1942
g69
(g90
g71
NtRp1943
(dp1944
g74
(dp1945
g94
g95
ssg83
g1939
sg76
(lp1946
S'folder'
p1947
asbag69
(g90
g71
NtRp1948
(dp1949
g74
(dp1950
g101
g102
ssg83
g1939
sg76
(lp1951
S':'
asbag69
(g90
g71
NtRp1952
(dp1953
g74
(dp1954
sg83
g1939
sg76
(lp1955
g69
(g70
g71
NtRp1956
(dp1957
g74
(dp1958
g82
I5
ssg83
g1952
sg76
(lp1959
S'/home/wionel/Desktop/web2py/applications/music/'
p1960
asbasbasbag69
(g85
g71
NtRp1961
(dp1962
g74
(dp1963
sg83
g79
sg76
(lp1964
g69
(g90
g71
NtRp1965
(dp1966
g74
(dp1967
g94
g95
ssg83
g1961
sg76
(lp1968
S'function'
p1969
asbag69
(g90
g71
NtRp1970
(dp1971
g74
(dp1972
g101
g102
ssg83
g1961
sg76
(lp1973
S':'
asbag69
(g90
g71
NtRp1974
(dp1975
g74
(dp1976
sg83
g1961
sg76
(lp1977
g69
(g70
g71
NtRp1978
(dp1979
g74
(dp1980
g82
I5
ssg83
g1974
sg76
(lp1981
S'playlist'
p1982
asbasbasbag69
(g85
g71
NtRp1983
(dp1984
g74
(dp1985
sg83
g79
sg76
(lp1986
g69
(g90
g71
NtRp1987
(dp1988
g74
(dp1989
g94
g95
ssg83
g1983
sg76
(lp1990
S'get_vars'
p1991
asbag69
(g90
g71
NtRp1992
(dp1993
g74
(dp1994
g101
g102
ssg83
g1983
sg76
(lp1995
S':'
asbag69
(g90
g71
NtRp1996
(dp1997
g74
(dp1998
sg83
g1983
sg76
(lp1999
g69
(g70
g71
NtRp2000
(dp2001
g74
(dp2002
g82
I5
ssg83
g1996
sg76
(lp2003
g69
(g78
g71
NtRp2004
(dp2005
g74
(dp2006
g82
I4
ssg83
Nsg76
(lp2007
sbasbasbasbag69
(g85
g71
NtRp2008
(dp2009
g74
(dp2010
sg83
g79
sg76
(lp2011
g69
(g90
g71
NtRp2012
(dp2013
g74
(dp2014
g94
g95
ssg83
g2008
sg76
(lp2015
S'global_settings'
p2016
asbag69
(g90
g71
NtRp2017
(dp2018
g74
(dp2019
g101
g102
ssg83
g2008
sg76
(lp2020
S':'
asbag69
(g90
g71
NtRp2021
(dp2022
g74
(dp2023
sg83
g2008
sg76
(lp2024
g69
(g70
g71
NtRp2025
(dp2026
g74
(dp2027
g82
I5
ssg83
g2021
sg76
(lp2028
g69
(g78
g71
NtRp2029
(dp2030
g74
(dp2031
g82
I4
ssg83
Nsg76
(lp2032
g69
(g85
g71
NtRp2033
(dp2034
g74
(dp2035
sg83
g2029
sg76
(lp2036
g69
(g90
g71
NtRp2037
(dp2038
g74
(dp2039
g94
g95
ssg83
g2033
sg76
(lp2040
g871
asbag69
(g90
g71
NtRp2041
(dp2042
g74
(dp2043
g101
g102
ssg83
g2033
sg76
(lp2044
S':'
asbag69
(g90
g71
NtRp2045
(dp2046
g74
(dp2047
sg83
g2033
sg76
(lp2048
g69
(g70
g71
NtRp2049
(dp2050
g74
(dp2051
g82
I4
ssg83
g2045
sg76
(lp2052
S"set(['/home/wionel/Desktop/web2py/applications/admin/', '/home/wionel/Desktop/web2py/applications/welcome/', '/home/wionel/Desktop/web2py/applications/music/'])"
p2053
asbasbasbag69
(g85
g71
NtRp2054
(dp2055
g74
(dp2056
sg83
g2029
sg76
(lp2057
g69
(g90
g71
NtRp2058
(dp2059
g74
(dp2060
g94
g95
ssg83
g2054
sg76
(lp2061
g893
asbag69
(g90
g71
NtRp2062
(dp2063
g74
(dp2064
g101
g102
ssg83
g2054
sg76
(lp2065
S':'
asbag69
(g90
g71
NtRp2066
(dp2067
g74
(dp2068
sg83
g2054
sg76
(lp2069
g69
(g70
g71
NtRp2070
(dp2071
g74
(dp2072
g82
I4
ssg83
g2066
sg76
(lp2073
g906
asbasbasbag69
(g85
g71
NtRp2074
(dp2075
g74
(dp2076
sg83
g2029
sg76
(lp2077
g69
(g90
g71
NtRp2078
(dp2079
g74
(dp2080
g94
g95
ssg83
g2074
sg76
(lp2081
g915
asbag69
(g90
g71
NtRp2082
(dp2083
g74
(dp2084
g101
g102
ssg83
g2074
sg76
(lp2085
S':'
asbag69
(g90
g71
NtRp2086
(dp2087
g74
(dp2088
sg83
g2074
sg76
(lp2089
g69
(g70
g71
NtRp2090
(dp2091
g74
(dp2092
g82
I4
ssg83
g2086
sg76
(lp2093
g69
(g78
g71
NtRp2094
(dp2095
g74
(dp2096
g82
I3
ssg83
Nsg76
(lp2097
sbasbasbasbag69
(g85
g71
NtRp2098
(dp2099
g74
(dp2100
sg83
g2029
sg76
(lp2101
g69
(g90
g71
NtRp2102
(dp2103
g74
(dp2104
g94
g95
ssg83
g2098
sg76
(lp2105
g940
asbag69
(g90
g71
NtRp2106
(dp2107
g74
(dp2108
g101
g102
ssg83
g2098
sg76
(lp2109
S':'
asbag69
(g90
g71
NtRp2110
(dp2111
g74
(dp2112
sg83
g2098
sg76
(lp2113
g69
(g70
g71
NtRp2114
(dp2115
g74
(dp2116
g82
I4
ssg83
g2110
sg76
(lp2117
S"<Values at 0x2d6d488: {'verbose': False, 'ip': '127.0.0.1', 'with_scheduler': False, 'ips': ['127.0.1.1'], 'shutdown_timeout': 5, 'taskbar': False, 'port': 8000, 'maxthreads': None, 'softcron': False, 'server_name': 'Rohan', 'bpython': False, 'nogui': False, 'pid_filename': 'httpserver.pid', 'extcron': False, 'runcron': False, 'run_system_tests': False, 'test': None, 'folder': '/home/wionel/Desktop/web2py', 'config': '', 'minthreads': None, 'winservice': '', 'shell': None, 'run': '', 'log_filename': 'httpserver.log', 'debuglevel': 30, 'args': [''], 'socket_timeout': 5, 'ssl_ca_certificate': None, 'scheduler': None, 'profiler_filename': None, 'ssl_private_key': '', 'scheduler_groups': None, 'password': '<ask>', 'request_queue_size': 5, 'ssl_certificate': '', 'cronjob': False, 'numthreads': None, 'quiet': False, 'interfaces': None, 'import_models': False, 'timeout': 10, 'plain': False, 'nobanner': False}>"
p2118
asbasbasbag69
(g85
g71
NtRp2119
(dp2120
g74
(dp2121
sg83
g2029
sg76
(lp2122
g69
(g90
g71
NtRp2123
(dp2124
g74
(dp2125
g94
g95
ssg83
g2119
sg76
(lp2126
g962
asbag69
(g90
g71
NtRp2127
(dp2128
g74
(dp2129
g101
g102
ssg83
g2119
sg76
(lp2130
S':'
asbag69
(g90
g71
NtRp2131
(dp2132
g74
(dp2133
sg83
g2119
sg76
(lp2134
g69
(g70
g71
NtRp2135
(dp2136
g74
(dp2137
g82
I4
ssg83
g2131
sg76
(lp2138
S'set([])'
p2139
asbasbasbag69
(g85
g71
NtRp2140
(dp2141
g74
(dp2142
sg83
g2029
sg76
(lp2143
g69
(g90
g71
NtRp2144
(dp2145
g74
(dp2146
g94
g95
ssg83
g2140
sg76
(lp2147
g984
asbag69
(g90
g71
NtRp2148
(dp2149
g74
(dp2150
g101
g102
ssg83
g2140
sg76
(lp2151
S':'
asbag69
(g90
g71
NtRp2152
(dp2153
g74
(dp2154
sg83
g2140
sg76
(lp2155
g69
(g70
g71
NtRp2156
(dp2157
g74
(dp2158
g82
I4
ssg83
g2152
sg76
(lp2159
g112
asbasbasbag69
(g85
g71
NtRp2160
(dp2161
g74
(dp2162
sg83
g2029
sg76
(lp2163
g69
(g90
g71
NtRp2164
(dp2165
g74
(dp2166
g94
g95
ssg83
g2160
sg76
(lp2167
g1005
asbag69
(g90
g71
NtRp2168
(dp2169
g74
(dp2170
g101
g102
ssg83
g2160
sg76
(lp2171
S':'
asbag69
(g90
g71
NtRp2172
(dp2173
g74
(dp2174
sg83
g2160
sg76
(lp2175
g69
(g70
g71
NtRp2176
(dp2177
g74
(dp2178
g82
I4
ssg83
g2172
sg76
(lp2179
g1018
asbasbasbag69
(g85
g71
NtRp2180
(dp2181
g74
(dp2182
sg83
g2029
sg76
(lp2183
g69
(g90
g71
NtRp2184
(dp2185
g74
(dp2186
g94
g95
ssg83
g2180
sg76
(lp2187
g1247
asbag69
(g90
g71
NtRp2188
(dp2189
g74
(dp2190
g101
g102
ssg83
g2180
sg76
(lp2191
S':'
asbag69
(g90
g71
NtRp2192
(dp2193
g74
(dp2194
sg83
g2180
sg76
(lp2195
g69
(g70
g71
NtRp2196
(dp2197
g74
(dp2198
g82
I4
ssg83
g2192
sg76
(lp2199
g112
asbasbasbag69
(g85
g71
NtRp2200
(dp2201
g74
(dp2202
sg83
g2029
sg76
(lp2203
g69
(g90
g71
NtRp2204
(dp2205
g74
(dp2206
g94
g95
ssg83
g2200
sg76
(lp2207
g1268
asbag69
(g90
g71
NtRp2208
(dp2209
g74
(dp2210
g101
g102
ssg83
g2200
sg76
(lp2211
S':'
asbag69
(g90
g71
NtRp2212
(dp2213
g74
(dp2214
sg83
g2200
sg76
(lp2215
g69
(g70
g71
NtRp2216
(dp2217
g74
(dp2218
g82
I4
ssg83
g2212
sg76
(lp2219
g112
asbasbasbag69
(g85
g71
NtRp2220
(dp2221
g74
(dp2222
sg83
g2029
sg76
(lp2223
g69
(g90
g71
NtRp2224
(dp2225
g74
(dp2226
g94
g95
ssg83
g2220
sg76
(lp2227
g1289
asbag69
(g90
g71
NtRp2228
(dp2229
g74
(dp2230
g101
g102
ssg83
g2220
sg76
(lp2231
S':'
asbag69
(g90
g71
NtRp2232
(dp2233
g74
(dp2234
sg83
g2220
sg76
(lp2235
g69
(g70
g71
NtRp2236
(dp2237
g74
(dp2238
g82
I4
ssg83
g2232
sg76
(lp2239
g69
(g78
g71
NtRp2240
(dp2241
g74
(dp2242
g82
I3
ssg83
Nsg76
(lp2243
g69
(g85
g71
NtRp2244
(dp2245
g74
(dp2246
sg83
g2240
sg76
(lp2247
g69
(g90
g71
NtRp2248
(dp2249
g74
(dp2250
sg83
g2244
sg76
(lp2251
g69
(g70
g71
NtRp2252
(dp2253
g74
(dp2254
g82
I3
ssg83
g2248
sg76
(lp2255
g1318
asbasbasbag69
(g85
g71
NtRp2256
(dp2257
g74
(dp2258
sg83
g2240
sg76
(lp2259
g69
(g90
g71
NtRp2260
(dp2261
g74
(dp2262
sg83
g2256
sg76
(lp2263
g69
(g70
g71
NtRp2264
(dp2265
g74
(dp2266
g82
I3
ssg83
g2260
sg76
(lp2267
g1331
asbasbasbag69
(g85
g71
NtRp2268
(dp2269
g74
(dp2270
sg83
g2240
sg76
(lp2271
g69
(g90
g71
NtRp2272
(dp2273
g74
(dp2274
sg83
g2268
sg76
(lp2275
g69
(g70
g71
NtRp2276
(dp2277
g74
(dp2278
g82
I3
ssg83
g2272
sg76
(lp2279
g1344
asbasbasbag69
(g85
g71
NtRp2280
(dp2281
g74
(dp2282
sg83
g2240
sg76
(lp2283
g69
(g90
g71
NtRp2284
(dp2285
g74
(dp2286
sg83
g2280
sg76
(lp2287
g69
(g70
g71
NtRp2288
(dp2289
g74
(dp2290
g82
I3
ssg83
g2284
sg76
(lp2291
g1357
asbasbasbag69
(g85
g71
NtRp2292
(dp2293
g74
(dp2294
sg83
g2240
sg76
(lp2295
g69
(g90
g71
NtRp2296
(dp2297
g74
(dp2298
sg83
g2292
sg76
(lp2299
g69
(g70
g71
NtRp2300
(dp2301
g74
(dp2302
g82
I3
ssg83
g2296
sg76
(lp2303
g1370
asbasbasbasbasbasbasbag69
(g85
g71
NtRp2304
(dp2305
g74
(dp2306
sg83
g2029
sg76
(lp2307
g69
(g90
g71
NtRp2308
(dp2309
g74
(dp2310
g94
g95
ssg83
g2304
sg76
(lp2311
g1637
asbag69
(g90
g71
NtRp2312
(dp2313
g74
(dp2314
g101
g102
ssg83
g2304
sg76
(lp2315
S':'
asbag69
(g90
g71
NtRp2316
(dp2317
g74
(dp2318
sg83
g2304
sg76
(lp2319
g69
(g70
g71
NtRp2320
(dp2321
g74
(dp2322
g82
I4
ssg83
g2316
sg76
(lp2323
g69
(g78
g71
NtRp2324
(dp2325
g74
(dp2326
g82
I3
ssg83
Nsg76
(lp2327
g69
(g85
g71
NtRp2328
(dp2329
g74
(dp2330
sg83
g2324
sg76
(lp2331
g69
(g90
g71
NtRp2332
(dp2333
g74
(dp2334
sg83
g2328
sg76
(lp2335
g69
(g70
g71
NtRp2336
(dp2337
g74
(dp2338
g82
I3
ssg83
g2332
sg76
(lp2339
S'2'
asbasbasbag69
(g85
g71
NtRp2340
(dp2341
g74
(dp2342
sg83
g2324
sg76
(lp2343
g69
(g90
g71
NtRp2344
(dp2345
g74
(dp2346
sg83
g2340
sg76
(lp2347
g69
(g70
g71
NtRp2348
(dp2349
g74
(dp2350
g82
I3
ssg83
g2344
sg76
(lp2351
S'2'
asbasbasbag69
(g85
g71
NtRp2352
(dp2353
g74
(dp2354
sg83
g2324
sg76
(lp2355
g69
(g90
g71
NtRp2356
(dp2357
g74
(dp2358
sg83
g2352
sg76
(lp2359
g69
(g70
g71
NtRp2360
(dp2361
g74
(dp2362
g82
I3
ssg83
g2356
sg76
(lp2363
S'1'
asbasbasbag69
(g85
g71
NtRp2364
(dp2365
g74
(dp2366
sg83
g2324
sg76
(lp2367
g69
(g90
g71
NtRp2368
(dp2369
g74
(dp2370
sg83
g2364
sg76
(lp2371
g69
(g70
g71
NtRp2372
(dp2373
g74
(dp2374
g82
I3
ssg83
g2368
sg76
(lp2375
S'datetime.datetime(2012, 10, 21, 16, 57, 4)'
p2376
asbasbasbag69
(g85
g71
NtRp2377
(dp2378
g74
(dp2379
sg83
g2324
sg76
(lp2380
g69
(g90
g71
NtRp2381
(dp2382
g74
(dp2383
sg83
g2377
sg76
(lp2384
g69
(g70
g71
NtRp2385
(dp2386
g74
(dp2387
g82
I3
ssg83
g2381
sg76
(lp2388
g1715
asbasbasbasbasbasbasbasbasbasbasbag69
(g85
g71
NtRp2389
(dp2390
g74
(dp2391
sg83
g79
sg76
(lp2392
g69
(g90
g71
NtRp2393
(dp2394
g74
(dp2395
g94
g95
ssg83
g2389
sg76
(lp2396
S'is_https'
p2397
asbag69
(g90
g71
NtRp2398
(dp2399
g74
(dp2400
g101
g102
ssg83
g2389
sg76
(lp2401
S':'
asbag69
(g90
g71
NtRp2402
(dp2403
g74
(dp2404
sg83
g2389
sg76
(lp2405
g69
(g70
g71
NtRp2406
(dp2407
g74
(dp2408
g82
I5
ssg83
g2402
sg76
(lp2409
g112
asbasbasbag69
(g85
g71
NtRp2410
(dp2411
g74
(dp2412
sg83
g79
sg76
(lp2413
g69
(g90
g71
NtRp2414
(dp2415
g74
(dp2416
g94
g95
ssg83
g2410
sg76
(lp2417
S'is_local'
p2418
asbag69
(g90
g71
NtRp2419
(dp2420
g74
(dp2421
g101
g102
ssg83
g2410
sg76
(lp2422
S':'
asbag69
(g90
g71
NtRp2423
(dp2424
g74
(dp2425
sg83
g2410
sg76
(lp2426
g69
(g70
g71
NtRp2427
(dp2428
g74
(dp2429
g82
I5
ssg83
g2423
sg76
(lp2430
g1824
asbasbasbag69
(g85
g71
NtRp2431
(dp2432
g74
(dp2433
sg83
g79
sg76
(lp2434
g69
(g90
g71
NtRp2435
(dp2436
g74
(dp2437
g94
g95
ssg83
g2431
sg76
(lp2438
S'is_restful'
p2439
asbag69
(g90
g71
NtRp2440
(dp2441
g74
(dp2442
g101
g102
ssg83
g2431
sg76
(lp2443
S':'
asbag69
(g90
g71
NtRp2444
(dp2445
g74
(dp2446
sg83
g2431
sg76
(lp2447
g69
(g70
g71
NtRp2448
(dp2449
g74
(dp2450
g82
I5
ssg83
g2444
sg76
(lp2451
g112
asbasbasbag69
(g85
g71
NtRp2452
(dp2453
g74
(dp2454
sg83
g79
sg76
(lp2455
g69
(g90
g71
NtRp2456
(dp2457
g74
(dp2458
g94
g95
ssg83
g2452
sg76
(lp2459
S'now'
p2460
asbag69
(g90
g71
NtRp2461
(dp2462
g74
(dp2463
g101
g102
ssg83
g2452
sg76
(lp2464
S':'
asbag69
(g90
g71
NtRp2465
(dp2466
g74
(dp2467
sg83
g2452
sg76
(lp2468
g69
(g70
g71
NtRp2469
(dp2470
g74
(dp2471
g82
I5
ssg83
g2465
sg76
(lp2472
S'datetime.datetime(2012, 11, 14, 22, 53, 55, 523347)'
p2473
asbasbasbag69
(g85
g71
NtRp2474
(dp2475
g74
(dp2476
sg83
g79
sg76
(lp2477
g69
(g90
g71
NtRp2478
(dp2479
g74
(dp2480
g94
g95
ssg83
g2474
sg76
(lp2481
S'post_vars'
p2482
asbag69
(g90
g71
NtRp2483
(dp2484
g74
(dp2485
g101
g102
ssg83
g2474
sg76
(lp2486
S':'
asbag69
(g90
g71
NtRp2487
(dp2488
g74
(dp2489
sg83
g2474
sg76
(lp2490
g69
(g70
g71
NtRp2491
(dp2492
g74
(dp2493
g82
I5
ssg83
g2487
sg76
(lp2494
g69
(g78
g71
NtRp2495
(dp2496
g74
(dp2497
g82
I4
ssg83
Nsg76
(lp2498
sbasbasbasbag69
(g85
g71
NtRp2499
(dp2500
g74
(dp2501
sg83
g79
sg76
(lp2502
g69
(g90
g71
NtRp2503
(dp2504
g74
(dp2505
g94
g95
ssg83
g2499
sg76
(lp2506
S'raw_args'
p2507
asbag69
(g90
g71
NtRp2508
(dp2509
g74
(dp2510
g101
g102
ssg83
g2499
sg76
(lp2511
S':'
asbag69
(g90
g71
NtRp2512
(dp2513
g74
(dp2514
sg83
g2499
sg76
(lp2515
g69
(g70
g71
NtRp2516
(dp2517
g74
(dp2518
g82
I5
ssg83
g2512
sg76
(lp2519
S''
asbasbasbag69
(g85
g71
NtRp2520
(dp2521
g74
(dp2522
sg83
g79
sg76
(lp2523
g69
(g90
g71
NtRp2524
(dp2525
g74
(dp2526
g94
g95
ssg83
g2520
sg76
(lp2527
S'raw_extension'
p2528
asbag69
(g90
g71
NtRp2529
(dp2530
g74
(dp2531
g101
g102
ssg83
g2520
sg76
(lp2532
S':'
asbag69
(g90
g71
NtRp2533
(dp2534
g74
(dp2535
sg83
g2520
sg76
(lp2536
g69
(g70
g71
NtRp2537
(dp2538
g74
(dp2539
g82
I5
ssg83
g2533
sg76
(lp2540
S'None'
p2541
asbasbasbag69
(g85
g71
NtRp2542
(dp2543
g74
(dp2544
sg83
g79
sg76
(lp2545
g69
(g90
g71
NtRp2546
(dp2547
g74
(dp2548
g94
g95
ssg83
g2542
sg76
(lp2549
S'url'
p2550
asbag69
(g90
g71
NtRp2551
(dp2552
g74
(dp2553
g101
g102
ssg83
g2542
sg76
(lp2554
S':'
asbag69
(g90
g71
NtRp2555
(dp2556
g74
(dp2557
sg83
g2542
sg76
(lp2558
g69
(g70
g71
NtRp2559
(dp2560
g74
(dp2561
g82
I5
ssg83
g2555
sg76
(lp2562
g1392
asbasbasbag69
(g85
g71
NtRp2563
(dp2564
g74
(dp2565
sg83
g79
sg76
(lp2566
g69
(g90
g71
NtRp2567
(dp2568
g74
(dp2569
g94
g95
ssg83
g2563
sg76
(lp2570
S'utcnow'
p2571
asbag69
(g90
g71
NtRp2572
(dp2573
g74
(dp2574
g101
g102
ssg83
g2563
sg76
(lp2575
S':'
asbag69
(g90
g71
NtRp2576
(dp2577
g74
(dp2578
sg83
g2563
sg76
(lp2579
g69
(g70
g71
NtRp2580
(dp2581
g74
(dp2582
g82
I5
ssg83
g2576
sg76
(lp2583
S'datetime.datetime(2012, 11, 14, 17, 23, 55, 523380)'
p2584
asbasbasbag69
(g85
g71
NtRp2585
(dp2586
g74
(dp2587
sg83
g79
sg76
(lp2588
g69
(g90
g71
NtRp2589
(dp2590
g74
(dp2591
g94
g95
ssg83
g2585
sg76
(lp2592
S'uuid'
p2593
asbag69
(g90
g71
NtRp2594
(dp2595
g74
(dp2596
g101
g102
ssg83
g2585
sg76
(lp2597
S':'
asbag69
(g90
g71
NtRp2598
(dp2599
g74
(dp2600
sg83
g2585
sg76
(lp2601
g69
(g70
g71
NtRp2602
(dp2603
g74
(dp2604
g82
I5
ssg83
g2598
sg76
(lp2605
S'music/127.0.0.1.2012-11-14.22-53-55.2ed2a03b-3bf5-4789-9b28-8ca271b47c5a'
p2606
asbasbasbag69
(g85
g71
NtRp2607
(dp2608
g74
(dp2609
sg83
g79
sg76
(lp2610
g69
(g90
g71
NtRp2611
(dp2612
g74
(dp2613
g94
g95
ssg83
g2607
sg76
(lp2614
S'vars'
p2615
asbag69
(g90
g71
NtRp2616
(dp2617
g74
(dp2618
g101
g102
ssg83
g2607
sg76
(lp2619
S':'
asbag69
(g90
g71
NtRp2620
(dp2621
g74
(dp2622
sg83
g2607
sg76
(lp2623
g69
(g70
g71
NtRp2624
(dp2625
g74
(dp2626
g82
I5
ssg83
g2620
sg76
(lp2627
g69
(g78
g71
NtRp2628
(dp2629
g74
(dp2630
g82
I4
ssg83
Nsg76
(lp2631
sbasbasbasbag69
(g85
g71
NtRp2632
(dp2633
g74
(dp2634
sg83
g79
sg76
(lp2635
g69
(g90
g71
NtRp2636
(dp2637
g74
(dp2638
g94
g95
ssg83
g2632
sg76
(lp2639
S'wsgi'
p2640
asbag69
(g90
g71
NtRp2641
(dp2642
g74
(dp2643
g101
g102
ssg83
g2632
sg76
(lp2644
S':'
asbag69
(g90
g71
NtRp2645
(dp2646
g74
(dp2647
sg83
g2632
sg76
(lp2648
g69
(g70
g71
NtRp2649
(dp2650
g74
(dp2651
g82
I5
ssg83
g2645
sg76
(lp2652
g69
(g78
g71
NtRp2653
(dp2654
g74
(dp2655
g82
I4
ssg83
Nsg76
(lp2656
g69
(g85
g71
NtRp2657
(dp2658
g74
(dp2659
sg83
g2653
sg76
(lp2660
g69
(g90
g71
NtRp2661
(dp2662
g74
(dp2663
g94
g95
ssg83
g2657
sg76
(lp2664
S'environ'
p2665
asbag69
(g90
g71
NtRp2666
(dp2667
g74
(dp2668
g101
g102
ssg83
g2657
sg76
(lp2669
S':'
asbag69
(g90
g71
NtRp2670
(dp2671
g74
(dp2672
sg83
g2657
sg76
(lp2673
g69
(g70
g71
NtRp2674
(dp2675
g74
(dp2676
g82
I4
ssg83
g2670
sg76
(lp2677
g69
(g78
g71
NtRp2678
(dp2679
g74
(dp2680
g82
I3
ssg83
Nsg76
(lp2681
g69
(g85
g71
NtRp2682
(dp2683
g74
(dp2684
sg83
g2678
sg76
(lp2685
g69
(g90
g71
NtRp2686
(dp2687
g74
(dp2688
g94
g95
ssg83
g2682
sg76
(lp2689
S'HTTP_ACCEPT'
p2690
asbag69
(g90
g71
NtRp2691
(dp2692
g74
(dp2693
g101
g102
ssg83
g2682
sg76
(lp2694
S':'
asbag69
(g90
g71
NtRp2695
(dp2696
g74
(dp2697
sg83
g2682
sg76
(lp2698
g69
(g70
g71
NtRp2699
(dp2700
g74
(dp2701
g82
I3
ssg83
g2695
sg76
(lp2702
g1040
asbasbasbag69
(g85
g71
NtRp2703
(dp2704
g74
(dp2705
sg83
g2678
sg76
(lp2706
g69
(g90
g71
NtRp2707
(dp2708
g74
(dp2709
g94
g95
ssg83
g2703
sg76
(lp2710
S'HTTP_ACCEPT_CHARSET'
p2711
asbag69
(g90
g71
NtRp2712
(dp2713
g74
(dp2714
g101
g102
ssg83
g2703
sg76
(lp2715
S':'
asbag69
(g90
g71
NtRp2716
(dp2717
g74
(dp2718
sg83
g2703
sg76
(lp2719
g69
(g70
g71
NtRp2720
(dp2721
g74
(dp2722
g82
I3
ssg83
g2716
sg76
(lp2723
g1062
asbasbasbag69
(g85
g71
NtRp2724
(dp2725
g74
(dp2726
sg83
g2678
sg76
(lp2727
g69
(g90
g71
NtRp2728
(dp2729
g74
(dp2730
g94
g95
ssg83
g2724
sg76
(lp2731
S'HTTP_ACCEPT_ENCODING'
p2732
asbag69
(g90
g71
NtRp2733
(dp2734
g74
(dp2735
g101
g102
ssg83
g2724
sg76
(lp2736
S':'
asbag69
(g90
g71
NtRp2737
(dp2738
g74
(dp2739
sg83
g2724
sg76
(lp2740
g69
(g70
g71
NtRp2741
(dp2742
g74
(dp2743
g82
I3
ssg83
g2737
sg76
(lp2744
g1084
asbasbasbag69
(g85
g71
NtRp2745
(dp2746
g74
(dp2747
sg83
g2678
sg76
(lp2748
g69
(g90
g71
NtRp2749
(dp2750
g74
(dp2751
g94
g95
ssg83
g2745
sg76
(lp2752
S'HTTP_ACCEPT_LANGUAGE'
p2753
asbag69
(g90
g71
NtRp2754
(dp2755
g74
(dp2756
g101
g102
ssg83
g2745
sg76
(lp2757
S':'
asbag69
(g90
g71
NtRp2758
(dp2759
g74
(dp2760
sg83
g2745
sg76
(lp2761
g69
(g70
g71
NtRp2762
(dp2763
g74
(dp2764
g82
I3
ssg83
g2758
sg76
(lp2765
g1106
asbasbasbag69
(g85
g71
NtRp2766
(dp2767
g74
(dp2768
sg83
g2678
sg76
(lp2769
g69
(g90
g71
NtRp2770
(dp2771
g74
(dp2772
g94
g95
ssg83
g2766
sg76
(lp2773
S'HTTP_CACHE_CONTROL'
p2774
asbag69
(g90
g71
NtRp2775
(dp2776
g74
(dp2777
g101
g102
ssg83
g2766
sg76
(lp2778
S':'
asbag69
(g90
g71
NtRp2779
(dp2780
g74
(dp2781
sg83
g2766
sg76
(lp2782
g69
(g70
g71
NtRp2783
(dp2784
g74
(dp2785
g82
I3
ssg83
g2779
sg76
(lp2786
g1128
asbasbasbag69
(g85
g71
NtRp2787
(dp2788
g74
(dp2789
sg83
g2678
sg76
(lp2790
g69
(g90
g71
NtRp2791
(dp2792
g74
(dp2793
g94
g95
ssg83
g2787
sg76
(lp2794
S'HTTP_CONNECTION'
p2795
asbag69
(g90
g71
NtRp2796
(dp2797
g74
(dp2798
g101
g102
ssg83
g2787
sg76
(lp2799
S':'
asbag69
(g90
g71
NtRp2800
(dp2801
g74
(dp2802
sg83
g2787
sg76
(lp2803
g69
(g70
g71
NtRp2804
(dp2805
g74
(dp2806
g82
I3
ssg83
g2800
sg76
(lp2807
g1150
asbasbasbag69
(g85
g71
NtRp2808
(dp2809
g74
(dp2810
sg83
g2678
sg76
(lp2811
g69
(g90
g71
NtRp2812
(dp2813
g74
(dp2814
g94
g95
ssg83
g2808
sg76
(lp2815
S'HTTP_COOKIE'
p2816
asbag69
(g90
g71
NtRp2817
(dp2818
g74
(dp2819
g101
g102
ssg83
g2808
sg76
(lp2820
S':'
asbag69
(g90
g71
NtRp2821
(dp2822
g74
(dp2823
sg83
g2808
sg76
(lp2824
g69
(g70
g71
NtRp2825
(dp2826
g74
(dp2827
g82
I3
ssg83
g2821
sg76
(lp2828
g1172
asbasbasbag69
(g85
g71
NtRp2829
(dp2830
g74
(dp2831
sg83
g2678
sg76
(lp2832
g69
(g90
g71
NtRp2833
(dp2834
g74
(dp2835
g94
g95
ssg83
g2829
sg76
(lp2836
S'HTTP_HOST'
p2837
asbag69
(g90
g71
NtRp2838
(dp2839
g74
(dp2840
g101
g102
ssg83
g2829
sg76
(lp2841
S':'
asbag69
(g90
g71
NtRp2842
(dp2843
g74
(dp2844
sg83
g2829
sg76
(lp2845
g69
(g70
g71
NtRp2846
(dp2847
g74
(dp2848
g82
I3
ssg83
g2842
sg76
(lp2849
g1194
asbasbasbag69
(g85
g71
NtRp2850
(dp2851
g74
(dp2852
sg83
g2678
sg76
(lp2853
g69
(g90
g71
NtRp2854
(dp2855
g74
(dp2856
g94
g95
ssg83
g2850
sg76
(lp2857
S'HTTP_REFERER'
p2858
asbag69
(g90
g71
NtRp2859
(dp2860
g74
(dp2861
g101
g102
ssg83
g2850
sg76
(lp2862
S':'
asbag69
(g90
g71
NtRp2863
(dp2864
g74
(dp2865
sg83
g2850
sg76
(lp2866
g69
(g70
g71
NtRp2867
(dp2868
g74
(dp2869
g82
I3
ssg83
g2863
sg76
(lp2870
g1216
asbasbasbag69
(g85
g71
NtRp2871
(dp2872
g74
(dp2873
sg83
g2678
sg76
(lp2874
g69
(g90
g71
NtRp2875
(dp2876
g74
(dp2877
g94
g95
ssg83
g2871
sg76
(lp2878
S'HTTP_USER_AGENT'
p2879
asbag69
(g90
g71
NtRp2880
(dp2881
g74
(dp2882
g101
g102
ssg83
g2871
sg76
(lp2883
S':'
asbag69
(g90
g71
NtRp2884
(dp2885
g74
(dp2886
sg83
g2871
sg76
(lp2887
g69
(g70
g71
NtRp2888
(dp2889
g74
(dp2890
g82
I3
ssg83
g2884
sg76
(lp2891
g1238
asbasbasbag69
(g85
g71
NtRp2892
(dp2893
g74
(dp2894
sg83
g2678
sg76
(lp2895
g69
(g90
g71
NtRp2896
(dp2897
g74
(dp2898
g94
g95
ssg83
g2892
sg76
(lp2899
S'PATH_INFO'
p2900
asbag69
(g90
g71
NtRp2901
(dp2902
g74
(dp2903
g101
g102
ssg83
g2892
sg76
(lp2904
S':'
asbag69
(g90
g71
NtRp2905
(dp2906
g74
(dp2907
sg83
g2892
sg76
(lp2908
g69
(g70
g71
NtRp2909
(dp2910
g74
(dp2911
g82
I3
ssg83
g2905
sg76
(lp2912
g1392
asbasbasbag69
(g85
g71
NtRp2913
(dp2914
g74
(dp2915
sg83
g2678
sg76
(lp2916
g69
(g90
g71
NtRp2917
(dp2918
g74
(dp2919
g94
g95
ssg83
g2913
sg76
(lp2920
S'QUERY_STRING'
p2921
asbag69
(g90
g71
NtRp2922
(dp2923
g74
(dp2924
g101
g102
ssg83
g2913
sg76
(lp2925
S':'
asbag69
(g90
g71
NtRp2926
(dp2927
g74
(dp2928
sg83
g2913
sg76
(lp2929
g69
(g70
g71
NtRp2930
(dp2931
g74
(dp2932
g82
I3
ssg83
g2926
sg76
(lp2933
S''
asbasbasbag69
(g85
g71
NtRp2934
(dp2935
g74
(dp2936
sg83
g2678
sg76
(lp2937
g69
(g90
g71
NtRp2938
(dp2939
g74
(dp2940
g94
g95
ssg83
g2934
sg76
(lp2941
S'REMOTE_ADDR'
p2942
asbag69
(g90
g71
NtRp2943
(dp2944
g74
(dp2945
g101
g102
ssg83
g2934
sg76
(lp2946
S':'
asbag69
(g90
g71
NtRp2947
(dp2948
g74
(dp2949
sg83
g2934
sg76
(lp2950
g69
(g70
g71
NtRp2951
(dp2952
g74
(dp2953
g82
I3
ssg83
g2947
sg76
(lp2954
g224
asbasbasbag69
(g85
g71
NtRp2955
(dp2956
g74
(dp2957
sg83
g2678
sg76
(lp2958
g69
(g90
g71
NtRp2959
(dp2960
g74
(dp2961
g94
g95
ssg83
g2955
sg76
(lp2962
S'REMOTE_PORT'
p2963
asbag69
(g90
g71
NtRp2964
(dp2965
g74
(dp2966
g101
g102
ssg83
g2955
sg76
(lp2967
S':'
asbag69
(g90
g71
NtRp2968
(dp2969
g74
(dp2970
sg83
g2955
sg76
(lp2971
g69
(g70
g71
NtRp2972
(dp2973
g74
(dp2974
g82
I3
ssg83
g2968
sg76
(lp2975
g1456
asbasbasbag69
(g85
g71
NtRp2976
(dp2977
g74
(dp2978
sg83
g2678
sg76
(lp2979
g69
(g90
g71
NtRp2980
(dp2981
g74
(dp2982
g94
g95
ssg83
g2976
sg76
(lp2983
S'REQUEST_METHOD'
p2984
asbag69
(g90
g71
NtRp2985
(dp2986
g74
(dp2987
g101
g102
ssg83
g2976
sg76
(lp2988
S':'
asbag69
(g90
g71
NtRp2989
(dp2990
g74
(dp2991
sg83
g2976
sg76
(lp2992
g69
(g70
g71
NtRp2993
(dp2994
g74
(dp2995
g82
I3
ssg83
g2989
sg76
(lp2996
g1478
asbasbasbag69
(g85
g71
NtRp2997
(dp2998
g74
(dp2999
sg83
g2678
sg76
(lp3000
g69
(g90
g71
NtRp3001
(dp3002
g74
(dp3003
g94
g95
ssg83
g2997
sg76
(lp3004
S'REQUEST_URI'
p3005
asbag69
(g90
g71
NtRp3006
(dp3007
g74
(dp3008
g101
g102
ssg83
g2997
sg76
(lp3009
S':'
asbag69
(g90
g71
NtRp3010
(dp3011
g74
(dp3012
sg83
g2997
sg76
(lp3013
g69
(g70
g71
NtRp3014
(dp3015
g74
(dp3016
g82
I3
ssg83
g3010
sg76
(lp3017
g1392
asbasbasbag69
(g85
g71
NtRp3018
(dp3019
g74
(dp3020
sg83
g2678
sg76
(lp3021
g69
(g90
g71
NtRp3022
(dp3023
g74
(dp3024
g94
g95
ssg83
g3018
sg76
(lp3025
S'SCRIPT_NAME'
p3026
asbag69
(g90
g71
NtRp3027
(dp3028
g74
(dp3029
g101
g102
ssg83
g3018
sg76
(lp3030
S':'
asbag69
(g90
g71
NtRp3031
(dp3032
g74
(dp3033
sg83
g3018
sg76
(lp3034
g69
(g70
g71
NtRp3035
(dp3036
g74
(dp3037
g82
I3
ssg83
g3031
sg76
(lp3038
S''
asbasbasbag69
(g85
g71
NtRp3039
(dp3040
g74
(dp3041
sg83
g2678
sg76
(lp3042
g69
(g90
g71
NtRp3043
(dp3044
g74
(dp3045
g94
g95
ssg83
g3039
sg76
(lp3046
S'SERVER_NAME'
p3047
asbag69
(g90
g71
NtRp3048
(dp3049
g74
(dp3050
g101
g102
ssg83
g3039
sg76
(lp3051
S':'
asbag69
(g90
g71
NtRp3052
(dp3053
g74
(dp3054
sg83
g3039
sg76
(lp3055
g69
(g70
g71
NtRp3056
(dp3057
g74
(dp3058
g82
I3
ssg83
g3052
sg76
(lp3059
g1357
asbasbasbag69
(g85
g71
NtRp3060
(dp3061
g74
(dp3062
sg83
g2678
sg76
(lp3063
g69
(g90
g71
NtRp3064
(dp3065
g74
(dp3066
g94
g95
ssg83
g3060
sg76
(lp3067
S'SERVER_PORT'
p3068
asbag69
(g90
g71
NtRp3069
(dp3070
g74
(dp3071
g101
g102
ssg83
g3060
sg76
(lp3072
S':'
asbag69
(g90
g71
NtRp3073
(dp3074
g74
(dp3075
sg83
g3060
sg76
(lp3076
g69
(g70
g71
NtRp3077
(dp3078
g74
(dp3079
g82
I3
ssg83
g3073
sg76
(lp3080
g1563
asbasbasbag69
(g85
g71
NtRp3081
(dp3082
g74
(dp3083
sg83
g2678
sg76
(lp3084
g69
(g90
g71
NtRp3085
(dp3086
g74
(dp3087
g94
g95
ssg83
g3081
sg76
(lp3088
S'SERVER_PROTOCOL'
p3089
asbag69
(g90
g71
NtRp3090
(dp3091
g74
(dp3092
g101
g102
ssg83
g3081
sg76
(lp3093
S':'
asbag69
(g90
g71
NtRp3094
(dp3095
g74
(dp3096
sg83
g3081
sg76
(lp3097
g69
(g70
g71
NtRp3098
(dp3099
g74
(dp3100
g82
I3
ssg83
g3094
sg76
(lp3101
g1585
asbasbasbag69
(g85
g71
NtRp3102
(dp3103
g74
(dp3104
sg83
g2678
sg76
(lp3105
g69
(g90
g71
NtRp3106
(dp3107
g74
(dp3108
g94
g95
ssg83
g3102
sg76
(lp3109
S'SERVER_SOFTWARE'
p3110
asbag69
(g90
g71
NtRp3111
(dp3112
g74
(dp3113
g101
g102
ssg83
g3102
sg76
(lp3114
S':'
asbag69
(g90
g71
NtRp3115
(dp3116
g74
(dp3117
sg83
g3102
sg76
(lp3118
g69
(g70
g71
NtRp3119
(dp3120
g74
(dp3121
g82
I3
ssg83
g3115
sg76
(lp3122
g1607
asbasbasbag69
(g85
g71
NtRp3123
(dp3124
g74
(dp3125
sg83
g2678
sg76
(lp3126
g69
(g90
g71
NtRp3127
(dp3128
g74
(dp3129
g94
g95
ssg83
g3123
sg76
(lp3130
S'wsgi.errors'
p3131
asbag69
(g90
g71
NtRp3132
(dp3133
g74
(dp3134
g101
g102
ssg83
g3123
sg76
(lp3135
S':'
asbag69
(g90
g71
NtRp3136
(dp3137
g74
(dp3138
sg83
g3123
sg76
(lp3139
g69
(g70
g71
NtRp3140
(dp3141
g74
(dp3142
g82
I3
ssg83
g3136
sg76
(lp3143
S"<open file '<stderr>', mode 'w' at 0x7f811fe6f270>"
p3144
asbasbasbag69
(g85
g71
NtRp3145
(dp3146
g74
(dp3147
sg83
g2678
sg76
(lp3148
g69
(g90
g71
NtRp3149
(dp3150
g74
(dp3151
g94
g95
ssg83
g3145
sg76
(lp3152
S'wsgi.file_wrapper'
p3153
asbag69
(g90
g71
NtRp3154
(dp3155
g74
(dp3156
g101
g102
ssg83
g3145
sg76
(lp3157
S':'
asbag69
(g90
g71
NtRp3158
(dp3159
g74
(dp3160
sg83
g3145
sg76
(lp3161
g69
(g70
g71
NtRp3162
(dp3163
g74
(dp3164
g82
I3
ssg83
g3158
sg76
(lp3165
S'<class wsgiref.util.FileWrapper at 0x2cc6808>'
p3166
asbasbasbag69
(g85
g71
NtRp3167
(dp3168
g74
(dp3169
sg83
g2678
sg76
(lp3170
g69
(g90
g71
NtRp3171
(dp3172
g74
(dp3173
g94
g95
ssg83
g3167
sg76
(lp3174
S'wsgi.input'
p3175
asbag69
(g90
g71
NtRp3176
(dp3177
g74
(dp3178
g101
g102
ssg83
g3167
sg76
(lp3179
S':'
asbag69
(g90
g71
NtRp3180
(dp3181
g74
(dp3182
sg83
g3167
sg76
(lp3183
g69
(g70
g71
NtRp3184
(dp3185
g74
(dp3186
g82
I3
ssg83
g3180
sg76
(lp3187
S'<cStringIO.StringO object at 0x7f81083dbb58>'
p3188
asbasbasbag69
(g85
g71
NtRp3189
(dp3190
g74
(dp3191
sg83
g2678
sg76
(lp3192
g69
(g90
g71
NtRp3193
(dp3194
g74
(dp3195
g94
g95
ssg83
g3189
sg76
(lp3196
S'wsgi.multiprocess'
p3197
asbag69
(g90
g71
NtRp3198
(dp3199
g74
(dp3200
g101
g102
ssg83
g3189
sg76
(lp3201
S':'
asbag69
(g90
g71
NtRp3202
(dp3203
g74
(dp3204
sg83
g3189
sg76
(lp3205
g69
(g70
g71
NtRp3206
(dp3207
g74
(dp3208
g82
I3
ssg83
g3202
sg76
(lp3209
g112
asbasbasbag69
(g85
g71
NtRp3210
(dp3211
g74
(dp3212
sg83
g2678
sg76
(lp3213
g69
(g90
g71
NtRp3214
(dp3215
g74
(dp3216
g94
g95
ssg83
g3210
sg76
(lp3217
S'wsgi.multithread'
p3218
asbag69
(g90
g71
NtRp3219
(dp3220
g74
(dp3221
g101
g102
ssg83
g3210
sg76
(lp3222
S':'
asbag69
(g90
g71
NtRp3223
(dp3224
g74
(dp3225
sg83
g3210
sg76
(lp3226
g69
(g70
g71
NtRp3227
(dp3228
g74
(dp3229
g82
I3
ssg83
g3223
sg76
(lp3230
g1824
asbasbasbag69
(g85
g71
NtRp3231
(dp3232
g74
(dp3233
sg83
g2678
sg76
(lp3234
g69
(g90
g71
NtRp3235
(dp3236
g74
(dp3237
g94
g95
ssg83
g3231
sg76
(lp3238
S'wsgi.run_once'
p3239
asbag69
(g90
g71
NtRp3240
(dp3241
g74
(dp3242
g101
g102
ssg83
g3231
sg76
(lp3243
S':'
asbag69
(g90
g71
NtRp3244
(dp3245
g74
(dp3246
sg83
g3231
sg76
(lp3247
g69
(g70
g71
NtRp3248
(dp3249
g74
(dp3250
g82
I3
ssg83
g3244
sg76
(lp3251
g112
asbasbasbag69
(g85
g71
NtRp3252
(dp3253
g74
(dp3254
sg83
g2678
sg76
(lp3255
g69
(g90
g71
NtRp3256
(dp3257
g74
(dp3258
g94
g95
ssg83
g3252
sg76
(lp3259
S'wsgi.url_scheme'
p3260
asbag69
(g90
g71
NtRp3261
(dp3262
g74
(dp3263
g101
g102
ssg83
g3252
sg76
(lp3264
S':'
asbag69
(g90
g71
NtRp3265
(dp3266
g74
(dp3267
sg83
g3252
sg76
(lp3268
g69
(g70
g71
NtRp3269
(dp3270
g74
(dp3271
g82
I3
ssg83
g3265
sg76
(lp3272
g1867
asbasbasbag69
(g85
g71
NtRp3273
(dp3274
g74
(dp3275
sg83
g2678
sg76
(lp3276
g69
(g90
g71
NtRp3277
(dp3278
g74
(dp3279
g94
g95
ssg83
g3273
sg76
(lp3280
S'wsgi.version'
p3281
asbag69
(g90
g71
NtRp3282
(dp3283
g74
(dp3284
g101
g102
ssg83
g3273
sg76
(lp3285
S':'
asbag69
(g90
g71
NtRp3286
(dp3287
g74
(dp3288
sg83
g3273
sg76
(lp3289
g69
(g70
g71
NtRp3290
(dp3291
g74
(dp3292
g82
I3
ssg83
g3286
sg76
(lp3293
S'1'
asbasbasbasbasbasbasbasbasbasbasbasbasbsS'frames'
p3294
(lp3295
(dp3296
S'file'
p3297
S'/home/wionel/Desktop/web2py/gluon/restricted.py'
p3298
sS'dump'
p3299
(dp3300
S'code'
p3301
S'\'response.write(\\\'<!DOCTYPE html>\\\\n<!-- paulirish....(\\\'"></script>\\\\n</body>\\\\n</html>\\\\n\\\', escape=False)\''
p3302
sS'layer'
p3303
S"'/home/wionel/Desktop/web2py/applications/music/views/default/playlist.html'"
p3304
sS'global compile2'
p3305
S'<function compile2>'
p3306
sS'ccode'
p3307
S'undefined'
p3308
ssS'lnum'
p3309
I211
sS'lines'
p3310
(dp3311
I206
S"    environment['__name__'] = '__restricted__'"
p3312
sI207
S'    try:'
p3313
sI208
S'        if isinstance(code, types.CodeType):'
p3314
sI209
S'            ccode = code'
p3315
sI210
S'        else:'
p3316
sI211
S'            ccode = compile2(code, layer)'
p3317
sI212
S'        exec ccode in environment'
p3318
sI213
S'    except HTTP:'
p3319
sI214
S'        raise'
p3320
sI215
S'    except RestrictedError:'
p3321
ssS'call'
p3322
S'(code=\'response.write(\\\'<!DOCTYPE html>\\\\n<!-- paulirish....(\\\'"></script>\\\\n</body>\\\\n</html>\\\\n\\\', escape=False)\', environment={\'A\': <class \'gluon.html.A\'>, \'Auth\': <class \'gluon.tools.Auth\'>, \'B\': <class \'gluon.html.B\'>, \'BEAUTIFY\': <class \'gluon.html.BEAUTIFY\'>, \'BODY\': <class \'gluon.html.BODY\'>, \'BR\': <class \'gluon.html.BR\'>, \'BUTTON\': <class \'gluon.html.BUTTON\'>, \'CAT\': <class \'gluon.html.CAT\'>, \'CENTER\': <class \'gluon.html.CENTER\'>, \'CLEANUP\': <class \'gluon.validators.CLEANUP\'>, ...}, layer=\'/home/wionel/Desktop/web2py/applications/music/views/default/playlist.html\')'
p3323
sS'func'
p3324
S'restricted'
p3325
sa(dp3326
g3297
S'/home/wionel/Desktop/web2py/gluon/restricted.py'
p3327
sg3299
(dp3328
S'builtincompile'
p3329
S'<built-in function compile>'
p3330
sS'code'
p3331
S'\'response.write(\\\'<!DOCTYPE html>\\\\n<!-- paulirish....(\\\'"></script>\\\\n</body>\\\\n</html>\\\\n\\\', escape=False)\''
p3332
sS'code.rstrip'
p3333
S'<built-in method rstrip of str object>'
p3334
sS').replace'
p3335
g3308
sS'layer'
p3336
S"'/home/wionel/Desktop/web2py/applications/music/views/default/playlist.html'"
p3337
ssg3309
I194
sg3310
(dp3338
I192
S"    The +'\\n' is necessary else compile fails when code ends in a comment."
p3339
sI193
S'    """'
p3340
sI194
S"    return compile(code.rstrip().replace('\\r\\n', '\\n') + '\\n', layer, 'exec')"
p3341
sI195
S''
sI196
S''
sI197
S"def restricted(code, environment=None, layer='Unknown'):"
p3342
sI198
S'    """'
p3343
sI189
S''
sI190
S'def compile2(code, layer):'
p3344
sI191
S'    """'
p3345
ssg3322
S'(code=\'response.write(\\\'<!DOCTYPE html>\\\\n<!-- paulirish....(\\\'"></script>\\\\n</body>\\\\n</html>\\\\n\\\', escape=False)\', layer=\'/home/wionel/Desktop/web2py/applications/music/views/default/playlist.html\')'
p3346
sg3324
S'compile2'
p3347
sasS'pyver'
p3348
S'Python 2.7.3: /usr/bin/python'
p3349
sS'session'
p3350
g69
(g70
g71
NtRp3351
(dp3352
g74
(dp3353
sg76
(lp3354
g69
(g78
g71
NtRp3355
(dp3356
g74
(dp3357
g82
I5
ssg83
Nsg76
(lp3358
g69
(g85
g71
NtRp3359
(dp3360
g74
(dp3361
sg83
g3355
sg76
(lp3362
g69
(g90
g71
NtRp3363
(dp3364
g74
(dp3365
g94
g95
ssg83
g3359
sg76
(lp3366
S'auth'
p3367
asbag69
(g90
g71
NtRp3368
(dp3369
g74
(dp3370
g101
g102
ssg83
g3359
sg76
(lp3371
S':'
asbag69
(g90
g71
NtRp3372
(dp3373
g74
(dp3374
sg83
g3359
sg76
(lp3375
g69
(g70
g71
NtRp3376
(dp3377
g74
(dp3378
g82
I5
ssg83
g3372
sg76
(lp3379
g69
(g78
g71
NtRp3380
(dp3381
g74
(dp3382
g82
I4
ssg83
Nsg76
(lp3383
g69
(g85
g71
NtRp3384
(dp3385
g74
(dp3386
sg83
g3380
sg76
(lp3387
g69
(g90
g71
NtRp3388
(dp3389
g74
(dp3390
g94
g95
ssg83
g3384
sg76
(lp3391
S'expiration'
p3392
asbag69
(g90
g71
NtRp3393
(dp3394
g74
(dp3395
g101
g102
ssg83
g3384
sg76
(lp3396
S':'
asbag69
(g90
g71
NtRp3397
(dp3398
g74
(dp3399
sg83
g3384
sg76
(lp3400
g69
(g70
g71
NtRp3401
(dp3402
g74
(dp3403
g82
I4
ssg83
g3397
sg76
(lp3404
S'3600'
p3405
asbasbasbag69
(g85
g71
NtRp3406
(dp3407
g74
(dp3408
sg83
g3380
sg76
(lp3409
g69
(g90
g71
NtRp3410
(dp3411
g74
(dp3412
g94
g95
ssg83
g3406
sg76
(lp3413
S'hmac_key'
p3414
asbag69
(g90
g71
NtRp3415
(dp3416
g74
(dp3417
g101
g102
ssg83
g3406
sg76
(lp3418
S':'
asbag69
(g90
g71
NtRp3419
(dp3420
g74
(dp3421
sg83
g3406
sg76
(lp3422
g69
(g70
g71
NtRp3423
(dp3424
g74
(dp3425
g82
I4
ssg83
g3419
sg76
(lp3426
S'a808ccb3-9f32-4d09-973e-2e9a824eadc9'
p3427
asbasbasbag69
(g85
g71
NtRp3428
(dp3429
g74
(dp3430
sg83
g3380
sg76
(lp3431
g69
(g90
g71
NtRp3432
(dp3433
g74
(dp3434
g94
g95
ssg83
g3428
sg76
(lp3435
S'last_visit'
p3436
asbag69
(g90
g71
NtRp3437
(dp3438
g74
(dp3439
g101
g102
ssg83
g3428
sg76
(lp3440
S':'
asbag69
(g90
g71
NtRp3441
(dp3442
g74
(dp3443
sg83
g3428
sg76
(lp3444
g69
(g70
g71
NtRp3445
(dp3446
g74
(dp3447
g82
I4
ssg83
g3441
sg76
(lp3448
S'datetime.datetime(2012, 11, 14, 22, 48, 56, 17643)'
p3449
asbasbasbag69
(g85
g71
NtRp3450
(dp3451
g74
(dp3452
sg83
g3380
sg76
(lp3453
g69
(g90
g71
NtRp3454
(dp3455
g74
(dp3456
g94
g95
ssg83
g3450
sg76
(lp3457
S'remember'
p3458
asbag69
(g90
g71
NtRp3459
(dp3460
g74
(dp3461
g101
g102
ssg83
g3450
sg76
(lp3462
S':'
asbag69
(g90
g71
NtRp3463
(dp3464
g74
(dp3465
sg83
g3450
sg76
(lp3466
g69
(g70
g71
NtRp3467
(dp3468
g74
(dp3469
g82
I4
ssg83
g3463
sg76
(lp3470
g112
asbasbasbag69
(g85
g71
NtRp3471
(dp3472
g74
(dp3473
sg83
g3380
sg76
(lp3474
g69
(g90
g71
NtRp3475
(dp3476
g74
(dp3477
g94
g95
ssg83
g3471
sg76
(lp3478
S'user'
p3479
asbag69
(g90
g71
NtRp3480
(dp3481
g74
(dp3482
g101
g102
ssg83
g3471
sg76
(lp3483
S':'
asbag69
(g90
g71
NtRp3484
(dp3485
g74
(dp3486
sg83
g3471
sg76
(lp3487
g69
(g70
g71
NtRp3488
(dp3489
g74
(dp3490
g82
I4
ssg83
g3484
sg76
(lp3491
g69
(g78
g71
NtRp3492
(dp3493
g74
(dp3494
g82
I3
ssg83
Nsg76
(lp3495
g69
(g85
g71
NtRp3496
(dp3497
g74
(dp3498
sg83
g3492
sg76
(lp3499
g69
(g90
g71
NtRp3500
(dp3501
g74
(dp3502
g94
g95
ssg83
g3496
sg76
(lp3503
S'email'
p3504
asbag69
(g90
g71
NtRp3505
(dp3506
g74
(dp3507
g101
g102
ssg83
g3496
sg76
(lp3508
S':'
asbag69
(g90
g71
NtRp3509
(dp3510
g74
(dp3511
sg83
g3496
sg76
(lp3512
g69
(g70
g71
NtRp3513
(dp3514
g74
(dp3515
g82
I3
ssg83
g3509
sg76
(lp3516
S'shhrohan19@gmail.com'
p3517
asbasbasbag69
(g85
g71
NtRp3518
(dp3519
g74
(dp3520
sg83
g3492
sg76
(lp3521
g69
(g90
g71
NtRp3522
(dp3523
g74
(dp3524
g94
g95
ssg83
g3518
sg76
(lp3525
S'first_name'
p3526
asbag69
(g90
g71
NtRp3527
(dp3528
g74
(dp3529
g101
g102
ssg83
g3518
sg76
(lp3530
S':'
asbag69
(g90
g71
NtRp3531
(dp3532
g74
(dp3533
sg83
g3518
sg76
(lp3534
g69
(g70
g71
NtRp3535
(dp3536
g74
(dp3537
g82
I3
ssg83
g3531
sg76
(lp3538
S'Rohan'
p3539
asbasbasbag69
(g85
g71
NtRp3540
(dp3541
g74
(dp3542
sg83
g3492
sg76
(lp3543
g69
(g90
g71
NtRp3544
(dp3545
g74
(dp3546
g94
g95
ssg83
g3540
sg76
(lp3547
S'id'
p3548
asbag69
(g90
g71
NtRp3549
(dp3550
g74
(dp3551
g101
g102
ssg83
g3540
sg76
(lp3552
S':'
asbag69
(g90
g71
NtRp3553
(dp3554
g74
(dp3555
sg83
g3540
sg76
(lp3556
g69
(g70
g71
NtRp3557
(dp3558
g74
(dp3559
g82
I3
ssg83
g3553
sg76
(lp3560
S'1'
asbasbasbag69
(g85
g71
NtRp3561
(dp3562
g74
(dp3563
sg83
g3492
sg76
(lp3564
g69
(g90
g71
NtRp3565
(dp3566
g74
(dp3567
g94
g95
ssg83
g3561
sg76
(lp3568
S'last_name'
p3569
asbag69
(g90
g71
NtRp3570
(dp3571
g74
(dp3572
g101
g102
ssg83
g3561
sg76
(lp3573
S':'
asbag69
(g90
g71
NtRp3574
(dp3575
g74
(dp3576
sg83
g3561
sg76
(lp3577
g69
(g70
g71
NtRp3578
(dp3579
g74
(dp3580
g82
I3
ssg83
g3574
sg76
(lp3581
S'Shah'
p3582
asbasbasbag69
(g85
g71
NtRp3583
(dp3584
g74
(dp3585
sg83
g3492
sg76
(lp3586
g69
(g90
g71
NtRp3587
(dp3588
g74
(dp3589
g94
g95
ssg83
g3583
sg76
(lp3590
S'registration_id'
p3591
asbag69
(g90
g71
NtRp3592
(dp3593
g74
(dp3594
g101
g102
ssg83
g3583
sg76
(lp3595
S':'
asbag69
(g90
g71
NtRp3596
(dp3597
g74
(dp3598
sg83
g3583
sg76
(lp3599
g69
(g70
g71
NtRp3600
(dp3601
g74
(dp3602
g82
I3
ssg83
g3596
sg76
(lp3603
S''
asbasbasbag69
(g85
g71
NtRp3604
(dp3605
g74
(dp3606
sg83
g3492
sg76
(lp3607
g69
(g90
g71
NtRp3608
(dp3609
g74
(dp3610
g94
g95
ssg83
g3604
sg76
(lp3611
S'registration_key'
p3612
asbag69
(g90
g71
NtRp3613
(dp3614
g74
(dp3615
g101
g102
ssg83
g3604
sg76
(lp3616
S':'
asbag69
(g90
g71
NtRp3617
(dp3618
g74
(dp3619
sg83
g3604
sg76
(lp3620
g69
(g70
g71
NtRp3621
(dp3622
g74
(dp3623
g82
I3
ssg83
g3617
sg76
(lp3624
S''
asbasbasbag69
(g85
g71
NtRp3625
(dp3626
g74
(dp3627
sg83
g3492
sg76
(lp3628
g69
(g90
g71
NtRp3629
(dp3630
g74
(dp3631
g94
g95
ssg83
g3625
sg76
(lp3632
S'reset_password_key'
p3633
asbag69
(g90
g71
NtRp3634
(dp3635
g74
(dp3636
g101
g102
ssg83
g3625
sg76
(lp3637
S':'
asbag69
(g90
g71
NtRp3638
(dp3639
g74
(dp3640
sg83
g3625
sg76
(lp3641
g69
(g70
g71
NtRp3642
(dp3643
g74
(dp3644
g82
I3
ssg83
g3638
sg76
(lp3645
S''
asbasbasbasbasbasbasbag69
(g85
g71
NtRp3646
(dp3647
g74
(dp3648
sg83
g3380
sg76
(lp3649
g69
(g90
g71
NtRp3650
(dp3651
g74
(dp3652
g94
g95
ssg83
g3646
sg76
(lp3653
S'user_groups'
p3654
asbag69
(g90
g71
NtRp3655
(dp3656
g74
(dp3657
g101
g102
ssg83
g3646
sg76
(lp3658
S':'
asbag69
(g90
g71
NtRp3659
(dp3660
g74
(dp3661
sg83
g3646
sg76
(lp3662
g69
(g70
g71
NtRp3663
(dp3664
g74
(dp3665
g82
I4
ssg83
g3659
sg76
(lp3666
g69
(g78
g71
NtRp3667
(dp3668
g74
(dp3669
g82
I3
ssg83
Nsg76
(lp3670
g69
(g85
g71
NtRp3671
(dp3672
g74
(dp3673
sg83
g3667
sg76
(lp3674
g69
(g90
g71
NtRp3675
(dp3676
g74
(dp3677
g94
g95
ssg83
g3671
sg76
(lp3678
S'1'
asbag69
(g90
g71
NtRp3679
(dp3680
g74
(dp3681
g101
g102
ssg83
g3671
sg76
(lp3682
S':'
asbag69
(g90
g71
NtRp3683
(dp3684
g74
(dp3685
sg83
g3671
sg76
(lp3686
g69
(g70
g71
NtRp3687
(dp3688
g74
(dp3689
g82
I3
ssg83
g3683
sg76
(lp3690
S'user_1'
p3691
asbasbasbasbasbasbasbasbasbasbasbag69
(g85
g71
NtRp3692
(dp3693
g74
(dp3694
sg83
g3355
sg76
(lp3695
g69
(g90
g71
NtRp3696
(dp3697
g74
(dp3698
g94
g95
ssg83
g3692
sg76
(lp3699
S'flash'
p3700
asbag69
(g90
g71
NtRp3701
(dp3702
g74
(dp3703
g101
g102
ssg83
g3692
sg76
(lp3704
S':'
asbag69
(g90
g71
NtRp3705
(dp3706
g74
(dp3707
sg83
g3692
sg76
(lp3708
g69
(g70
g71
NtRp3709
(dp3710
g74
(dp3711
g82
I5
ssg83
g3705
sg76
(lp3712
S'None'
p3713
asbasbasbasbasbsS'etype'
p3714
S"<type 'exceptions.SyntaxError'>"
p3715
sS'date'
p3716
S'Wed Nov 14 22:53:55 2012'
p3717
sS'response'
p3718
g69
(g70
g71
NtRp3719
(dp3720
g74
(dp3721
sg76
(lp3722
g69
(g78
g71
NtRp3723
(dp3724
g74
(dp3725
g82
I5
ssg83
Nsg76
(lp3726
g69
(g85
g71
NtRp3727
(dp3728
g74
(dp3729
sg83
g3723
sg76
(lp3730
g69
(g90
g71
NtRp3731
(dp3732
g74
(dp3733
g94
g95
ssg83
g3727
sg76
(lp3734
g167
asbag69
(g90
g71
NtRp3735
(dp3736
g74
(dp3737
g101
g102
ssg83
g3727
sg76
(lp3738
S':'
asbag69
(g90
g71
NtRp3739
(dp3740
g74
(dp3741
sg83
g3727
sg76
(lp3742
g69
(g70
g71
NtRp3743
(dp3744
g74
(dp3745
g82
I5
ssg83
g3739
sg76
(lp3746
S'<cStringIO.StringO object at 0x7f81083db308>'
p3747
asbasbasbag69
(g85
g71
NtRp3748
(dp3749
g74
(dp3750
sg83
g3723
sg76
(lp3751
g69
(g90
g71
NtRp3752
(dp3753
g74
(dp3754
g94
g95
ssg83
g3748
sg76
(lp3755
g255
asbag69
(g90
g71
NtRp3756
(dp3757
g74
(dp3758
g101
g102
ssg83
g3748
sg76
(lp3759
S':'
asbag69
(g90
g71
NtRp3760
(dp3761
g74
(dp3762
sg83
g3748
sg76
(lp3763
g69
(g70
g71
NtRp3764
(dp3765
g74
(dp3766
g82
I5
ssg83
g3760
sg76
(lp3767
g69
(g78
g71
NtRp3768
(dp3769
g74
(dp3770
g82
I4
ssg83
Nsg76
(lp3771
g69
(g85
g71
NtRp3772
(dp3773
g74
(dp3774
sg83
g3768
sg76
(lp3775
g69
(g90
g71
NtRp3776
(dp3777
g74
(dp3778
g94
g95
ssg83
g3772
sg76
(lp3779
S'session_id_music'
p3780
asbag69
(g90
g71
NtRp3781
(dp3782
g74
(dp3783
g101
g102
ssg83
g3772
sg76
(lp3784
S':'
asbag69
(g90
g71
NtRp3785
(dp3786
g74
(dp3787
sg83
g3772
sg76
(lp3788
g69
(g70
g71
NtRp3789
(dp3790
g74
(dp3791
g82
I4
ssg83
g3785
sg76
(lp3792
g487
ag69
(g78
g71
NtRp3793
(dp3794
g74
(dp3795
g82
I3
ssg83
Nsg76
(lp3796
g69
(g85
g71
NtRp3797
(dp3798
g74
(dp3799
sg83
g3793
sg76
(lp3800
g69
(g90
g71
NtRp3801
(dp3802
g74
(dp3803
g94
g95
ssg83
g3797
sg76
(lp3804
g306
asbag69
(g90
g71
NtRp3805
(dp3806
g74
(dp3807
g101
g102
ssg83
g3797
sg76
(lp3808
S':'
asbag69
(g90
g71
NtRp3809
(dp3810
g74
(dp3811
sg83
g3797
sg76
(lp3812
g69
(g70
g71
NtRp3813
(dp3814
g74
(dp3815
g82
I3
ssg83
g3809
sg76
(lp3816
S''
asbasbasbag69
(g85
g71
NtRp3817
(dp3818
g74
(dp3819
sg83
g3793
sg76
(lp3820
g69
(g90
g71
NtRp3821
(dp3822
g74
(dp3823
g94
g95
ssg83
g3817
sg76
(lp3824
g327
asbag69
(g90
g71
NtRp3825
(dp3826
g74
(dp3827
g101
g102
ssg83
g3817
sg76
(lp3828
S':'
asbag69
(g90
g71
NtRp3829
(dp3830
g74
(dp3831
sg83
g3817
sg76
(lp3832
g69
(g70
g71
NtRp3833
(dp3834
g74
(dp3835
g82
I3
ssg83
g3829
sg76
(lp3836
S''
asbasbasbag69
(g85
g71
NtRp3837
(dp3838
g74
(dp3839
sg83
g3793
sg76
(lp3840
g69
(g90
g71
NtRp3841
(dp3842
g74
(dp3843
g94
g95
ssg83
g3837
sg76
(lp3844
g348
asbag69
(g90
g71
NtRp3845
(dp3846
g74
(dp3847
g101
g102
ssg83
g3837
sg76
(lp3848
S':'
asbag69
(g90
g71
NtRp3849
(dp3850
g74
(dp3851
sg83
g3837
sg76
(lp3852
g69
(g70
g71
NtRp3853
(dp3854
g74
(dp3855
g82
I3
ssg83
g3849
sg76
(lp3856
S''
asbasbasbag69
(g85
g71
NtRp3857
(dp3858
g74
(dp3859
sg83
g3793
sg76
(lp3860
g69
(g90
g71
NtRp3861
(dp3862
g74
(dp3863
g94
g95
ssg83
g3857
sg76
(lp3864
g369
asbag69
(g90
g71
NtRp3865
(dp3866
g74
(dp3867
g101
g102
ssg83
g3857
sg76
(lp3868
S':'
asbag69
(g90
g71
NtRp3869
(dp3870
g74
(dp3871
sg83
g3857
sg76
(lp3872
g69
(g70
g71
NtRp3873
(dp3874
g74
(dp3875
g82
I3
ssg83
g3869
sg76
(lp3876
S''
asbasbasbag69
(g85
g71
NtRp3877
(dp3878
g74
(dp3879
sg83
g3793
sg76
(lp3880
g69
(g90
g71
NtRp3881
(dp3882
g74
(dp3883
g94
g95
ssg83
g3877
sg76
(lp3884
g390
asbag69
(g90
g71
NtRp3885
(dp3886
g74
(dp3887
g101
g102
ssg83
g3877
sg76
(lp3888
S':'
asbag69
(g90
g71
NtRp3889
(dp3890
g74
(dp3891
sg83
g3877
sg76
(lp3892
g69
(g70
g71
NtRp3893
(dp3894
g74
(dp3895
g82
I3
ssg83
g3889
sg76
(lp3896
S''
asbasbasbag69
(g85
g71
NtRp3897
(dp3898
g74
(dp3899
sg83
g3793
sg76
(lp3900
g69
(g90
g71
NtRp3901
(dp3902
g74
(dp3903
g94
g95
ssg83
g3897
sg76
(lp3904
g411
asbag69
(g90
g71
NtRp3905
(dp3906
g74
(dp3907
g101
g102
ssg83
g3897
sg76
(lp3908
S':'
asbag69
(g90
g71
NtRp3909
(dp3910
g74
(dp3911
sg83
g3897
sg76
(lp3912
g69
(g70
g71
NtRp3913
(dp3914
g74
(dp3915
g82
I3
ssg83
g3909
sg76
(lp3916
S'/'
asbasbasbag69
(g85
g71
NtRp3917
(dp3918
g74
(dp3919
sg83
g3793
sg76
(lp3920
g69
(g90
g71
NtRp3921
(dp3922
g74
(dp3923
g94
g95
ssg83
g3917
sg76
(lp3924
g432
asbag69
(g90
g71
NtRp3925
(dp3926
g74
(dp3927
g101
g102
ssg83
g3917
sg76
(lp3928
S':'
asbag69
(g90
g71
NtRp3929
(dp3930
g74
(dp3931
sg83
g3917
sg76
(lp3932
g69
(g70
g71
NtRp3933
(dp3934
g74
(dp3935
g82
I3
ssg83
g3929
sg76
(lp3936
S''
asbasbasbag69
(g85
g71
NtRp3937
(dp3938
g74
(dp3939
sg83
g3793
sg76
(lp3940
g69
(g90
g71
NtRp3941
(dp3942
g74
(dp3943
g94
g95
ssg83
g3937
sg76
(lp3944
g453
asbag69
(g90
g71
NtRp3945
(dp3946
g74
(dp3947
g101
g102
ssg83
g3937
sg76
(lp3948
S':'
asbag69
(g90
g71
NtRp3949
(dp3950
g74
(dp3951
sg83
g3937
sg76
(lp3952
g69
(g70
g71
NtRp3953
(dp3954
g74
(dp3955
g82
I3
ssg83
g3949
sg76
(lp3956
S''
asbasbasbasbasbasbasbasbasbasbasbag69
(g85
g71
NtRp3957
(dp3958
g74
(dp3959
sg83
g3723
sg76
(lp3960
g69
(g90
g71
NtRp3961
(dp3962
g74
(dp3963
g94
g95
ssg83
g3957
sg76
(lp3964
S'delimiters'
p3965
asbag69
(g90
g71
NtRp3966
(dp3967
g74
(dp3968
g101
g102
ssg83
g3957
sg76
(lp3969
S':'
asbag69
(g90
g71
NtRp3970
(dp3971
g74
(dp3972
sg83
g3957
sg76
(lp3973
g69
(g70
g71
NtRp3974
(dp3975
g74
(dp3976
g82
I5
ssg83
g3970
sg76
(lp3977
g69
(g78
g71
NtRp3978
(dp3979
g74
(dp3980
g82
I4
ssg83
Nsg76
(lp3981
g69
(g85
g71
NtRp3982
(dp3983
g74
(dp3984
sg83
g3978
sg76
(lp3985
g69
(g90
g71
NtRp3986
(dp3987
g74
(dp3988
sg83
g3982
sg76
(lp3989
g69
(g70
g71
NtRp3990
(dp3991
g74
(dp3992
g82
I4
ssg83
g3986
sg76
(lp3993
S'{{'
p3994
asbasbasbag69
(g85
g71
NtRp3995
(dp3996
g74
(dp3997
sg83
g3978
sg76
(lp3998
g69
(g90
g71
NtRp3999
(dp4000
g74
(dp4001
sg83
g3995
sg76
(lp4002
g69
(g70
g71
NtRp4003
(dp4004
g74
(dp4005
g82
I4
ssg83
g3999
sg76
(lp4006
S'}}'
p4007
asbasbasbasbasbasbasbag69
(g85
g71
NtRp4008
(dp4009
g74
(dp4010
sg83
g3723
sg76
(lp4011
g69
(g90
g71
NtRp4012
(dp4013
g74
(dp4014
g94
g95
ssg83
g4008
sg76
(lp4015
S'files'
p4016
asbag69
(g90
g71
NtRp4017
(dp4018
g74
(dp4019
g101
g102
ssg83
g4008
sg76
(lp4020
S':'
asbag69
(g90
g71
NtRp4021
(dp4022
g74
(dp4023
sg83
g4008
sg76
(lp4024
g69
(g70
g71
NtRp4025
(dp4026
g74
(dp4027
g82
I5
ssg83
g4021
sg76
(lp4028
g69
(g78
g71
NtRp4029
(dp4030
g74
(dp4031
g82
I4
ssg83
Nsg76
(lp4032
sbasbasbasbag69
(g85
g71
NtRp4033
(dp4034
g74
(dp4035
sg83
g3723
sg76
(lp4036
g69
(g90
g71
NtRp4037
(dp4038
g74
(dp4039
g94
g95
ssg83
g4033
sg76
(lp4040
S'flash'
p4041
asbag69
(g90
g71
NtRp4042
(dp4043
g74
(dp4044
g101
g102
ssg83
g4033
sg76
(lp4045
S':'
asbag69
(g90
g71
NtRp4046
(dp4047
g74
(dp4048
sg83
g4033
sg76
(lp4049
g69
(g70
g71
NtRp4050
(dp4051
g74
(dp4052
g82
I5
ssg83
g4046
sg76
(lp4053
S''
asbasbasbag69
(g85
g71
NtRp4054
(dp4055
g74
(dp4056
sg83
g3723
sg76
(lp4057
g69
(g90
g71
NtRp4058
(dp4059
g74
(dp4060
g94
g95
ssg83
g4054
sg76
(lp4061
S'generic_patterns'
p4062
asbag69
(g90
g71
NtRp4063
(dp4064
g74
(dp4065
g101
g102
ssg83
g4054
sg76
(lp4066
S':'
asbag69
(g90
g71
NtRp4067
(dp4068
g74
(dp4069
sg83
g4054
sg76
(lp4070
g69
(g70
g71
NtRp4071
(dp4072
g74
(dp4073
g82
I5
ssg83
g4067
sg76
(lp4074
g69
(g78
g71
NtRp4075
(dp4076
g74
(dp4077
g82
I4
ssg83
Nsg76
(lp4078
g69
(g85
g71
NtRp4079
(dp4080
g74
(dp4081
sg83
g4075
sg76
(lp4082
g69
(g90
g71
NtRp4083
(dp4084
g74
(dp4085
sg83
g4079
sg76
(lp4086
g69
(g70
g71
NtRp4087
(dp4088
g74
(dp4089
g82
I4
ssg83
g4083
sg76
(lp4090
S'*'
asbasbasbasbasbasbasbag69
(g85
g71
NtRp4091
(dp4092
g74
(dp4093
sg83
g3723
sg76
(lp4094
g69
(g90
g71
NtRp4095
(dp4096
g74
(dp4097
g94
g95
ssg83
g4091
sg76
(lp4098
S'google_analytics_id'
p4099
asbag69
(g90
g71
NtRp4100
(dp4101
g74
(dp4102
g101
g102
ssg83
g4091
sg76
(lp4103
S':'
asbag69
(g90
g71
NtRp4104
(dp4105
g74
(dp4106
sg83
g4091
sg76
(lp4107
g69
(g70
g71
NtRp4108
(dp4109
g74
(dp4110
g82
I5
ssg83
g4104
sg76
(lp4111
S'None'
p4112
asbasbasbag69
(g85
g71
NtRp4113
(dp4114
g74
(dp4115
sg83
g3723
sg76
(lp4116
g69
(g90
g71
NtRp4117
(dp4118
g74
(dp4119
g94
g95
ssg83
g4113
sg76
(lp4120
S'headers'
p4121
asbag69
(g90
g71
NtRp4122
(dp4123
g74
(dp4124
g101
g102
ssg83
g4113
sg76
(lp4125
S':'
asbag69
(g90
g71
NtRp4126
(dp4127
g74
(dp4128
sg83
g4113
sg76
(lp4129
g69
(g70
g71
NtRp4130
(dp4131
g74
(dp4132
g82
I5
ssg83
g4126
sg76
(lp4133
g69
(g78
g71
NtRp4134
(dp4135
g74
(dp4136
g82
I4
ssg83
Nsg76
(lp4137
g69
(g85
g71
NtRp4138
(dp4139
g74
(dp4140
sg83
g4134
sg76
(lp4141
g69
(g90
g71
NtRp4142
(dp4143
g74
(dp4144
g94
g95
ssg83
g4138
sg76
(lp4145
S'X-Powered-By'
p4146
asbag69
(g90
g71
NtRp4147
(dp4148
g74
(dp4149
g101
g102
ssg83
g4138
sg76
(lp4150
S':'
asbag69
(g90
g71
NtRp4151
(dp4152
g74
(dp4153
sg83
g4138
sg76
(lp4154
g69
(g70
g71
NtRp4155
(dp4156
g74
(dp4157
g82
I4
ssg83
g4151
sg76
(lp4158
S'web2py'
p4159
asbasbasbasbasbasbasbag69
(g85
g71
NtRp4160
(dp4161
g74
(dp4162
sg83
g3723
sg76
(lp4163
g69
(g90
g71
NtRp4164
(dp4165
g74
(dp4166
g94
g95
ssg83
g4160
sg76
(lp4167
S'menu'
p4168
asbag69
(g90
g71
NtRp4169
(dp4170
g74
(dp4171
g101
g102
ssg83
g4160
sg76
(lp4172
S':'
asbag69
(g90
g71
NtRp4173
(dp4174
g74
(dp4175
sg83
g4160
sg76
(lp4176
g69
(g70
g71
NtRp4177
(dp4178
g74
(dp4179
g82
I5
ssg83
g4173
sg76
(lp4180
g69
(g78
g71
NtRp4181
(dp4182
g74
(dp4183
g82
I4
ssg83
Nsg76
(lp4184
g69
(g85
g71
NtRp4185
(dp4186
g74
(dp4187
sg83
g4181
sg76
(lp4188
g69
(g90
g71
NtRp4189
(dp4190
g74
(dp4191
sg83
g4185
sg76
(lp4192
g69
(g70
g71
NtRp4193
(dp4194
g74
(dp4195
g82
I4
ssg83
g4189
sg76
(lp4196
g69
(g78
g71
NtRp4197
(dp4198
g74
(dp4199
g82
I3
ssg83
Nsg76
(lp4200
g69
(g85
g71
NtRp4201
(dp4202
g74
(dp4203
sg83
g4197
sg76
(lp4204
g69
(g90
g71
NtRp4205
(dp4206
g74
(dp4207
sg83
g4201
sg76
(lp4208
g69
(g70
g71
NtRp4209
(dp4210
g74
(dp4211
g82
I3
ssg83
g4205
sg76
(lp4212
cgluon.languages
lazyT_unpickle
p4213
(S's\x04\x00\x00\x00Home'
tRp4214
asbasbasbag69
(g85
g71
NtRp4215
(dp4216
g74
(dp4217
sg83
g4197
sg76
(lp4218
g69
(g90
g71
NtRp4219
(dp4220
g74
(dp4221
sg83
g4215
sg76
(lp4222
g69
(g70
g71
NtRp4223
(dp4224
g74
(dp4225
g82
I3
ssg83
g4219
sg76
(lp4226
g112
asbasbasbag69
(g85
g71
NtRp4227
(dp4228
g74
(dp4229
sg83
g4197
sg76
(lp4230
g69
(g90
g71
NtRp4231
(dp4232
g74
(dp4233
sg83
g4227
sg76
(lp4234
g69
(g70
g71
NtRp4235
(dp4236
g74
(dp4237
g82
I3
ssg83
g4231
sg76
(lp4238
S'/music/default/index'
p4239
asbasbasbag69
(g85
g71
NtRp4240
(dp4241
g74
(dp4242
sg83
g4197
sg76
(lp4243
g69
(g90
g71
NtRp4244
(dp4245
g74
(dp4246
sg83
g4240
sg76
(lp4247
g69
(g70
g71
NtRp4248
(dp4249
g74
(dp4250
g82
I3
ssg83
g4244
sg76
(lp4251
g69
(g78
g71
NtRp4252
(dp4253
g74
(dp4254
g82
I2
ssg83
Nsg76
(lp4255
sbasbasbasbasbasbasbasbag69
(g85
g71
NtRp4256
(dp4257
g74
(dp4258
sg83
g4181
sg76
(lp4259
g69
(g90
g71
NtRp4260
(dp4261
g74
(dp4262
sg83
g4256
sg76
(lp4263
g69
(g70
g71
NtRp4264
(dp4265
g74
(dp4266
g82
I4
ssg83
g4260
sg76
(lp4267
g69
(g78
g71
NtRp4268
(dp4269
g74
(dp4270
g82
I3
ssg83
Nsg76
(lp4271
g69
(g85
g71
NtRp4272
(dp4273
g74
(dp4274
sg83
g4268
sg76
(lp4275
g69
(g90
g71
NtRp4276
(dp4277
g74
(dp4278
sg83
g4272
sg76
(lp4279
g69
(g70
g71
NtRp4280
(dp4281
g74
(dp4282
g82
I3
ssg83
g4276
sg76
(lp4283
g69
(cgluon.html
SPAN
p4284
g71
NtRp4285
(dp4286
g74
(dp4287
S'_class'
p4288
S'highlighted'
p4289
ssg83
Nsg76
(lp4290
g4159
asbasbasbasbag69
(g85
g71
NtRp4291
(dp4292
g74
(dp4293
sg83
g4268
sg76
(lp4294
g69
(g90
g71
NtRp4295
(dp4296
g74
(dp4297
sg83
g4291
sg76
(lp4298
g69
(g70
g71
NtRp4299
(dp4300
g74
(dp4301
g82
I3
ssg83
g4295
sg76
(lp4302
g112
asbasbasbag69
(g85
g71
NtRp4303
(dp4304
g74
(dp4305
sg83
g4268
sg76
(lp4306
g69
(g90
g71
NtRp4307
(dp4308
g74
(dp4309
sg83
g4303
sg76
(lp4310
g69
(g70
g71
NtRp4311
(dp4312
g74
(dp4313
g82
I3
ssg83
g4307
sg76
(lp4314
S'http://web2py.com'
p4315
asbasbasbag69
(g85
g71
NtRp4316
(dp4317
g74
(dp4318
sg83
g4268
sg76
(lp4319
g69
(g90
g71
NtRp4320
(dp4321
g74
(dp4322
sg83
g4316
sg76
(lp4323
g69
(g70
g71
NtRp4324
(dp4325
g74
(dp4326
g82
I3
ssg83
g4320
sg76
(lp4327
g69
(g78
g71
NtRp4328
(dp4329
g74
(dp4330
g82
I2
ssg83
Nsg76
(lp4331
g69
(g85
g71
NtRp4332
(dp4333
g74
(dp4334
sg83
g4328
sg76
(lp4335
g69
(g90
g71
NtRp4336
(dp4337
g74
(dp4338
sg83
g4332
sg76
(lp4339
g69
(g70
g71
NtRp4340
(dp4341
g74
(dp4342
g82
I2
ssg83
g4336
sg76
(lp4343
g69
(g78
g71
NtRp4344
(dp4345
g74
(dp4346
g82
I1
ssg83
Nsg76
(lp4347
g69
(g85
g71
NtRp4348
(dp4349
g74
(dp4350
sg83
g4344
sg76
(lp4351
g69
(g90
g71
NtRp4352
(dp4353
g74
(dp4354
sg83
g4348
sg76
(lp4355
g69
(g70
g71
NtRp4356
(dp4357
g74
(dp4358
g82
I1
ssg83
g4352
sg76
(lp4359
g4213
(S's\x08\x00\x00\x00My Sites'
tRp4360
asbasbasbag69
(g85
g71
NtRp4361
(dp4362
g74
(dp4363
sg83
g4344
sg76
(lp4364
g69
(g90
g71
NtRp4365
(dp4366
g74
(dp4367
sg83
g4361
sg76
(lp4368
g69
(g70
g71
NtRp4369
(dp4370
g74
(dp4371
g82
I1
ssg83
g4365
sg76
(lp4372
I00
asbasbasbag69
(g85
g71
NtRp4373
(dp4374
g74
(dp4375
sg83
g4344
sg76
(lp4376
g69
(g90
g71
NtRp4377
(dp4378
g74
(dp4379
sg83
g4373
sg76
(lp4380
g69
(g70
g71
NtRp4381
(dp4382
g74
(dp4383
g82
I1
ssg83
g4377
sg76
(lp4384
S'/admin/default/site'
p4385
asbasbasbasbasbasbasbag69
(g85
g71
NtRp4386
(dp4387
g74
(dp4388
sg83
g4328
sg76
(lp4389
g69
(g90
g71
NtRp4390
(dp4391
g74
(dp4392
sg83
g4386
sg76
(lp4393
g69
(g70
g71
NtRp4394
(dp4395
g74
(dp4396
g82
I2
ssg83
g4390
sg76
(lp4397
g69
(g78
g71
NtRp4398
(dp4399
g74
(dp4400
g82
I1
ssg83
Nsg76
(lp4401
g69
(g85
g71
NtRp4402
(dp4403
g74
(dp4404
sg83
g4398
sg76
(lp4405
g69
(g90
g71
NtRp4406
(dp4407
g74
(dp4408
sg83
g4402
sg76
(lp4409
g69
(g70
g71
NtRp4410
(dp4411
g74
(dp4412
g82
I1
ssg83
g4406
sg76
(lp4413
g4213
(S's\x08\x00\x00\x00This App'
tRp4414
asbasbasbag69
(g85
g71
NtRp4415
(dp4416
g74
(dp4417
sg83
g4398
sg76
(lp4418
g69
(g90
g71
NtRp4419
(dp4420
g74
(dp4421
sg83
g4415
sg76
(lp4422
g69
(g70
g71
NtRp4423
(dp4424
g74
(dp4425
g82
I1
ssg83
g4419
sg76
(lp4426
I00
asbasbasbag69
(g85
g71
NtRp4427
(dp4428
g74
(dp4429
sg83
g4398
sg76
(lp4430
g69
(g90
g71
NtRp4431
(dp4432
g74
(dp4433
sg83
g4427
sg76
(lp4434
g69
(g70
g71
NtRp4435
(dp4436
g74
(dp4437
g82
I1
ssg83
g4431
sg76
(lp4438
S'/admin/default/design/music'
p4439
asbasbasbag69
(g85
g71
NtRp4440
(dp4441
g74
(dp4442
sg83
g4398
sg76
(lp4443
g69
(g90
g71
NtRp4444
(dp4445
g74
(dp4446
sg83
g4440
sg76
(lp4447
g69
(g70
g71
NtRp4448
(dp4449
g74
(dp4450
g82
I1
ssg83
g4444
sg76
(lp4451
(lp4452
(g4213
(S's\n\x00\x00\x00Controller'
tRp4453
I00
S'/admin/default/edit/music/controllers/default.py'
tp4454
a(g4213
(S's\x04\x00\x00\x00View'
tRp4455
I00
S'/admin/default/edit/music/views/default/playlist.html'
tp4456
a(g4213
(S's\x06\x00\x00\x00Layout'
tRp4457
I00
S'/admin/default/edit/music/views/layout.html'
tp4458
a(g4213
(S's\n\x00\x00\x00Stylesheet'
tRp4459
I00
S'/admin/default/edit/music/static/css/web2py.css'
tp4460
a(g4213
(S's\x08\x00\x00\x00DB Model'
tRp4461
I00
S'/admin/default/edit/music/models/db.py'
tp4462
a(g4213
(S's\n\x00\x00\x00Menu Model'
tRp4463
I00
S'/admin/default/edit/music/models/menu.py'
tp4464
a(g4213
(S's\x08\x00\x00\x00Database'
tRp4465
I00
S'/music/appadmin/index'
tp4466
a(g4213
(S's\x06\x00\x00\x00Errors'
tRp4467
I00
S'/admin/default/errors/music'
tp4468
a(g4213
(S's\x05\x00\x00\x00About'
tRp4469
I00
S'/admin/default/about/music'
tp4470
aasbasbasbasbasbasbasbag69
(g85
g71
NtRp4471
(dp4472
g74
(dp4473
sg83
g4328
sg76
(lp4474
g69
(g90
g71
NtRp4475
(dp4476
g74
(dp4477
sg83
g4471
sg76
(lp4478
g69
(g70
g71
NtRp4479
(dp4480
g74
(dp4481
g82
I2
ssg83
g4475
sg76
(lp4482
g69
(g78
g71
NtRp4483
(dp4484
g74
(dp4485
g82
I1
ssg83
Nsg76
(lp4486
g69
(g85
g71
NtRp4487
(dp4488
g74
(dp4489
sg83
g4483
sg76
(lp4490
g69
(g90
g71
NtRp4491
(dp4492
g74
(dp4493
sg83
g4487
sg76
(lp4494
g69
(g70
g71
NtRp4495
(dp4496
g74
(dp4497
g82
I1
ssg83
g4491
sg76
(lp4498
S'web2py.com'
p4499
asbasbasbag69
(g85
g71
NtRp4500
(dp4501
g74
(dp4502
sg83
g4483
sg76
(lp4503
g69
(g90
g71
NtRp4504
(dp4505
g74
(dp4506
sg83
g4500
sg76
(lp4507
g69
(g70
g71
NtRp4508
(dp4509
g74
(dp4510
g82
I1
ssg83
g4504
sg76
(lp4511
I00
asbasbasbag69
(g85
g71
NtRp4512
(dp4513
g74
(dp4514
sg83
g4483
sg76
(lp4515
g69
(g90
g71
NtRp4516
(dp4517
g74
(dp4518
sg83
g4512
sg76
(lp4519
g69
(g70
g71
NtRp4520
(dp4521
g74
(dp4522
g82
I1
ssg83
g4516
sg76
(lp4523
S'http://www.web2py.com'
p4524
asbasbasbag69
(g85
g71
NtRp4525
(dp4526
g74
(dp4527
sg83
g4483
sg76
(lp4528
g69
(g90
g71
NtRp4529
(dp4530
g74
(dp4531
sg83
g4525
sg76
(lp4532
g69
(g70
g71
NtRp4533
(dp4534
g74
(dp4535
g82
I1
ssg83
g4529
sg76
(lp4536
(lp4537
(g4213
(S's\x08\x00\x00\x00Download'
tRp4538
I00
S'http://www.web2py.com/examples/default/download'
p4539
tp4540
a(g4213
(S's\x07\x00\x00\x00Support'
tRp4541
I00
S'http://www.web2py.com/examples/default/support'
p4542
tp4543
a(g4213
(S's\x04\x00\x00\x00Demo'
tRp4544
I00
S'http://web2py.com/demo_admin'
p4545
tp4546
a(g4213
(S's\x0e\x00\x00\x00Quick Examples'
tRp4547
I00
S'http://web2py.com/examples/default/examples'
p4548
tp4549
a(g4213
(S's\x03\x00\x00\x00FAQ'
tRp4550
I00
S'http://web2py.com/AlterEgo'
p4551
tp4552
a(g4213
(S's\x06\x00\x00\x00Videos'
tRp4553
I00
S'http://www.web2py.com/examples/default/videos/'
p4554
tp4555
a(g4213
(S's\x11\x00\x00\x00Free Applications'
tRp4556
I00
S'http://web2py.com/appliances'
p4557
tp4558
a(g4213
(S's\x07\x00\x00\x00Plugins'
tRp4559
I00
S'http://web2py.com/plugins'
p4560
tp4561
a(g4213
(S's\x07\x00\x00\x00Layouts'
tRp4562
I00
S'http://web2py.com/layouts'
p4563
tp4564
a(g4213
(S's\x07\x00\x00\x00Recipes'
tRp4565
I00
S'http://web2pyslices.com/'
p4566
tp4567
a(g4213
(S's\x08\x00\x00\x00Semantic'
tRp4568
I00
S'http://web2py.com/semantic'
p4569
tp4570
aasbasbasbasbasbasbasbag69
(g85
g71
NtRp4571
(dp4572
g74
(dp4573
sg83
g4328
sg76
(lp4574
g69
(g90
g71
NtRp4575
(dp4576
g74
(dp4577
sg83
g4571
sg76
(lp4578
g69
(g70
g71
NtRp4579
(dp4580
g74
(dp4581
g82
I2
ssg83
g4575
sg76
(lp4582
g69
(g78
g71
NtRp4583
(dp4584
g74
(dp4585
g82
I1
ssg83
Nsg76
(lp4586
g69
(g85
g71
NtRp4587
(dp4588
g74
(dp4589
sg83
g4583
sg76
(lp4590
g69
(g90
g71
NtRp4591
(dp4592
g74
(dp4593
sg83
g4587
sg76
(lp4594
g69
(g70
g71
NtRp4595
(dp4596
g74
(dp4597
g82
I1
ssg83
g4591
sg76
(lp4598
g4213
(S's\r\x00\x00\x00Documentation'
tRp4599
asbasbasbag69
(g85
g71
NtRp4600
(dp4601
g74
(dp4602
sg83
g4583
sg76
(lp4603
g69
(g90
g71
NtRp4604
(dp4605
g74
(dp4606
sg83
g4600
sg76
(lp4607
g69
(g70
g71
NtRp4608
(dp4609
g74
(dp4610
g82
I1
ssg83
g4604
sg76
(lp4611
I00
asbasbasbag69
(g85
g71
NtRp4612
(dp4613
g74
(dp4614
sg83
g4583
sg76
(lp4615
g69
(g90
g71
NtRp4616
(dp4617
g74
(dp4618
sg83
g4612
sg76
(lp4619
g69
(g70
g71
NtRp4620
(dp4621
g74
(dp4622
g82
I1
ssg83
g4616
sg76
(lp4623
S'http://www.web2py.com/book'
p4624
asbasbasbag69
(g85
g71
NtRp4625
(dp4626
g74
(dp4627
sg83
g4583
sg76
(lp4628
g69
(g90
g71
NtRp4629
(dp4630
g74
(dp4631
sg83
g4625
sg76
(lp4632
g69
(g70
g71
NtRp4633
(dp4634
g74
(dp4635
g82
I1
ssg83
g4629
sg76
(lp4636
(lp4637
(g4213
(S's\x07\x00\x00\x00Preface'
tRp4638
I00
S'http://www.web2py.com/book/default/chapter/00'
p4639
tp4640
a(g4213
(S's\x0c\x00\x00\x00Introduction'
tRp4641
I00
S'http://www.web2py.com/book/default/chapter/01'
p4642
tp4643
a(g4213
(S's\x06\x00\x00\x00Python'
tRp4644
I00
S'http://www.web2py.com/book/default/chapter/02'
p4645
tp4646
a(g4213
(S's\x08\x00\x00\x00Overview'
tRp4647
I00
S'http://www.web2py.com/book/default/chapter/03'
p4648
tp4649
a(g4213
(S's\x08\x00\x00\x00The Core'
tRp4650
I00
S'http://www.web2py.com/book/default/chapter/04'
p4651
tp4652
a(g4213
(S's\t\x00\x00\x00The Views'
tRp4653
I00
S'http://www.web2py.com/book/default/chapter/05'
p4654
tp4655
a(g4213
(S's\x08\x00\x00\x00Database'
tRp4656
I00
S'http://www.web2py.com/book/default/chapter/06'
p4657
tp4658
a(g4213
(S's\x14\x00\x00\x00Forms and Validators'
tRp4659
I00
S'http://www.web2py.com/book/default/chapter/07'
p4660
tp4661
a(g4213
(S's\r\x00\x00\x00Email and SMS'
tRp4662
I00
S'http://www.web2py.com/book/default/chapter/08'
p4663
tp4664
a(g4213
(S's\x0e\x00\x00\x00Access Control'
tRp4665
I00
S'http://www.web2py.com/book/default/chapter/09'
p4666
tp4667
a(g4213
(S's\x08\x00\x00\x00Services'
tRp4668
I00
S'http://www.web2py.com/book/default/chapter/10'
p4669
tp4670
a(g4213
(S's\x0c\x00\x00\x00Ajax Recipes'
tRp4671
I00
S'http://www.web2py.com/book/default/chapter/11'
p4672
tp4673
a(g4213
(S's\x16\x00\x00\x00Components and Plugins'
tRp4674
I00
S'http://www.web2py.com/book/default/chapter/12'
p4675
tp4676
a(g4213
(S's\x12\x00\x00\x00Deployment Recipes'
tRp4677
I00
S'http://www.web2py.com/book/default/chapter/13'
p4678
tp4679
a(g4213
(S's\r\x00\x00\x00Other Recipes'
tRp4680
I00
S'http://www.web2py.com/book/default/chapter/14'
p4681
tp4682
a(g4213
(S's\r\x00\x00\x00Buy this book'
tRp4683
I00
S'http://stores.lulu.com/web2py'
p4684
tp4685
aasbasbasbasbasbasbasbag69
(g85
g71
NtRp4686
(dp4687
g74
(dp4688
sg83
g4328
sg76
(lp4689
g69
(g90
g71
NtRp4690
(dp4691
g74
(dp4692
sg83
g4686
sg76
(lp4693
g69
(g70
g71
NtRp4694
(dp4695
g74
(dp4696
g82
I2
ssg83
g4690
sg76
(lp4697
g69
(g78
g71
NtRp4698
(dp4699
g74
(dp4700
g82
I1
ssg83
Nsg76
(lp4701
g69
(g85
g71
NtRp4702
(dp4703
g74
(dp4704
sg83
g4698
sg76
(lp4705
g69
(g90
g71
NtRp4706
(dp4707
g74
(dp4708
sg83
g4702
sg76
(lp4709
g69
(g70
g71
NtRp4710
(dp4711
g74
(dp4712
g82
I1
ssg83
g4706
sg76
(lp4713
g4213
(S's\t\x00\x00\x00Community'
tRp4714
asbasbasbag69
(g85
g71
NtRp4715
(dp4716
g74
(dp4717
sg83
g4698
sg76
(lp4718
g69
(g90
g71
NtRp4719
(dp4720
g74
(dp4721
sg83
g4715
sg76
(lp4722
g69
(g70
g71
NtRp4723
(dp4724
g74
(dp4725
g82
I1
ssg83
g4719
sg76
(lp4726
I00
asbasbasbag69
(g85
g71
NtRp4727
(dp4728
g74
(dp4729
sg83
g4698
sg76
(lp4730
g69
(g90
g71
NtRp4731
(dp4732
g74
(dp4733
sg83
g4727
sg76
(lp4734
g69
(g70
g71
NtRp4735
(dp4736
g74
(dp4737
g82
I1
ssg83
g4731
sg76
(lp4738
Nasbasbasbag69
(g85
g71
NtRp4739
(dp4740
g74
(dp4741
sg83
g4698
sg76
(lp4742
g69
(g90
g71
NtRp4743
(dp4744
g74
(dp4745
sg83
g4739
sg76
(lp4746
g69
(g70
g71
NtRp4747
(dp4748
g74
(dp4749
g82
I1
ssg83
g4743
sg76
(lp4750
(lp4751
(g4213
(S's\x06\x00\x00\x00Groups'
tRp4752
I00
S'http://www.web2py.com/examples/default/usergroups'
p4753
tp4754
a(g4213
(S's\x07\x00\x00\x00Twitter'
tRp4755
I00
S'http://twitter.com/web2py'
p4756
tp4757
a(g4213
(S's\t\x00\x00\x00Live Chat'
tRp4758
I00
S'http://webchat.freenode.net/?channels=web2py'
p4759
tp4760
aasbasbasbasbasbasbasbag69
(g85
g71
NtRp4761
(dp4762
g74
(dp4763
sg83
g4328
sg76
(lp4764
g69
(g90
g71
NtRp4765
(dp4766
g74
(dp4767
sg83
g4761
sg76
(lp4768
g69
(g70
g71
NtRp4769
(dp4770
g74
(dp4771
g82
I2
ssg83
g4765
sg76
(lp4772
g69
(g78
g71
NtRp4773
(dp4774
g74
(dp4775
g82
I1
ssg83
Nsg76
(lp4776
g69
(g85
g71
NtRp4777
(dp4778
g74
(dp4779
sg83
g4773
sg76
(lp4780
g69
(g90
g71
NtRp4781
(dp4782
g74
(dp4783
sg83
g4777
sg76
(lp4784
g69
(g70
g71
NtRp4785
(dp4786
g74
(dp4787
g82
I1
ssg83
g4781
sg76
(lp4788
g4213
(S's\x07\x00\x00\x00Plugins'
tRp4789
asbasbasbag69
(g85
g71
NtRp4790
(dp4791
g74
(dp4792
sg83
g4773
sg76
(lp4793
g69
(g90
g71
NtRp4794
(dp4795
g74
(dp4796
sg83
g4790
sg76
(lp4797
g69
(g70
g71
NtRp4798
(dp4799
g74
(dp4800
g82
I1
ssg83
g4794
sg76
(lp4801
I00
asbasbasbag69
(g85
g71
NtRp4802
(dp4803
g74
(dp4804
sg83
g4773
sg76
(lp4805
g69
(g90
g71
NtRp4806
(dp4807
g74
(dp4808
sg83
g4802
sg76
(lp4809
g69
(g70
g71
NtRp4810
(dp4811
g74
(dp4812
g82
I1
ssg83
g4806
sg76
(lp4813
Nasbasbasbag69
(g85
g71
NtRp4814
(dp4815
g74
(dp4816
sg83
g4773
sg76
(lp4817
g69
(g90
g71
NtRp4818
(dp4819
g74
(dp4820
sg83
g4814
sg76
(lp4821
g69
(g70
g71
NtRp4822
(dp4823
g74
(dp4824
g82
I1
ssg83
g4818
sg76
(lp4825
(lp4826
(S'plugin_wiki'
p4827
I00
S'http://web2py.com/examples/default/download'
p4828
tp4829
a(g4213
(S's\r\x00\x00\x00Other Plugins'
tRp4830
I00
g4560
tp4831
a(g4213
(S's\x0e\x00\x00\x00Layout Plugins'
tRp4832
I00
g4563
tp4833
aasbasbasbasbasbasbasbasbasbasbasbasbasbasbasbasbasbasbasbag69
(g85
g71
NtRp4834
(dp4835
g74
(dp4836
sg83
g3723
sg76
(lp4837
g69
(g90
g71
NtRp4838
(dp4839
g74
(dp4840
g94
g95
ssg83
g4834
sg76
(lp4841
S'meta'
p4842
asbag69
(g90
g71
NtRp4843
(dp4844
g74
(dp4845
g101
g102
ssg83
g4834
sg76
(lp4846
S':'
asbag69
(g90
g71
NtRp4847
(dp4848
g74
(dp4849
sg83
g4834
sg76
(lp4850
g69
(g70
g71
NtRp4851
(dp4852
g74
(dp4853
g82
I5
ssg83
g4847
sg76
(lp4854
g69
(g78
g71
NtRp4855
(dp4856
g74
(dp4857
g82
I4
ssg83
Nsg76
(lp4858
g69
(g85
g71
NtRp4859
(dp4860
g74
(dp4861
sg83
g4855
sg76
(lp4862
g69
(g90
g71
NtRp4863
(dp4864
g74
(dp4865
g94
g95
ssg83
g4859
sg76
(lp4866
S'author'
p4867
asbag69
(g90
g71
NtRp4868
(dp4869
g74
(dp4870
g101
g102
ssg83
g4859
sg76
(lp4871
S':'
asbag69
(g90
g71
NtRp4872
(dp4873
g74
(dp4874
sg83
g4859
sg76
(lp4875
g69
(g70
g71
NtRp4876
(dp4877
g74
(dp4878
g82
I4
ssg83
g4872
sg76
(lp4879
S'Your Name <you@example.com>'
p4880
asbasbasbag69
(g85
g71
NtRp4881
(dp4882
g74
(dp4883
sg83
g4855
sg76
(lp4884
g69
(g90
g71
NtRp4885
(dp4886
g74
(dp4887
g94
g95
ssg83
g4881
sg76
(lp4888
S'description'
p4889
asbag69
(g90
g71
NtRp4890
(dp4891
g74
(dp4892
g101
g102
ssg83
g4881
sg76
(lp4893
S':'
asbag69
(g90
g71
NtRp4894
(dp4895
g74
(dp4896
sg83
g4881
sg76
(lp4897
g69
(g70
g71
NtRp4898
(dp4899
g74
(dp4900
g82
I4
ssg83
g4894
sg76
(lp4901
S'a cool new app'
p4902
asbasbasbag69
(g85
g71
NtRp4903
(dp4904
g74
(dp4905
sg83
g4855
sg76
(lp4906
g69
(g90
g71
NtRp4907
(dp4908
g74
(dp4909
g94
g95
ssg83
g4903
sg76
(lp4910
S'generator'
p4911
asbag69
(g90
g71
NtRp4912
(dp4913
g74
(dp4914
g101
g102
ssg83
g4903
sg76
(lp4915
S':'
asbag69
(g90
g71
NtRp4916
(dp4917
g74
(dp4918
sg83
g4903
sg76
(lp4919
g69
(g70
g71
NtRp4920
(dp4921
g74
(dp4922
g82
I4
ssg83
g4916
sg76
(lp4923
S'Web2py Web Framework'
p4924
asbasbasbag69
(g85
g71
NtRp4925
(dp4926
g74
(dp4927
sg83
g4855
sg76
(lp4928
g69
(g90
g71
NtRp4929
(dp4930
g74
(dp4931
g94
g95
ssg83
g4925
sg76
(lp4932
S'keywords'
p4933
asbag69
(g90
g71
NtRp4934
(dp4935
g74
(dp4936
g101
g102
ssg83
g4925
sg76
(lp4937
S':'
asbag69
(g90
g71
NtRp4938
(dp4939
g74
(dp4940
sg83
g4925
sg76
(lp4941
g69
(g70
g71
NtRp4942
(dp4943
g74
(dp4944
g82
I4
ssg83
g4938
sg76
(lp4945
S'web2py, python, framework'
p4946
asbasbasbasbasbasbasbag69
(g85
g71
NtRp4947
(dp4948
g74
(dp4949
sg83
g3723
sg76
(lp4950
g69
(g90
g71
NtRp4951
(dp4952
g74
(dp4953
g94
g95
ssg83
g4947
sg76
(lp4954
S'models_to_run'
p4955
asbag69
(g90
g71
NtRp4956
(dp4957
g74
(dp4958
g101
g102
ssg83
g4947
sg76
(lp4959
S':'
asbag69
(g90
g71
NtRp4960
(dp4961
g74
(dp4962
sg83
g4947
sg76
(lp4963
g69
(g70
g71
NtRp4964
(dp4965
g74
(dp4966
g82
I5
ssg83
g4960
sg76
(lp4967
g69
(g78
g71
NtRp4968
(dp4969
g74
(dp4970
g82
I4
ssg83
Nsg76
(lp4971
g69
(g85
g71
NtRp4972
(dp4973
g74
(dp4974
sg83
g4968
sg76
(lp4975
g69
(g90
g71
NtRp4976
(dp4977
g74
(dp4978
sg83
g4972
sg76
(lp4979
g69
(g70
g71
NtRp4980
(dp4981
g74
(dp4982
g82
I4
ssg83
g4976
sg76
(lp4983
S'^\\w+\\.py$'
p4984
asbasbasbag69
(g85
g71
NtRp4985
(dp4986
g74
(dp4987
sg83
g4968
sg76
(lp4988
g69
(g90
g71
NtRp4989
(dp4990
g74
(dp4991
sg83
g4985
sg76
(lp4992
g69
(g70
g71
NtRp4993
(dp4994
g74
(dp4995
g82
I4
ssg83
g4989
sg76
(lp4996
S'^default/\\w+\\.py$'
p4997
asbasbasbag69
(g85
g71
NtRp4998
(dp4999
g74
(dp5000
sg83
g4968
sg76
(lp5001
g69
(g90
g71
NtRp5002
(dp5003
g74
(dp5004
sg83
g4998
sg76
(lp5005
g69
(g70
g71
NtRp5006
(dp5007
g74
(dp5008
g82
I4
ssg83
g5002
sg76
(lp5009
S'^default/playlist/\\w+\\.py$'
p5010
asbasbasbasbasbasbasbag69
(g85
g71
NtRp5011
(dp5012
g74
(dp5013
sg83
g3723
sg76
(lp5014
g69
(g90
g71
NtRp5015
(dp5016
g74
(dp5017
g94
g95
ssg83
g5011
sg76
(lp5018
S'postprocessing'
p5019
asbag69
(g90
g71
NtRp5020
(dp5021
g74
(dp5022
g101
g102
ssg83
g5011
sg76
(lp5023
S':'
asbag69
(g90
g71
NtRp5024
(dp5025
g74
(dp5026
sg83
g5011
sg76
(lp5027
g69
(g70
g71
NtRp5028
(dp5029
g74
(dp5030
g82
I5
ssg83
g5024
sg76
(lp5031
g69
(g78
g71
NtRp5032
(dp5033
g74
(dp5034
g82
I4
ssg83
Nsg76
(lp5035
sbasbasbasbag69
(g85
g71
NtRp5036
(dp5037
g74
(dp5038
sg83
g3723
sg76
(lp5039
g69
(g90
g71
NtRp5040
(dp5041
g74
(dp5042
g94
g95
ssg83
g5036
sg76
(lp5043
S'session_cookie_expires'
p5044
asbag69
(g90
g71
NtRp5045
(dp5046
g74
(dp5047
g101
g102
ssg83
g5036
sg76
(lp5048
S':'
asbag69
(g90
g71
NtRp5049
(dp5050
g74
(dp5051
sg83
g5036
sg76
(lp5052
g69
(g70
g71
NtRp5053
(dp5054
g74
(dp5055
g82
I5
ssg83
g5049
sg76
(lp5056
S'None'
p5057
asbasbasbag69
(g85
g71
NtRp5058
(dp5059
g74
(dp5060
sg83
g3723
sg76
(lp5061
g69
(g90
g71
NtRp5062
(dp5063
g74
(dp5064
g94
g95
ssg83
g5058
sg76
(lp5065
S'session_data_name'
p5066
asbag69
(g90
g71
NtRp5067
(dp5068
g74
(dp5069
g101
g102
ssg83
g5058
sg76
(lp5070
S':'
asbag69
(g90
g71
NtRp5071
(dp5072
g74
(dp5073
sg83
g5058
sg76
(lp5074
g69
(g70
g71
NtRp5075
(dp5076
g74
(dp5077
g82
I5
ssg83
g5071
sg76
(lp5078
S'session_data_music'
p5079
asbasbasbag69
(g85
g71
NtRp5080
(dp5081
g74
(dp5082
sg83
g3723
sg76
(lp5083
g69
(g90
g71
NtRp5084
(dp5085
g74
(dp5086
g94
g95
ssg83
g5080
sg76
(lp5087
S'session_file'
p5088
asbag69
(g90
g71
NtRp5089
(dp5090
g74
(dp5091
g101
g102
ssg83
g5080
sg76
(lp5092
S':'
asbag69
(g90
g71
NtRp5093
(dp5094
g74
(dp5095
sg83
g5080
sg76
(lp5096
g69
(g70
g71
NtRp5097
(dp5098
g74
(dp5099
g82
I5
ssg83
g5093
sg76
(lp5100
S"<open file '/home/wionel/Desktop/web2py/applications/music/sessions/127.0.0.1-adc6eb33-f19b-4659-bd7d-4019f40bbf7e', mode 'rb+' at 0x7f80e42196f0>"
p5101
asbasbasbag69
(g85
g71
NtRp5102
(dp5103
g74
(dp5104
sg83
g3723
sg76
(lp5105
g69
(g90
g71
NtRp5106
(dp5107
g74
(dp5108
g94
g95
ssg83
g5102
sg76
(lp5109
S'session_filename'
p5110
asbag69
(g90
g71
NtRp5111
(dp5112
g74
(dp5113
g101
g102
ssg83
g5102
sg76
(lp5114
S':'
asbag69
(g90
g71
NtRp5115
(dp5116
g74
(dp5117
sg83
g5102
sg76
(lp5118
g69
(g70
g71
NtRp5119
(dp5120
g74
(dp5121
g82
I5
ssg83
g5115
sg76
(lp5122
S'/home/wionel/Desktop/web2py/applications/music/sessions/127.0.0.1-adc6eb33-f19b-4659-bd7d-4019f40bbf7e'
p5123
asbasbasbag69
(g85
g71
NtRp5124
(dp5125
g74
(dp5126
sg83
g3723
sg76
(lp5127
g69
(g90
g71
NtRp5128
(dp5129
g74
(dp5130
g94
g95
ssg83
g5124
sg76
(lp5131
S'session_id'
p5132
asbag69
(g90
g71
NtRp5133
(dp5134
g74
(dp5135
g101
g102
ssg83
g5124
sg76
(lp5136
S':'
asbag69
(g90
g71
NtRp5137
(dp5138
g74
(dp5139
sg83
g5124
sg76
(lp5140
g69
(g70
g71
NtRp5141
(dp5142
g74
(dp5143
g82
I5
ssg83
g5137
sg76
(lp5144
g487
asbasbasbag69
(g85
g71
NtRp5145
(dp5146
g74
(dp5147
sg83
g3723
sg76
(lp5148
g69
(g90
g71
NtRp5149
(dp5150
g74
(dp5151
g94
g95
ssg83
g5145
sg76
(lp5152
S'session_id_name'
p5153
asbag69
(g90
g71
NtRp5154
(dp5155
g74
(dp5156
g101
g102
ssg83
g5145
sg76
(lp5157
S':'
asbag69
(g90
g71
NtRp5158
(dp5159
g74
(dp5160
sg83
g5145
sg76
(lp5161
g69
(g70
g71
NtRp5162
(dp5163
g74
(dp5164
g82
I5
ssg83
g5158
sg76
(lp5165
g3780
asbasbasbag69
(g85
g71
NtRp5166
(dp5167
g74
(dp5168
sg83
g3723
sg76
(lp5169
g69
(g90
g71
NtRp5170
(dp5171
g74
(dp5172
g94
g95
ssg83
g5166
sg76
(lp5173
S'session_locked'
p5174
asbag69
(g90
g71
NtRp5175
(dp5176
g74
(dp5177
g101
g102
ssg83
g5166
sg76
(lp5178
S':'
asbag69
(g90
g71
NtRp5179
(dp5180
g74
(dp5181
sg83
g5166
sg76
(lp5182
g69
(g70
g71
NtRp5183
(dp5184
g74
(dp5185
g82
I5
ssg83
g5179
sg76
(lp5186
g1824
asbasbasbag69
(g85
g71
NtRp5187
(dp5188
g74
(dp5189
sg83
g3723
sg76
(lp5190
g69
(g90
g71
NtRp5191
(dp5192
g74
(dp5193
g94
g95
ssg83
g5187
sg76
(lp5194
S'session_new'
p5195
asbag69
(g90
g71
NtRp5196
(dp5197
g74
(dp5198
g101
g102
ssg83
g5187
sg76
(lp5199
S':'
asbag69
(g90
g71
NtRp5200
(dp5201
g74
(dp5202
sg83
g5187
sg76
(lp5203
g69
(g70
g71
NtRp5204
(dp5205
g74
(dp5206
g82
I5
ssg83
g5200
sg76
(lp5207
g112
asbasbasbag69
(g85
g71
NtRp5208
(dp5209
g74
(dp5210
sg83
g3723
sg76
(lp5211
g69
(g90
g71
NtRp5212
(dp5213
g74
(dp5214
g94
g95
ssg83
g5208
sg76
(lp5215
S'session_storage_type'
p5216
asbag69
(g90
g71
NtRp5217
(dp5218
g74
(dp5219
g101
g102
ssg83
g5208
sg76
(lp5220
S':'
asbag69
(g90
g71
NtRp5221
(dp5222
g74
(dp5223
sg83
g5208
sg76
(lp5224
g69
(g70
g71
NtRp5225
(dp5226
g74
(dp5227
g82
I5
ssg83
g5221
sg76
(lp5228
g3297
asbasbasbag69
(g85
g71
NtRp5229
(dp5230
g74
(dp5231
sg83
g3723
sg76
(lp5232
g69
(g90
g71
NtRp5233
(dp5234
g74
(dp5235
g94
g95
ssg83
g5229
sg76
(lp5236
S'status'
p5237
asbag69
(g90
g71
NtRp5238
(dp5239
g74
(dp5240
g101
g102
ssg83
g5229
sg76
(lp5241
S':'
asbag69
(g90
g71
NtRp5242
(dp5243
g74
(dp5244
sg83
g5229
sg76
(lp5245
g69
(g70
g71
NtRp5246
(dp5247
g74
(dp5248
g82
I5
ssg83
g5242
sg76
(lp5249
S'200'
p5250
asbasbasbag69
(g85
g71
NtRp5251
(dp5252
g74
(dp5253
sg83
g3723
sg76
(lp5254
g69
(g90
g71
NtRp5255
(dp5256
g74
(dp5257
g94
g95
ssg83
g5251
sg76
(lp5258
S'subtitle'
p5259
asbag69
(g90
g71
NtRp5260
(dp5261
g74
(dp5262
g101
g102
ssg83
g5251
sg76
(lp5263
S':'
asbag69
(g90
g71
NtRp5264
(dp5265
g74
(dp5266
sg83
g5251
sg76
(lp5267
g69
(g70
g71
NtRp5268
(dp5269
g74
(dp5270
g82
I5
ssg83
g5264
sg76
(lp5271
g4213
(S's\r\x00\x00\x00customize me!'
tRp5272
asbasbasbag69
(g85
g71
NtRp5273
(dp5274
g74
(dp5275
sg83
g3723
sg76
(lp5276
g69
(g90
g71
NtRp5277
(dp5278
g74
(dp5279
g94
g95
ssg83
g5273
sg76
(lp5280
S'title'
p5281
asbag69
(g90
g71
NtRp5282
(dp5283
g74
(dp5284
g101
g102
ssg83
g5273
sg76
(lp5285
S':'
asbag69
(g90
g71
NtRp5286
(dp5287
g74
(dp5288
sg83
g5273
sg76
(lp5289
g69
(g70
g71
NtRp5290
(dp5291
g74
(dp5292
g82
I5
ssg83
g5286
sg76
(lp5293
S'Music'
p5294
asbasbasbag69
(g85
g71
NtRp5295
(dp5296
g74
(dp5297
sg83
g3723
sg76
(lp5298
g69
(g90
g71
NtRp5299
(dp5300
g74
(dp5301
g94
g95
ssg83
g5295
sg76
(lp5302
S'view'
p5303
asbag69
(g90
g71
NtRp5304
(dp5305
g74
(dp5306
g101
g102
ssg83
g5295
sg76
(lp5307
S':'
asbag69
(g90
g71
NtRp5308
(dp5309
g74
(dp5310
sg83
g5295
sg76
(lp5311
g69
(g70
g71
NtRp5312
(dp5313
g74
(dp5314
g82
I5
ssg83
g5308
sg76
(lp5315
S'default/playlist.html'
p5316
asbasbasbasbasbsS'locals'
p5317
(dp5318
g4
S"'/home/wionel/Desktop/web2py/applications/music/views/default/playlist.html'"
p5319
sg6
S'\'response.write(\\\'<!DOCTYPE html>\\\\n<!-- paulirish....(\\\'"></script>\\\\n</body>\\\\n</html>\\\\n\\\', escape=False)\''
p5320
sssS'traceback'
p5321
S'Traceback (most recent call last):\n  File "/home/wionel/Desktop/web2py/gluon/restricted.py", line 211, in restricted\n    ccode = compile2(code, layer)\n  File "/home/wionel/Desktop/web2py/gluon/restricted.py", line 194, in compile2\n    return compile(code.rstrip().replace(\'\\r\\n\', \'\\n\') + \'\\n\', layer, \'exec\')\n  File "/home/wionel/Desktop/web2py/applications/music/views/default/playlist.html", line 111\n    if(\'songlist\' in globals():)\n                              ^\nSyntaxError: invalid syntax\n'
p5322
s.