(dp1
S'output'
p2
S"<type 'exceptions.NameError'> name 'playlistName' is not defined"
p3
sS'layer'
p4
S'/home/wionel/Desktop/web2py/applications/music/views/default/index.html'
p5
sS'code'
p6
S'left_sidebar_enabled,right_sidebar_enabled=False,(\'message\' in globals())\nresponse.write(\'\\n\', escape=False)\nresponse.write(\'<!DOCTYPE html>\\n<!-- paulirish.com/2008/conditional-stylesheets-vs-css-hacks-answer-neither/ -->\\n<!--[if lt IE 7]><html class="ie ie6 ie-lte9 ie-lte8 ie-lte7 no-js" lang="\', escape=False)\nresponse.write(T.accepted_language or \'en\')\nresponse.write(\'"> <![endif]-->\\n<!--[if IE 7]><html class="ie ie7 ie-lte9 ie-lte8 ie-lte7 no-js" lang="\', escape=False)\nresponse.write(T.accepted_language or \'en\')\nresponse.write(\'"> <![endif]-->\\n<!--[if IE 8]><html class="ie ie8 ie-lte9 ie-lte8 no-js" lang="\', escape=False)\nresponse.write(T.accepted_language or \'en\')\nresponse.write(\'"> <![endif]-->\\n<!--[if IE 9]><html class="ie9 ie-lte9 no-js" lang="\', escape=False)\nresponse.write(T.accepted_language or \'en\')\nresponse.write(\'"> <![endif]-->\\n<!--[if (gt IE 9)|!(IE)]><!--> <html class="no-js" lang="\', escape=False)\nresponse.write(T.accepted_language or \'en\')\nresponse.write(\'"> <!--<![endif]-->\\n<head>\\n  <meta charset="utf-8" />\\n  <!-- www.phpied.com/conditional-comments-block-downloads/ -->\\n  <!-- Always force latest IE rendering engine\\n       (even in intranet) & Chrome Frame\\n       Remove this if you use the .htaccess -->\\n  <!--[if IE]>\\n      <meta http-equiv="X-UA-Compatible" content="IE=edge\', escape=False)\nresponse.write(not request.is_local and \',chrome=1\' or \'\')\nresponse.write(\'">\\n      <![endif]-->\\n\\n  <title>\', escape=False)\nresponse.write(response.title or request.application)\nresponse.write(\'</title>\\n\\n  <!-- http://dev.w3.org/html5/markup/meta.name.html -->\\n  <meta name="application-name" content="\', escape=False)\nresponse.write(request.application)\nresponse.write(\'" />\\n\\n  <!-- Speaking of Google, don\\\'t forget to set your site up:\\n       http://google.com/webmasters -->\\n  <meta name="google-site-verification" content="" />\\n\\n  <!--  Mobile Viewport Fix\\n        j.mp/mobileviewport & davidbcalhoun.com/2010/viewport-metatag\\n        device-width: Occupy full width of the screen in its current orientation\\n        initial-scale = 1.0 retains dimensions instead of zooming out if page height > device height\\n        user-scalable = yes allows the user to zoom in -->\\n  <meta name="viewport" content="width=device-width, initial-scale=1.0">\\n\\n  <link rel="shortcut icon" href="\', escape=False)\nresponse.write(URL(\'static\',\'images/favicon.ico\'))\nresponse.write(\'" type="image/x-icon">\\n  <link rel="apple-touch-icon" href="\', escape=False)\nresponse.write(URL(\'static\',\'images/favicon.png\'))\nresponse.write(\'">\\n\\n  <!-- All JavaScript at the bottom, except for Modernizr which enables\\n       HTML5 elements & feature detects -->\\n  <script src="\', escape=False)\nresponse.write(URL(\'static\',\'js/modernizr.custom.js\'))\nresponse.write(\'"></script>\\n  <script src="\', escape=False)\nresponse.write(URL(\'static\',\'js/music.js\'))\nresponse.write(\'"></script>\\n  <!-- include stylesheets -->\\n  \', escape=False)\nresponse.files.append(URL(\'static\',\'css/web2py.css\'))\nresponse.files.append(URL(\'static\',\'css/bootstrap.min.css\'))\nresponse.files.append(URL(\'static\',\'css/bootstrap-responsive.min.css\'))\nresponse.files.append(URL(\'static\',\'css/web2py_bootstrap.css\'))\nresponse.write(\'\\n\\n  \', escape=False)\nresponse.write(\'<script type="text/javascript"><!--\\n    // These variables are used by the web2py_ajax_init function in web2py_ajax.js (which is loaded below).\\n    var w2p_ajax_confirm_message = "\', escape=False)\nresponse.write(T(\'Are you sure you want to delete this object?\'))\nresponse.write(\'";\\n    var w2p_ajax_date_format = "\', escape=False)\nresponse.write(T(\'%Y-%m-%d\'))\nresponse.write(\'";\\n    var w2p_ajax_datetime_format = "\', escape=False)\nresponse.write(T(\'%Y-%m-%d %H:%M:%S\'))\nresponse.write(\'";\\n    //--></script>\\n\', escape=False)\nresponse.files.insert(0,URL(\'static\',\'js/jquery.js\'))\nresponse.files.insert(1,URL(\'static\',\'css/calendar.css\'))\nresponse.files.insert(2,URL(\'static\',\'js/calendar.js\'))\nresponse.files.insert(3,URL(\'static\',\'js/web2py.js\'))\nresponse.include_meta()\nresponse.include_files()\nresponse.write(\'\\n\', escape=False)\nresponse.write(\'\\n\\n  \', escape=False)\n# using sidebars need to know what sidebar you want to use\nleft_sidebar_enabled = globals().get(\'left_sidebar_enabled\',False)\nright_sidebar_enabled = globals().get(\'right_sidebar_enabled\',False)\nmiddle_columns = {0:\'span12\',1:\'span9\',2:\'span6\'}[\n(left_sidebar_enabled and 1 or 0)+(right_sidebar_enabled and 1 or 0)]\nresponse.write(\'\\n\\n  <!-- uncomment here to load jquery-ui\\n       <link rel="stylesheet" href="http://ajax.googleapis.com/ajax/libs/jqueryui/1.8.16/themes/base/jquery-ui.css" type="text/css" media="all" />\\n       <script src="http://ajax.googleapis.com/ajax/libs/jqueryui/1.8.16/jquery-ui.min.js" type="text/javascript"></script>\\n       uncomment to load jquery-ui //-->\\n  <noscript><link href="\', escape=False)\nresponse.write(URL(\'static\', \'css/web2py_bootstrap_nojs.css\'))\nresponse.write(\'" rel="stylesheet" type="text/css" /></noscript>\\n  \', escape=False)\nresponse.write(\'\\n</head>\\n\\n<body>\\n  <!-- Navbar ================================================== -->\\n  <div class="navbar navbar-inverse navbar-fixed-top">\\n    <div class="flash">\', escape=False)\nresponse.write(response.flash or \'\')\nresponse.write(\'</div>\\n    <div class="navbar-inner">\\n      <div class="container">\\n        <!-- the next tag is necessary for bootstrap menus, do not remove -->\\n        <button type="button" class="btn btn-navbar" data-toggle="collapse" data-target=".nav-collapse">\\n          <span class="icon-bar"></span>\\n          <span class="icon-bar"></span>\\n          <span class="icon-bar"></span>\\n        </button>\\n        <!--a class="brand" href="http://www.web2py.com/"><b>web<span>2</span>py</b>&trade;&nbsp;</a-->\\n        <ul id="navbar" class="nav pull-right">\', escape=False)\nresponse.write(\'auth\' in globals() and auth.navbar(mode="dropdown") or \'\')\nresponse.write(\'</ul>\\n        <div class="nav-collapse">\\n          <ul class="nav">\\n\\t\\t\\t<li>\\n\\t\\t\\t\\t<a href="/music/default/index">Home</a>\\n\\t\\t\\t</li>\\n          </ul>\\n          \', escape=False)\n#is_mobile=request.user_agent().is_mobile\nresponse.write(\'\\n          \', escape=False)\n#if response.menu:\nresponse.write(\'\\n          \', escape=False)\n#=MENU(response.menu, _class=\'mobile-menu nav\' if is_mobile else \'nav\',mobile=is_mobile,li_class=\'dropdown\',ul_class=\'dropdown-menu\')\nresponse.write(\'\\n          \', escape=False)\n#pass\nresponse.write(\'\\n        </div><!--/.nav-collapse -->\\n      </div>\\n    </div>\\n  </div><!--/top navbar -->\\n\\n  <div class="container">\\n    <!-- Masthead ================================================== -->\\n    <header class="mastheader row" id="header">\\n        <div class="span12">\\n            <div class="page-header" style="margin:0" >\\n                <center><h1>\\n                    \', escape=False)\n#=response.title or request.application\nresponse.write(\'\\n                    Music @ IIIT\\n                    <small>\', escape=False)\n#=response.subtitle or \'\'\nresponse.write(\'</small>\\n                    </h1></center>\\n            </div>\\n        </div>\\n    </header>\\n\\n    <section id="main" class="main row">\\n\\n        \', escape=False)\nif left_sidebar_enabled:\n    response.write(\'\\n        \\n        <div class="span3 left-sidebar">\\n            \', escape=False)\n    response.write(\'\\n            <h3>Left Sidebar</h3>\\n            <p></p>\\n            \', escape=False)\n    response.write(\'\\n        </div>\\n        \\n        \', escape=False)\n    pass\nresponse.write(\'\\n\\t\\t\\n        <div class="\', escape=False)\nresponse.write(middle_columns)\nresponse.write(\'">\\n            \', escape=False)\nresponse.write(\'\\n            \', escape=False)\nresponse.write(\'\\n\', escape=False)\nif \'isloggedin\' in globals():\n    response.write(\'\\n\\t\', escape=False)\n    if \'playlist_exist\' in globals():\n        response.write(\'\\n<h1  style="color:darkgreen" >\', escape=False)\n        response.write(playlistName)\n        response.write(\'  \\n\\t\\t\\t \', escape=False)\n        if \'visitor\' not in globals():\n            response.write(\'\\n\\t\\t\\t\\t<a style="margin-left :20px"  class="btn" href="\', escape=False)\n            response.write(URL(\'default\',\'playlist\'))\n            response.write(\'">Edit Playlist</a>\\n    \\t\\t\', escape=False)\n        else:\n            response.write(\'\\n    \\t\\t\\t<a style="margin-left :20px"  class="btn" href="\', escape=False)\n            response.write(URL(\'default\',\'index\'))\n            response.write(\'">Go to home</a>\\n\\t\\t\\t\', escape=False)\n            pass\n        response.write(\'\\n\\t\\t\\t\\n\\t\\t\\t</h1>\\n<div  style=" border:1px solid; border-radius:5px;padding:8px; text-align:left;cursor: auto;float: left; height: 300px; background: none repeat scroll 0% 0% lightyellow; width: 35%;">  \\n             <h3>Playlist Songs : <a id="all" onclick="my_play_all();" class="btn">Play all</a></h3>\\n            <div id="available_songs" style="height:230px;overflow:auto;">\\n                 \', escape=False)\n        namelist = []\n        response.write(\'\\n                 \', escape=False)\n        urllist = []\n        response.write(\'\\n                 \', escape=False)\n        for song in songs :\n            response.write(\'\\n                <div  style="width:95%;padding-top:10px;height:40px;padding-left:5px;border-radius:5px;cursor:pointer;margin-top:5px;background:lightblue" id="\', escape=False)\n            response.write(song.id)\n            response.write(\'">\\n                        \\t<span>\\n                    \\t\\t\\t\', escape=False)\n            response.write(song.title)\n            response.write(\'\\n                                \', escape=False)\n            namelist.append(song.title)\n            response.write(\'\\n                                \', escape=False)\n            urllist.append(URL(\'download\', args=song.file))\n            response.write(\'                \\n\\t            \\t\\t\\t</span>\\n\\t\\t\\t\\t\\t\\t\\t\\t                    \\n                    <button style="height:30px" onclick="play(\\\'\', escape=False)\n            response.write(URL(\'download\', args=song.file))\n            response.write("\',\'", escape=False)\n            response.write(song.title)\n            response.write("\',\'", escape=False)\n            response.write(str(song.id))\n            response.write(\'\\\')">play</button>\\n                  </div>\\n               \', escape=False)\n            pass\n        response.write(\'\\n             </div>\\n        </div>\\t\\n\\t\\t <div style="margin-left:40%;">\\n             \\t<div id="player" class="btn" style="display:table-cell;vertical-align:middle;width:50%;height:75px">\\n                    <div style="margin-bottom:10px;margin-left:2px;margin-right:14px;float:left">\\n                    \\tNow Playing : \\n                    </div>\\n                    <div style="text-align:left">\\n                        <span style="font-weight: bold;">\', escape=False)\n        response.write(songs[0].title)\n        response.write(\'</span>\\n                    </div>\\n                    <audio style="width:500px" onended="next(\\\'\', escape=False)\n        response.write(songs[0].id)\n        response.write(\'\\\')"  controls="controls" autoplay="autoplay">\\n  \\t\\t\\t\\t\\t\\t<!--source src="\', escape=False)\n        #=URL(\'download\', args=songs[0].file)\n        response.write(\'" type="audio/mp3"-->\\n  \\t\\t\\t\\t\\t\\t<source src="\', escape=False)\n        response.write(URL(\'download\', args=songs[0].file))\n        response.write(\'" type="audio/ogg">\\n\\t\\t\\t\\t\\t\\t\\tYour browser does not support the audio element.\\n\\t     \\t\\t \\t</audio>\\n\\t\\t\\t \\t</div>\\n\\t\\t\\n\\t\\t<input type="hidden" id="songlist" value="\', escape=False)\n        response.write(songlist)\n        response.write(\'" />\\n\\t\\t<input type="hidden" id="namelist" value="\', escape=False)\n        response.write(namelist)\n        response.write(\'" />\\n\\t\\t<input type="hidden" id="urllist" value="\', escape=False)\n        response.write(urllist)\n        response.write(\'" />\\n\\t\\t<h3>Listen other\\\'s playlists :</h3>\\n\\t\\t<div>\\n\\t\\t\\t\', escape=False)\n        if \'public_playlists\' in globals():\n            response.write(\'\\n\\t\\t        <div style="background-color:lightyellow;border: 1px solid;border-radius: 5px;min-height:171px;max-width:100%;overflow:auto">\\n        \\t    \', escape=False)\n            for public_playlist in public_playlists:\n                response.write(\'\\n            \\t\\t<a class="btn" href="\', escape=False)\n                response.write(URL(\'default\',\'index\',args=public_playlist.user_id))\n                response.write(\'"  style="margin:5px;border:1px solid;border-radius:5px" > \', escape=False)\n                response.write(public_playlist.name)\n                response.write(\' </a>\\n            \\t\', escape=False)\n                pass\n            response.write(\'\\n        \\t</div>\\n\\t\\t\\t\', escape=False)\n        else:\n            response.write(\'\\n\\t\\t\\t    \\t<h5 style="color:red" >Sorry, No public playlists pvailable.</h5>\\n\\t\\t\\t\', escape=False)\n            pass\n        response.write(\'\\n\\t\\t</div>\\n\\t</div>\\n\\t\', escape=False)\n    else:\n        response.write(\'\\n\\t\\t<span>\', escape=False)\n        response.write(XML(T(\'Create playlist of ur favourite songs by clicking %s\', A("here",_href=URL(\'default\',\'playlist\')))))\n        response.write("</span>\\n\\t\\t<h3>Listen other\'s playlists :</h3>\\n\\t\\t<div>\\n\\t\\t\\t", escape=False)\n        if \'public_playlists\' in globals():\n            response.write(\'\\n\\t\\t        <div style="background-color:lightyellow;border: 1px solid;border-radius: 5px;min-height:171px;max-width:100%;overflow:auto">\\n        \\t    \', escape=False)\n            for public_playlist in public_playlists:\n                response.write(\'\\n            \\t\\t<a class="btn" href="\', escape=False)\n                response.write(URL(\'default\',\'index\',args=public_playlist.user_id))\n                response.write(\'"  style="margin:5px;border:1px solid;border-radius:5px" > \', escape=False)\n                response.write(public_playlist.name)\n                response.write(\' </a>\\n            \\t\', escape=False)\n                pass\n            response.write(\'\\n        </div>\\n        \', escape=False)\n        else:\n            response.write(\'\\n        \\t<h5 style="color:red" >Sorry, No public playlists pvailable.</h5>\\n\\t\\t\', escape=False)\n            pass\n        response.write(\'\\n\\t\', escape=False)\n        pass\n    response.write(\'\\n\', escape=False)\nelse:\n    response.write(\'\\n\\t<h3>\', escape=False)\n    response.write(message)\n    response.write(\'</h3>\\n    <span>\', escape=False)\n    response.write(XML(T(\'Create playlist of ur favourite songs by clicking %s\', A("here",_href=request.env.path_info))))\n    response.write(\'</span>\\n\\t<h3>Check out few of the public playlists :</h3>\\n\\t<div>\\n\\t\\t\', escape=False)\n    if \'public_playlists\' in globals():\n        response.write(\'\\n\\t        <div style="background-color:lightyellow;border: 1px solid;border-radius: 5px;min-height:171px;max-width:100%;overflow:auto">\\n            \', escape=False)\n        for public_playlist in public_playlists:\n            response.write(\'\\n            \\t<a class="btn" href="\', escape=False)\n            response.write(URL(\'default\',\'index\',args=public_playlist.user_id))\n            response.write(\'"  style="margin:5px;border:1px solid;border-radius:5px" > \', escape=False)\n            response.write(public_playlist.name)\n            response.write(\' </a>\\n            \', escape=False)\n            pass\n        response.write(\'\\n        </div>\\n\\t\\t\', escape=False)\n    else:\n        response.write(\'\\n    \\t    <h5 style="color:red" >Sorry, No public playlists pvailable.</h5>\\n\\t\\t\', escape=False)\n        pass\n    response.write(\'\\n\\t</div>\\n\', escape=False)\n    pass\nresponse.write(\'\\n\\n\', escape=False)\nresponse.write(\'\\n\', escape=False)\nresponse.write(\'\\n            \', escape=False)\nresponse.write(\'\\n        </div>\\n\\n        \', escape=False)\nif right_sidebar_enabled:\n    response.write(\'\\n        <div class="span3">\\n            \', escape=False)\n    response.write(\'\\n\', escape=False)\n    #=A(T("Administrative Interface"), _href=URL(\'admin\',\'default\',\'index\'), _class=\'btn\', _style=\'margin-top: 1em;\')\n    response.write(\'\\n\\n\', escape=False)\n    response.write(\'\\n        </div>\\n        \', escape=False)\n    pass\nresponse.write(\'\\n    </section><!--/main-->\\n    \\n\\n    <!-- Footer ================================================== -->\\n    <div class="row">\\n        <footer class="footer span12" id="footer">\\n            <div class="footer-content">\\n                \', escape=False)\nresponse.write(\' <!-- this is default footer -->\\n                <div class="copyright pull-left">\', escape=False)\nresponse.write(T(\'Copyright\'))\nresponse.write(\' &#169; \', escape=False)\nresponse.write(request.now.year)\nresponse.write(\'</div>\\n                <div id="poweredBy" class="pull-right">\\n                    \', escape=False)\nresponse.write(T(\'Powered by\'))\nresponse.write(\'\\n                    <a href="http://www.web2py.com/">web2py</a>\\n                </div>\\n                \', escape=False)\nresponse.write(\'\\n            </div>\\n        </footer>\\n    </div>\\n\\n  </div> <!-- /container -->\\n\\n  <!-- The javascript =============================================\\n       (Placed at the end of the document so the pages load faster) -->\\n  <script src="\', escape=False)\nresponse.write(URL(\'static\',\'js/bootstrap.min.js\'))\nresponse.write(\'"></script>\\n  <script src="\', escape=False)\nresponse.write(URL(\'static\',\'js/web2py_bootstrap.js\'))\nresponse.write(\'"></script>\\n  <!--[if lt IE 7 ]>\\n      <script src="\', escape=False)\nresponse.write(URL(\'static\',\'js/dd_belatedpng.js\'))\nresponse.write(\'"></script>\\n      <script> DD_belatedPNG.fix(\\\'img, .png_bg\\\'); //fix any <img> or .png_bg background-images </script>\\n      <![endif]-->\\n  \', escape=False)\nif response.google_analytics_id:\n    response.write(\'<script type="text/javascript"> var _gaq = _gaq || []; _gaq.push([\\\'_setAccount\\\', \\\'\', escape=False)\n    response.write(response.google_analytics_id)\n    response.write("\']); _gaq.push([\'_trackPageview\']); (function() { var ga = document.createElement(\'script\'); ga.type = \'text/javascript\'; ga.async = true; ga.src = (\'https:\' == document.location.protocol ? \'https://ssl\' : \'http://www\') + \'.google-analytics.com/ga.js\'; var s = document.getElementsByTagName(\'script\')[0]; s.parentNode.insertBefore(ga, s); })(); </script> ", escape=False)\n    pass\nresponse.write(\'\\n  <script src="\', escape=False)\nresponse.write(URL(\'static\',\'js/share.js\',vars=dict(static=URL(\'static\',\'images\'))))\nresponse.write(\'"></script>\\n</body>\\n</html>\\n\', escape=False)'
p7
sS'snapshot'
p8
(dp9
S'exception'
p10
(dp11
S'__hash__'
p12
S"<method-wrapper '__hash__' of exceptions.NameError object>"
p13
sS'__setattr__'
p14
S"<method-wrapper '__setattr__' of exceptions.NameError object>"
p15
sS'__reduce_ex__'
p16
S'<built-in method __reduce_ex__ of exceptions.NameError object>'
p17
sS'__getslice__'
p18
S"<method-wrapper '__getslice__' of exceptions.NameError object>"
p19
sS'__getitem__'
p20
S"<method-wrapper '__getitem__' of exceptions.NameError object>"
p21
sS'__setstate__'
p22
S'<built-in method __setstate__ of exceptions.NameError object>'
p23
sS'args'
p24
S'("name \'playlistName\' is not defined",)'
p25
sS'__reduce__'
p26
S'<built-in method __reduce__ of exceptions.NameError object>'
p27
sS'__str__'
p28
S"<method-wrapper '__str__' of exceptions.NameError object>"
p29
sS'__format__'
p30
S'<built-in method __format__ of exceptions.NameError object>'
p31
sS'__getattribute__'
p32
S"<method-wrapper '__getattribute__' of exceptions.NameError object>"
p33
sS'__class__'
p34
S"<type 'exceptions.NameError'>"
p35
sS'__unicode__'
p36
S'<built-in method __unicode__ of exceptions.NameError object>'
p37
sS'__delattr__'
p38
S"<method-wrapper '__delattr__' of exceptions.NameError object>"
p39
sS'__subclasshook__'
p40
S'<built-in method __subclasshook__ of type object>'
p41
sS'__repr__'
p42
S"<method-wrapper '__repr__' of exceptions.NameError object>"
p43
sS'__dict__'
p44
S'{}'
p45
sS'__sizeof__'
p46
S'<built-in method __sizeof__ of exceptions.NameError object>'
p47
sS'__doc__'
p48
S"'Name not found globally.'"
p49
sS'__init__'
p50
S"<method-wrapper '__init__' of exceptions.NameError object>"
p51
sS'__new__'
p52
S'<built-in method __new__ of type object>'
p53
ssS'evalue'
p54
S"name 'playlistName' is not defined"
p55
sS'request'
p56
ccopy_reg
_reconstructor
p57
(cgluon.html
BEAUTIFY
p58
c__builtin__
object
p59
NtRp60
(dp61
S'attributes'
p62
(dp63
sS'components'
p64
(lp65
g57
(cgluon.html
TABLE
p66
g59
NtRp67
(dp68
g62
(dp69
S'level'
p70
I5
ssS'parent'
p71
Nsg64
(lp72
g57
(cgluon.html
TR
p73
g59
NtRp74
(dp75
g62
(dp76
sg71
g67
sg64
(lp77
g57
(cgluon.html
TD
p78
g59
NtRp79
(dp80
g62
(dp81
S'_style'
p82
S'font-weight:bold;vertical-align:top'
p83
ssg71
g74
sg64
(lp84
S'ajax'
p85
asbag57
(g78
g59
NtRp86
(dp87
g62
(dp88
S'_valign'
p89
S'top'
p90
ssg71
g74
sg64
(lp91
S':'
asbag57
(g78
g59
NtRp92
(dp93
g62
(dp94
sg71
g74
sg64
(lp95
g57
(g58
g59
NtRp96
(dp97
g62
(dp98
g70
I5
ssg71
g92
sg64
(lp99
S'False'
p100
asbasbasbag57
(g73
g59
NtRp101
(dp102
g62
(dp103
sg71
g67
sg64
(lp104
g57
(g78
g59
NtRp105
(dp106
g62
(dp107
g82
g83
ssg71
g101
sg64
(lp108
S'application'
p109
asbag57
(g78
g59
NtRp110
(dp111
g62
(dp112
g89
g90
ssg71
g101
sg64
(lp113
S':'
asbag57
(g78
g59
NtRp114
(dp115
g62
(dp116
sg71
g101
sg64
(lp117
g57
(g58
g59
NtRp118
(dp119
g62
(dp120
g70
I5
ssg71
g114
sg64
(lp121
S'music'
p122
asbasbasbag57
(g73
g59
NtRp123
(dp124
g62
(dp125
sg71
g67
sg64
(lp126
g57
(g78
g59
NtRp127
(dp128
g62
(dp129
g82
g83
ssg71
g123
sg64
(lp130
g24
asbag57
(g78
g59
NtRp131
(dp132
g62
(dp133
g89
g90
ssg71
g123
sg64
(lp134
S':'
asbag57
(g78
g59
NtRp135
(dp136
g62
(dp137
sg71
g123
sg64
(lp138
g57
(g58
g59
NtRp139
(dp140
g62
(dp141
g70
I5
ssg71
g135
sg64
(lp142
g57
(g66
g59
NtRp143
(dp144
g62
(dp145
g70
I4
ssg71
Nsg64
(lp146
g57
(g73
g59
NtRp147
(dp148
g62
(dp149
sg71
g143
sg64
(lp150
g57
(g78
g59
NtRp151
(dp152
g62
(dp153
sg71
g147
sg64
(lp154
g57
(g58
g59
NtRp155
(dp156
g62
(dp157
g70
I4
ssg71
g151
sg64
(lp158
S'22'
p159
asbasbasbasbasbasbasbag57
(g73
g59
NtRp160
(dp161
g62
(dp162
sg71
g67
sg64
(lp163
g57
(g78
g59
NtRp164
(dp165
g62
(dp166
g82
g83
ssg71
g160
sg64
(lp167
S'body'
p168
asbag57
(g78
g59
NtRp169
(dp170
g62
(dp171
g89
g90
ssg71
g160
sg64
(lp172
S':'
asbag57
(g78
g59
NtRp173
(dp174
g62
(dp175
sg71
g160
sg64
(lp176
g57
(g58
g59
NtRp177
(dp178
g62
(dp179
g70
I5
ssg71
g173
sg64
(lp180
S'<cStringIO.StringO object at 0x1b80ab0>'
p181
asbasbasbag57
(g73
g59
NtRp182
(dp183
g62
(dp184
sg71
g67
sg64
(lp185
g57
(g78
g59
NtRp186
(dp187
g62
(dp188
g82
g83
ssg71
g182
sg64
(lp189
S'cid'
p190
asbag57
(g78
g59
NtRp191
(dp192
g62
(dp193
g89
g90
ssg71
g182
sg64
(lp194
S':'
asbag57
(g78
g59
NtRp195
(dp196
g62
(dp197
sg71
g182
sg64
(lp198
g57
(g58
g59
NtRp199
(dp200
g62
(dp201
g70
I5
ssg71
g195
sg64
(lp202
S'None'
p203
asbasbasbag57
(g73
g59
NtRp204
(dp205
g62
(dp206
sg71
g67
sg64
(lp207
g57
(g78
g59
NtRp208
(dp209
g62
(dp210
g82
g83
ssg71
g204
sg64
(lp211
S'client'
p212
asbag57
(g78
g59
NtRp213
(dp214
g62
(dp215
g89
g90
ssg71
g204
sg64
(lp216
S':'
asbag57
(g78
g59
NtRp217
(dp218
g62
(dp219
sg71
g204
sg64
(lp220
g57
(g58
g59
NtRp221
(dp222
g62
(dp223
g70
I5
ssg71
g217
sg64
(lp224
S'127.0.0.1'
p225
asbasbasbag57
(g73
g59
NtRp226
(dp227
g62
(dp228
sg71
g67
sg64
(lp229
g57
(g78
g59
NtRp230
(dp231
g62
(dp232
g82
g83
ssg71
g226
sg64
(lp233
S'controller'
p234
asbag57
(g78
g59
NtRp235
(dp236
g62
(dp237
g89
g90
ssg71
g226
sg64
(lp238
S':'
asbag57
(g78
g59
NtRp239
(dp240
g62
(dp241
sg71
g226
sg64
(lp242
g57
(g58
g59
NtRp243
(dp244
g62
(dp245
g70
I5
ssg71
g239
sg64
(lp246
S'default'
p247
asbasbasbag57
(g73
g59
NtRp248
(dp249
g62
(dp250
sg71
g67
sg64
(lp251
g57
(g78
g59
NtRp252
(dp253
g62
(dp254
g82
g83
ssg71
g248
sg64
(lp255
S'cookies'
p256
asbag57
(g78
g59
NtRp257
(dp258
g62
(dp259
g89
g90
ssg71
g248
sg64
(lp260
S':'
asbag57
(g78
g59
NtRp261
(dp262
g62
(dp263
sg71
g248
sg64
(lp264
g57
(g58
g59
NtRp265
(dp266
g62
(dp267
g70
I5
ssg71
g261
sg64
(lp268
g57
(g66
g59
NtRp269
(dp270
g62
(dp271
g70
I4
ssg71
Nsg64
(lp272
g57
(g73
g59
NtRp273
(dp274
g62
(dp275
sg71
g269
sg64
(lp276
g57
(g78
g59
NtRp277
(dp278
g62
(dp279
g82
g83
ssg71
g273
sg64
(lp280
S'session_id_admin'
p281
asbag57
(g78
g59
NtRp282
(dp283
g62
(dp284
g89
g90
ssg71
g273
sg64
(lp285
S':'
asbag57
(g78
g59
NtRp286
(dp287
g62
(dp288
sg71
g273
sg64
(lp289
g57
(g58
g59
NtRp290
(dp291
g62
(dp292
g70
I4
ssg71
g286
sg64
(lp293
S'127.0.0.1-cc929a62-079e-404e-9c9f-efb75bb580b2'
p294
ag57
(g66
g59
NtRp295
(dp296
g62
(dp297
g70
I3
ssg71
Nsg64
(lp298
g57
(g73
g59
NtRp299
(dp300
g62
(dp301
sg71
g295
sg64
(lp302
g57
(g78
g59
NtRp303
(dp304
g62
(dp305
g82
g83
ssg71
g299
sg64
(lp306
S'comment'
p307
asbag57
(g78
g59
NtRp308
(dp309
g62
(dp310
g89
g90
ssg71
g299
sg64
(lp311
S':'
asbag57
(g78
g59
NtRp312
(dp313
g62
(dp314
sg71
g299
sg64
(lp315
g57
(g58
g59
NtRp316
(dp317
g62
(dp318
g70
I3
ssg71
g312
sg64
(lp319
S''
asbasbasbag57
(g73
g59
NtRp320
(dp321
g62
(dp322
sg71
g295
sg64
(lp323
g57
(g78
g59
NtRp324
(dp325
g62
(dp326
g82
g83
ssg71
g320
sg64
(lp327
S'domain'
p328
asbag57
(g78
g59
NtRp329
(dp330
g62
(dp331
g89
g90
ssg71
g320
sg64
(lp332
S':'
asbag57
(g78
g59
NtRp333
(dp334
g62
(dp335
sg71
g320
sg64
(lp336
g57
(g58
g59
NtRp337
(dp338
g62
(dp339
g70
I3
ssg71
g333
sg64
(lp340
S''
asbasbasbag57
(g73
g59
NtRp341
(dp342
g62
(dp343
sg71
g295
sg64
(lp344
g57
(g78
g59
NtRp345
(dp346
g62
(dp347
g82
g83
ssg71
g341
sg64
(lp348
S'expires'
p349
asbag57
(g78
g59
NtRp350
(dp351
g62
(dp352
g89
g90
ssg71
g341
sg64
(lp353
S':'
asbag57
(g78
g59
NtRp354
(dp355
g62
(dp356
sg71
g341
sg64
(lp357
g57
(g58
g59
NtRp358
(dp359
g62
(dp360
g70
I3
ssg71
g354
sg64
(lp361
S''
asbasbasbag57
(g73
g59
NtRp362
(dp363
g62
(dp364
sg71
g295
sg64
(lp365
g57
(g78
g59
NtRp366
(dp367
g62
(dp368
g82
g83
ssg71
g362
sg64
(lp369
S'httponly'
p370
asbag57
(g78
g59
NtRp371
(dp372
g62
(dp373
g89
g90
ssg71
g362
sg64
(lp374
S':'
asbag57
(g78
g59
NtRp375
(dp376
g62
(dp377
sg71
g362
sg64
(lp378
g57
(g58
g59
NtRp379
(dp380
g62
(dp381
g70
I3
ssg71
g375
sg64
(lp382
S''
asbasbasbag57
(g73
g59
NtRp383
(dp384
g62
(dp385
sg71
g295
sg64
(lp386
g57
(g78
g59
NtRp387
(dp388
g62
(dp389
g82
g83
ssg71
g383
sg64
(lp390
S'max-age'
p391
asbag57
(g78
g59
NtRp392
(dp393
g62
(dp394
g89
g90
ssg71
g383
sg64
(lp395
S':'
asbag57
(g78
g59
NtRp396
(dp397
g62
(dp398
sg71
g383
sg64
(lp399
g57
(g58
g59
NtRp400
(dp401
g62
(dp402
g70
I3
ssg71
g396
sg64
(lp403
S''
asbasbasbag57
(g73
g59
NtRp404
(dp405
g62
(dp406
sg71
g295
sg64
(lp407
g57
(g78
g59
NtRp408
(dp409
g62
(dp410
g82
g83
ssg71
g404
sg64
(lp411
S'path'
p412
asbag57
(g78
g59
NtRp413
(dp414
g62
(dp415
g89
g90
ssg71
g404
sg64
(lp416
S':'
asbag57
(g78
g59
NtRp417
(dp418
g62
(dp419
sg71
g404
sg64
(lp420
g57
(g58
g59
NtRp421
(dp422
g62
(dp423
g70
I3
ssg71
g417
sg64
(lp424
S''
asbasbasbag57
(g73
g59
NtRp425
(dp426
g62
(dp427
sg71
g295
sg64
(lp428
g57
(g78
g59
NtRp429
(dp430
g62
(dp431
g82
g83
ssg71
g425
sg64
(lp432
S'secure'
p433
asbag57
(g78
g59
NtRp434
(dp435
g62
(dp436
g89
g90
ssg71
g425
sg64
(lp437
S':'
asbag57
(g78
g59
NtRp438
(dp439
g62
(dp440
sg71
g425
sg64
(lp441
g57
(g58
g59
NtRp442
(dp443
g62
(dp444
g70
I3
ssg71
g438
sg64
(lp445
S''
asbasbasbag57
(g73
g59
NtRp446
(dp447
g62
(dp448
sg71
g295
sg64
(lp449
g57
(g78
g59
NtRp450
(dp451
g62
(dp452
g82
g83
ssg71
g446
sg64
(lp453
S'version'
p454
asbag57
(g78
g59
NtRp455
(dp456
g62
(dp457
g89
g90
ssg71
g446
sg64
(lp458
S':'
asbag57
(g78
g59
NtRp459
(dp460
g62
(dp461
sg71
g446
sg64
(lp462
g57
(g58
g59
NtRp463
(dp464
g62
(dp465
g70
I3
ssg71
g459
sg64
(lp466
S''
asbasbasbasbasbasbasbag57
(g73
g59
NtRp467
(dp468
g62
(dp469
sg71
g269
sg64
(lp470
g57
(g78
g59
NtRp471
(dp472
g62
(dp473
g82
g83
ssg71
g467
sg64
(lp474
S'session_id_music'
p475
asbag57
(g78
g59
NtRp476
(dp477
g62
(dp478
g89
g90
ssg71
g467
sg64
(lp479
S':'
asbag57
(g78
g59
NtRp480
(dp481
g62
(dp482
sg71
g467
sg64
(lp483
g57
(g58
g59
NtRp484
(dp485
g62
(dp486
g70
I4
ssg71
g480
sg64
(lp487
S'127.0.0.1-3c0cad68-c677-410a-bc7f-6cdf12352d80'
p488
ag57
(g66
g59
NtRp489
(dp490
g62
(dp491
g70
I3
ssg71
Nsg64
(lp492
g57
(g73
g59
NtRp493
(dp494
g62
(dp495
sg71
g489
sg64
(lp496
g57
(g78
g59
NtRp497
(dp498
g62
(dp499
g82
g83
ssg71
g493
sg64
(lp500
g307
asbag57
(g78
g59
NtRp501
(dp502
g62
(dp503
g89
g90
ssg71
g493
sg64
(lp504
S':'
asbag57
(g78
g59
NtRp505
(dp506
g62
(dp507
sg71
g493
sg64
(lp508
g57
(g58
g59
NtRp509
(dp510
g62
(dp511
g70
I3
ssg71
g505
sg64
(lp512
S''
asbasbasbag57
(g73
g59
NtRp513
(dp514
g62
(dp515
sg71
g489
sg64
(lp516
g57
(g78
g59
NtRp517
(dp518
g62
(dp519
g82
g83
ssg71
g513
sg64
(lp520
g328
asbag57
(g78
g59
NtRp521
(dp522
g62
(dp523
g89
g90
ssg71
g513
sg64
(lp524
S':'
asbag57
(g78
g59
NtRp525
(dp526
g62
(dp527
sg71
g513
sg64
(lp528
g57
(g58
g59
NtRp529
(dp530
g62
(dp531
g70
I3
ssg71
g525
sg64
(lp532
S''
asbasbasbag57
(g73
g59
NtRp533
(dp534
g62
(dp535
sg71
g489
sg64
(lp536
g57
(g78
g59
NtRp537
(dp538
g62
(dp539
g82
g83
ssg71
g533
sg64
(lp540
g349
asbag57
(g78
g59
NtRp541
(dp542
g62
(dp543
g89
g90
ssg71
g533
sg64
(lp544
S':'
asbag57
(g78
g59
NtRp545
(dp546
g62
(dp547
sg71
g533
sg64
(lp548
g57
(g58
g59
NtRp549
(dp550
g62
(dp551
g70
I3
ssg71
g545
sg64
(lp552
S''
asbasbasbag57
(g73
g59
NtRp553
(dp554
g62
(dp555
sg71
g489
sg64
(lp556
g57
(g78
g59
NtRp557
(dp558
g62
(dp559
g82
g83
ssg71
g553
sg64
(lp560
g370
asbag57
(g78
g59
NtRp561
(dp562
g62
(dp563
g89
g90
ssg71
g553
sg64
(lp564
S':'
asbag57
(g78
g59
NtRp565
(dp566
g62
(dp567
sg71
g553
sg64
(lp568
g57
(g58
g59
NtRp569
(dp570
g62
(dp571
g70
I3
ssg71
g565
sg64
(lp572
S''
asbasbasbag57
(g73
g59
NtRp573
(dp574
g62
(dp575
sg71
g489
sg64
(lp576
g57
(g78
g59
NtRp577
(dp578
g62
(dp579
g82
g83
ssg71
g573
sg64
(lp580
g391
asbag57
(g78
g59
NtRp581
(dp582
g62
(dp583
g89
g90
ssg71
g573
sg64
(lp584
S':'
asbag57
(g78
g59
NtRp585
(dp586
g62
(dp587
sg71
g573
sg64
(lp588
g57
(g58
g59
NtRp589
(dp590
g62
(dp591
g70
I3
ssg71
g585
sg64
(lp592
S''
asbasbasbag57
(g73
g59
NtRp593
(dp594
g62
(dp595
sg71
g489
sg64
(lp596
g57
(g78
g59
NtRp597
(dp598
g62
(dp599
g82
g83
ssg71
g593
sg64
(lp600
g412
asbag57
(g78
g59
NtRp601
(dp602
g62
(dp603
g89
g90
ssg71
g593
sg64
(lp604
S':'
asbag57
(g78
g59
NtRp605
(dp606
g62
(dp607
sg71
g593
sg64
(lp608
g57
(g58
g59
NtRp609
(dp610
g62
(dp611
g70
I3
ssg71
g605
sg64
(lp612
S''
asbasbasbag57
(g73
g59
NtRp613
(dp614
g62
(dp615
sg71
g489
sg64
(lp616
g57
(g78
g59
NtRp617
(dp618
g62
(dp619
g82
g83
ssg71
g613
sg64
(lp620
g433
asbag57
(g78
g59
NtRp621
(dp622
g62
(dp623
g89
g90
ssg71
g613
sg64
(lp624
S':'
asbag57
(g78
g59
NtRp625
(dp626
g62
(dp627
sg71
g613
sg64
(lp628
g57
(g58
g59
NtRp629
(dp630
g62
(dp631
g70
I3
ssg71
g625
sg64
(lp632
S''
asbasbasbag57
(g73
g59
NtRp633
(dp634
g62
(dp635
sg71
g489
sg64
(lp636
g57
(g78
g59
NtRp637
(dp638
g62
(dp639
g82
g83
ssg71
g633
sg64
(lp640
g454
asbag57
(g78
g59
NtRp641
(dp642
g62
(dp643
g89
g90
ssg71
g633
sg64
(lp644
S':'
asbag57
(g78
g59
NtRp645
(dp646
g62
(dp647
sg71
g633
sg64
(lp648
g57
(g58
g59
NtRp649
(dp650
g62
(dp651
g70
I3
ssg71
g645
sg64
(lp652
S''
asbasbasbasbasbasbasbasbasbasbasbag57
(g73
g59
NtRp653
(dp654
g62
(dp655
sg71
g67
sg64
(lp656
g57
(g78
g59
NtRp657
(dp658
g62
(dp659
g82
g83
ssg71
g653
sg64
(lp660
S'env'
p661
asbag57
(g78
g59
NtRp662
(dp663
g62
(dp664
g89
g90
ssg71
g653
sg64
(lp665
S':'
asbag57
(g78
g59
NtRp666
(dp667
g62
(dp668
sg71
g653
sg64
(lp669
g57
(g58
g59
NtRp670
(dp671
g62
(dp672
g70
I5
ssg71
g666
sg64
(lp673
g57
(g66
g59
NtRp674
(dp675
g62
(dp676
g70
I4
ssg71
Nsg64
(lp677
g57
(g73
g59
NtRp678
(dp679
g62
(dp680
sg71
g674
sg64
(lp681
g57
(g78
g59
NtRp682
(dp683
g62
(dp684
g82
g83
ssg71
g678
sg64
(lp685
S'app_folders'
p686
asbag57
(g78
g59
NtRp687
(dp688
g62
(dp689
g89
g90
ssg71
g678
sg64
(lp690
S':'
asbag57
(g78
g59
NtRp691
(dp692
g62
(dp693
sg71
g678
sg64
(lp694
g57
(g58
g59
NtRp695
(dp696
g62
(dp697
g70
I4
ssg71
g691
sg64
(lp698
S"set(['/home/wionel/Desktop/web2py/applications/admin/', '/home/wionel/Desktop/web2py/applications/welcome/', '/home/wionel/Desktop/web2py/applications/music/'])"
p699
asbasbasbag57
(g73
g59
NtRp700
(dp701
g62
(dp702
sg71
g674
sg64
(lp703
g57
(g78
g59
NtRp704
(dp705
g62
(dp706
g82
g83
ssg71
g700
sg64
(lp707
S'applications_parent'
p708
asbag57
(g78
g59
NtRp709
(dp710
g62
(dp711
g89
g90
ssg71
g700
sg64
(lp712
S':'
asbag57
(g78
g59
NtRp713
(dp714
g62
(dp715
sg71
g700
sg64
(lp716
g57
(g58
g59
NtRp717
(dp718
g62
(dp719
g70
I4
ssg71
g713
sg64
(lp720
S'/home/wionel/Desktop/web2py'
p721
asbasbasbag57
(g73
g59
NtRp722
(dp723
g62
(dp724
sg71
g674
sg64
(lp725
g57
(g78
g59
NtRp726
(dp727
g62
(dp728
g82
g83
ssg71
g722
sg64
(lp729
S'cmd_args'
p730
asbag57
(g78
g59
NtRp731
(dp732
g62
(dp733
g89
g90
ssg71
g722
sg64
(lp734
S':'
asbag57
(g78
g59
NtRp735
(dp736
g62
(dp737
sg71
g722
sg64
(lp738
g57
(g58
g59
NtRp739
(dp740
g62
(dp741
g70
I4
ssg71
g735
sg64
(lp742
g57
(g66
g59
NtRp743
(dp744
g62
(dp745
g70
I3
ssg71
Nsg64
(lp746
sbasbasbasbag57
(g73
g59
NtRp747
(dp748
g62
(dp749
sg71
g674
sg64
(lp750
g57
(g78
g59
NtRp751
(dp752
g62
(dp753
g82
g83
ssg71
g747
sg64
(lp754
S'cmd_options'
p755
asbag57
(g78
g59
NtRp756
(dp757
g62
(dp758
g89
g90
ssg71
g747
sg64
(lp759
S':'
asbag57
(g78
g59
NtRp760
(dp761
g62
(dp762
sg71
g747
sg64
(lp763
g57
(g58
g59
NtRp764
(dp765
g62
(dp766
g70
I4
ssg71
g760
sg64
(lp767
S"<Values at 0x1b69488: {'verbose': False, 'ip': '127.0.0.1', 'with_scheduler': False, 'ips': ['127.0.1.1'], 'shutdown_timeout': 5, 'taskbar': False, 'port': 8000, 'maxthreads': None, 'softcron': False, 'server_name': 'Rohan', 'bpython': False, 'nogui': False, 'pid_filename': 'httpserver.pid', 'extcron': False, 'runcron': False, 'run_system_tests': False, 'test': None, 'folder': '/home/wionel/Desktop/web2py', 'config': '', 'minthreads': None, 'winservice': '', 'shell': None, 'run': '', 'log_filename': 'httpserver.log', 'debuglevel': 30, 'args': [''], 'socket_timeout': 5, 'ssl_ca_certificate': None, 'scheduler': None, 'profiler_filename': None, 'ssl_private_key': '', 'scheduler_groups': None, 'password': '<ask>', 'request_queue_size': 5, 'ssl_certificate': '', 'cronjob': False, 'numthreads': None, 'quiet': False, 'interfaces': None, 'import_models': False, 'timeout': 10, 'plain': False, 'nobanner': False}>"
p768
asbasbasbag57
(g73
g59
NtRp769
(dp770
g62
(dp771
sg71
g674
sg64
(lp772
g57
(g78
g59
NtRp773
(dp774
g62
(dp775
g82
g83
ssg71
g769
sg64
(lp776
S'db_sessions'
p777
asbag57
(g78
g59
NtRp778
(dp779
g62
(dp780
g89
g90
ssg71
g769
sg64
(lp781
S':'
asbag57
(g78
g59
NtRp782
(dp783
g62
(dp784
sg71
g769
sg64
(lp785
g57
(g58
g59
NtRp786
(dp787
g62
(dp788
g70
I4
ssg71
g782
sg64
(lp789
S'set([])'
p790
asbasbasbag57
(g73
g59
NtRp791
(dp792
g62
(dp793
sg71
g674
sg64
(lp794
g57
(g78
g59
NtRp795
(dp796
g62
(dp797
g82
g83
ssg71
g791
sg64
(lp798
S'debugging'
p799
asbag57
(g78
g59
NtRp800
(dp801
g62
(dp802
g89
g90
ssg71
g791
sg64
(lp803
S':'
asbag57
(g78
g59
NtRp804
(dp805
g62
(dp806
sg71
g791
sg64
(lp807
g57
(g58
g59
NtRp808
(dp809
g62
(dp810
g70
I4
ssg71
g804
sg64
(lp811
g100
asbasbasbag57
(g73
g59
NtRp812
(dp813
g62
(dp814
sg71
g674
sg64
(lp815
g57
(g78
g59
NtRp816
(dp817
g62
(dp818
g82
g83
ssg71
g812
sg64
(lp819
S'gluon_parent'
p820
asbag57
(g78
g59
NtRp821
(dp822
g62
(dp823
g89
g90
ssg71
g812
sg64
(lp824
S':'
asbag57
(g78
g59
NtRp825
(dp826
g62
(dp827
sg71
g812
sg64
(lp828
g57
(g58
g59
NtRp829
(dp830
g62
(dp831
g70
I4
ssg71
g825
sg64
(lp832
S'/home/wionel/Desktop/web2py'
p833
asbasbasbag57
(g73
g59
NtRp834
(dp835
g62
(dp836
sg71
g674
sg64
(lp837
g57
(g78
g59
NtRp838
(dp839
g62
(dp840
g82
g83
ssg71
g834
sg64
(lp841
S'http_accept'
p842
asbag57
(g78
g59
NtRp843
(dp844
g62
(dp845
g89
g90
ssg71
g834
sg64
(lp846
S':'
asbag57
(g78
g59
NtRp847
(dp848
g62
(dp849
sg71
g834
sg64
(lp850
g57
(g58
g59
NtRp851
(dp852
g62
(dp853
g70
I4
ssg71
g847
sg64
(lp854
S'text/html,application/xhtml+xml,application/xml;q=0.9,*/*;q=0.8'
p855
asbasbasbag57
(g73
g59
NtRp856
(dp857
g62
(dp858
sg71
g674
sg64
(lp859
g57
(g78
g59
NtRp860
(dp861
g62
(dp862
g82
g83
ssg71
g856
sg64
(lp863
S'http_accept_charset'
p864
asbag57
(g78
g59
NtRp865
(dp866
g62
(dp867
g89
g90
ssg71
g856
sg64
(lp868
S':'
asbag57
(g78
g59
NtRp869
(dp870
g62
(dp871
sg71
g856
sg64
(lp872
g57
(g58
g59
NtRp873
(dp874
g62
(dp875
g70
I4
ssg71
g869
sg64
(lp876
S'ISO-8859-1,utf-8;q=0.7,*;q=0.3'
p877
asbasbasbag57
(g73
g59
NtRp878
(dp879
g62
(dp880
sg71
g674
sg64
(lp881
g57
(g78
g59
NtRp882
(dp883
g62
(dp884
g82
g83
ssg71
g878
sg64
(lp885
S'http_accept_encoding'
p886
asbag57
(g78
g59
NtRp887
(dp888
g62
(dp889
g89
g90
ssg71
g878
sg64
(lp890
S':'
asbag57
(g78
g59
NtRp891
(dp892
g62
(dp893
sg71
g878
sg64
(lp894
g57
(g58
g59
NtRp895
(dp896
g62
(dp897
g70
I4
ssg71
g891
sg64
(lp898
S'gzip,deflate,sdch'
p899
asbasbasbag57
(g73
g59
NtRp900
(dp901
g62
(dp902
sg71
g674
sg64
(lp903
g57
(g78
g59
NtRp904
(dp905
g62
(dp906
g82
g83
ssg71
g900
sg64
(lp907
S'http_accept_language'
p908
asbag57
(g78
g59
NtRp909
(dp910
g62
(dp911
g89
g90
ssg71
g900
sg64
(lp912
S':'
asbag57
(g78
g59
NtRp913
(dp914
g62
(dp915
sg71
g900
sg64
(lp916
g57
(g58
g59
NtRp917
(dp918
g62
(dp919
g70
I4
ssg71
g913
sg64
(lp920
S'en-US,en;q=0.8'
p921
asbasbasbag57
(g73
g59
NtRp922
(dp923
g62
(dp924
sg71
g674
sg64
(lp925
g57
(g78
g59
NtRp926
(dp927
g62
(dp928
g82
g83
ssg71
g922
sg64
(lp929
S'http_cache_control'
p930
asbag57
(g78
g59
NtRp931
(dp932
g62
(dp933
g89
g90
ssg71
g922
sg64
(lp934
S':'
asbag57
(g78
g59
NtRp935
(dp936
g62
(dp937
sg71
g922
sg64
(lp938
g57
(g58
g59
NtRp939
(dp940
g62
(dp941
g70
I4
ssg71
g935
sg64
(lp942
S'max-age=0'
p943
asbasbasbag57
(g73
g59
NtRp944
(dp945
g62
(dp946
sg71
g674
sg64
(lp947
g57
(g78
g59
NtRp948
(dp949
g62
(dp950
g82
g83
ssg71
g944
sg64
(lp951
S'http_connection'
p952
asbag57
(g78
g59
NtRp953
(dp954
g62
(dp955
g89
g90
ssg71
g944
sg64
(lp956
S':'
asbag57
(g78
g59
NtRp957
(dp958
g62
(dp959
sg71
g944
sg64
(lp960
g57
(g58
g59
NtRp961
(dp962
g62
(dp963
g70
I4
ssg71
g957
sg64
(lp964
S'keep-alive'
p965
asbasbasbag57
(g73
g59
NtRp966
(dp967
g62
(dp968
sg71
g674
sg64
(lp969
g57
(g78
g59
NtRp970
(dp971
g62
(dp972
g82
g83
ssg71
g966
sg64
(lp973
S'http_cookie'
p974
asbag57
(g78
g59
NtRp975
(dp976
g62
(dp977
g89
g90
ssg71
g966
sg64
(lp978
S':'
asbag57
(g78
g59
NtRp979
(dp980
g62
(dp981
sg71
g966
sg64
(lp982
g57
(g58
g59
NtRp983
(dp984
g62
(dp985
g70
I4
ssg71
g979
sg64
(lp986
S'session_id_music=127.0.0.1-3c0cad68-c677-410a-bc7f-6cdf12352d80; session_id_admin=127.0.0.1-cc929a62-079e-404e-9c9f-efb75bb580b2'
p987
asbasbasbag57
(g73
g59
NtRp988
(dp989
g62
(dp990
sg71
g674
sg64
(lp991
g57
(g78
g59
NtRp992
(dp993
g62
(dp994
g82
g83
ssg71
g988
sg64
(lp995
S'http_host'
p996
asbag57
(g78
g59
NtRp997
(dp998
g62
(dp999
g89
g90
ssg71
g988
sg64
(lp1000
S':'
asbag57
(g78
g59
NtRp1001
(dp1002
g62
(dp1003
sg71
g988
sg64
(lp1004
g57
(g58
g59
NtRp1005
(dp1006
g62
(dp1007
g70
I4
ssg71
g1001
sg64
(lp1008
S'127.0.0.1:8000'
p1009
asbasbasbag57
(g73
g59
NtRp1010
(dp1011
g62
(dp1012
sg71
g674
sg64
(lp1013
g57
(g78
g59
NtRp1014
(dp1015
g62
(dp1016
g82
g83
ssg71
g1010
sg64
(lp1017
S'http_referer'
p1018
asbag57
(g78
g59
NtRp1019
(dp1020
g62
(dp1021
g89
g90
ssg71
g1010
sg64
(lp1022
S':'
asbag57
(g78
g59
NtRp1023
(dp1024
g62
(dp1025
sg71
g1010
sg64
(lp1026
g57
(g58
g59
NtRp1027
(dp1028
g62
(dp1029
g70
I4
ssg71
g1023
sg64
(lp1030
S'http://127.0.0.1:8000/music/default/index'
p1031
asbasbasbag57
(g73
g59
NtRp1032
(dp1033
g62
(dp1034
sg71
g674
sg64
(lp1035
g57
(g78
g59
NtRp1036
(dp1037
g62
(dp1038
g82
g83
ssg71
g1032
sg64
(lp1039
S'http_user_agent'
p1040
asbag57
(g78
g59
NtRp1041
(dp1042
g62
(dp1043
g89
g90
ssg71
g1032
sg64
(lp1044
S':'
asbag57
(g78
g59
NtRp1045
(dp1046
g62
(dp1047
sg71
g1032
sg64
(lp1048
g57
(g58
g59
NtRp1049
(dp1050
g62
(dp1051
g70
I4
ssg71
g1045
sg64
(lp1052
S'Mozilla/5.0 (X11; Linux x86_64) AppleWebKit/537.4 (KHTML, like Gecko) Chrome/22.0.1229.92 Safari/537.4'
p1053
asbasbasbag57
(g73
g59
NtRp1054
(dp1055
g62
(dp1056
sg71
g674
sg64
(lp1057
g57
(g78
g59
NtRp1058
(dp1059
g62
(dp1060
g82
g83
ssg71
g1054
sg64
(lp1061
S'is_jython'
p1062
asbag57
(g78
g59
NtRp1063
(dp1064
g62
(dp1065
g89
g90
ssg71
g1054
sg64
(lp1066
S':'
asbag57
(g78
g59
NtRp1067
(dp1068
g62
(dp1069
sg71
g1054
sg64
(lp1070
g57
(g58
g59
NtRp1071
(dp1072
g62
(dp1073
g70
I4
ssg71
g1067
sg64
(lp1074
g100
asbasbasbag57
(g73
g59
NtRp1075
(dp1076
g62
(dp1077
sg71
g674
sg64
(lp1078
g57
(g78
g59
NtRp1079
(dp1080
g62
(dp1081
g82
g83
ssg71
g1075
sg64
(lp1082
S'is_pypy'
p1083
asbag57
(g78
g59
NtRp1084
(dp1085
g62
(dp1086
g89
g90
ssg71
g1075
sg64
(lp1087
S':'
asbag57
(g78
g59
NtRp1088
(dp1089
g62
(dp1090
sg71
g1075
sg64
(lp1091
g57
(g58
g59
NtRp1092
(dp1093
g62
(dp1094
g70
I4
ssg71
g1088
sg64
(lp1095
g100
asbasbasbag57
(g73
g59
NtRp1096
(dp1097
g62
(dp1098
sg71
g674
sg64
(lp1099
g57
(g78
g59
NtRp1100
(dp1101
g62
(dp1102
g82
g83
ssg71
g1096
sg64
(lp1103
S'local_hosts'
p1104
asbag57
(g78
g59
NtRp1105
(dp1106
g62
(dp1107
g89
g90
ssg71
g1096
sg64
(lp1108
S':'
asbag57
(g78
g59
NtRp1109
(dp1110
g62
(dp1111
sg71
g1096
sg64
(lp1112
g57
(g58
g59
NtRp1113
(dp1114
g62
(dp1115
g70
I4
ssg71
g1109
sg64
(lp1116
g57
(g66
g59
NtRp1117
(dp1118
g62
(dp1119
g70
I3
ssg71
Nsg64
(lp1120
g57
(g73
g59
NtRp1121
(dp1122
g62
(dp1123
sg71
g1117
sg64
(lp1124
g57
(g78
g59
NtRp1125
(dp1126
g62
(dp1127
sg71
g1121
sg64
(lp1128
g57
(g58
g59
NtRp1129
(dp1130
g62
(dp1131
g70
I3
ssg71
g1125
sg64
(lp1132
S'127.0.0.1'
p1133
asbasbasbag57
(g73
g59
NtRp1134
(dp1135
g62
(dp1136
sg71
g1117
sg64
(lp1137
g57
(g78
g59
NtRp1138
(dp1139
g62
(dp1140
sg71
g1134
sg64
(lp1141
g57
(g58
g59
NtRp1142
(dp1143
g62
(dp1144
g70
I3
ssg71
g1138
sg64
(lp1145
S'::ffff:127.0.0.1'
p1146
asbasbasbag57
(g73
g59
NtRp1147
(dp1148
g62
(dp1149
sg71
g1117
sg64
(lp1150
g57
(g78
g59
NtRp1151
(dp1152
g62
(dp1153
sg71
g1147
sg64
(lp1154
g57
(g58
g59
NtRp1155
(dp1156
g62
(dp1157
g70
I3
ssg71
g1151
sg64
(lp1158
S'Rohan'
p1159
asbasbasbag57
(g73
g59
NtRp1160
(dp1161
g62
(dp1162
sg71
g1117
sg64
(lp1163
g57
(g78
g59
NtRp1164
(dp1165
g62
(dp1166
sg71
g1160
sg64
(lp1167
g57
(g58
g59
NtRp1168
(dp1169
g62
(dp1170
g70
I3
ssg71
g1164
sg64
(lp1171
S'Rohan'
p1172
asbasbasbag57
(g73
g59
NtRp1173
(dp1174
g62
(dp1175
sg71
g1117
sg64
(lp1176
g57
(g78
g59
NtRp1177
(dp1178
g62
(dp1179
sg71
g1173
sg64
(lp1180
g57
(g58
g59
NtRp1181
(dp1182
g62
(dp1183
g70
I3
ssg71
g1177
sg64
(lp1184
S'127.0.1.1'
p1185
asbasbasbasbasbasbasbag57
(g73
g59
NtRp1186
(dp1187
g62
(dp1188
sg71
g674
sg64
(lp1189
g57
(g78
g59
NtRp1190
(dp1191
g62
(dp1192
g82
g83
ssg71
g1186
sg64
(lp1193
S'path_info'
p1194
asbag57
(g78
g59
NtRp1195
(dp1196
g62
(dp1197
g89
g90
ssg71
g1186
sg64
(lp1198
S':'
asbag57
(g78
g59
NtRp1199
(dp1200
g62
(dp1201
sg71
g1186
sg64
(lp1202
g57
(g58
g59
NtRp1203
(dp1204
g62
(dp1205
g70
I4
ssg71
g1199
sg64
(lp1206
S'/music/default/index/22'
p1207
asbasbasbag57
(g73
g59
NtRp1208
(dp1209
g62
(dp1210
sg71
g674
sg64
(lp1211
g57
(g78
g59
NtRp1212
(dp1213
g62
(dp1214
g82
g83
ssg71
g1208
sg64
(lp1215
S'query_string'
p1216
asbag57
(g78
g59
NtRp1217
(dp1218
g62
(dp1219
g89
g90
ssg71
g1208
sg64
(lp1220
S':'
asbag57
(g78
g59
NtRp1221
(dp1222
g62
(dp1223
sg71
g1208
sg64
(lp1224
g57
(g58
g59
NtRp1225
(dp1226
g62
(dp1227
g70
I4
ssg71
g1221
sg64
(lp1228
S''
asbasbasbag57
(g73
g59
NtRp1229
(dp1230
g62
(dp1231
sg71
g674
sg64
(lp1232
g57
(g78
g59
NtRp1233
(dp1234
g62
(dp1235
g82
g83
ssg71
g1229
sg64
(lp1236
S'remote_addr'
p1237
asbag57
(g78
g59
NtRp1238
(dp1239
g62
(dp1240
g89
g90
ssg71
g1229
sg64
(lp1241
S':'
asbag57
(g78
g59
NtRp1242
(dp1243
g62
(dp1244
sg71
g1229
sg64
(lp1245
g57
(g58
g59
NtRp1246
(dp1247
g62
(dp1248
g70
I4
ssg71
g1242
sg64
(lp1249
g225
asbasbasbag57
(g73
g59
NtRp1250
(dp1251
g62
(dp1252
sg71
g674
sg64
(lp1253
g57
(g78
g59
NtRp1254
(dp1255
g62
(dp1256
g82
g83
ssg71
g1250
sg64
(lp1257
S'remote_port'
p1258
asbag57
(g78
g59
NtRp1259
(dp1260
g62
(dp1261
g89
g90
ssg71
g1250
sg64
(lp1262
S':'
asbag57
(g78
g59
NtRp1263
(dp1264
g62
(dp1265
sg71
g1250
sg64
(lp1266
g57
(g58
g59
NtRp1267
(dp1268
g62
(dp1269
g70
I4
ssg71
g1263
sg64
(lp1270
S'37433'
p1271
asbasbasbag57
(g73
g59
NtRp1272
(dp1273
g62
(dp1274
sg71
g674
sg64
(lp1275
g57
(g78
g59
NtRp1276
(dp1277
g62
(dp1278
g82
g83
ssg71
g1272
sg64
(lp1279
S'request_method'
p1280
asbag57
(g78
g59
NtRp1281
(dp1282
g62
(dp1283
g89
g90
ssg71
g1272
sg64
(lp1284
S':'
asbag57
(g78
g59
NtRp1285
(dp1286
g62
(dp1287
sg71
g1272
sg64
(lp1288
g57
(g58
g59
NtRp1289
(dp1290
g62
(dp1291
g70
I4
ssg71
g1285
sg64
(lp1292
S'GET'
p1293
asbasbasbag57
(g73
g59
NtRp1294
(dp1295
g62
(dp1296
sg71
g674
sg64
(lp1297
g57
(g78
g59
NtRp1298
(dp1299
g62
(dp1300
g82
g83
ssg71
g1294
sg64
(lp1301
S'request_uri'
p1302
asbag57
(g78
g59
NtRp1303
(dp1304
g62
(dp1305
g89
g90
ssg71
g1294
sg64
(lp1306
S':'
asbag57
(g78
g59
NtRp1307
(dp1308
g62
(dp1309
sg71
g1294
sg64
(lp1310
g57
(g58
g59
NtRp1311
(dp1312
g62
(dp1313
g70
I4
ssg71
g1307
sg64
(lp1314
g1207
asbasbasbag57
(g73
g59
NtRp1315
(dp1316
g62
(dp1317
sg71
g674
sg64
(lp1318
g57
(g78
g59
NtRp1319
(dp1320
g62
(dp1321
g82
g83
ssg71
g1315
sg64
(lp1322
S'script_name'
p1323
asbag57
(g78
g59
NtRp1324
(dp1325
g62
(dp1326
g89
g90
ssg71
g1315
sg64
(lp1327
S':'
asbag57
(g78
g59
NtRp1328
(dp1329
g62
(dp1330
sg71
g1315
sg64
(lp1331
g57
(g58
g59
NtRp1332
(dp1333
g62
(dp1334
g70
I4
ssg71
g1328
sg64
(lp1335
S''
asbasbasbag57
(g73
g59
NtRp1336
(dp1337
g62
(dp1338
sg71
g674
sg64
(lp1339
g57
(g78
g59
NtRp1340
(dp1341
g62
(dp1342
g82
g83
ssg71
g1336
sg64
(lp1343
S'server_name'
p1344
asbag57
(g78
g59
NtRp1345
(dp1346
g62
(dp1347
g89
g90
ssg71
g1336
sg64
(lp1348
S':'
asbag57
(g78
g59
NtRp1349
(dp1350
g62
(dp1351
sg71
g1336
sg64
(lp1352
g57
(g58
g59
NtRp1353
(dp1354
g62
(dp1355
g70
I4
ssg71
g1349
sg64
(lp1356
g1172
asbasbasbag57
(g73
g59
NtRp1357
(dp1358
g62
(dp1359
sg71
g674
sg64
(lp1360
g57
(g78
g59
NtRp1361
(dp1362
g62
(dp1363
g82
g83
ssg71
g1357
sg64
(lp1364
S'server_port'
p1365
asbag57
(g78
g59
NtRp1366
(dp1367
g62
(dp1368
g89
g90
ssg71
g1357
sg64
(lp1369
S':'
asbag57
(g78
g59
NtRp1370
(dp1371
g62
(dp1372
sg71
g1357
sg64
(lp1373
g57
(g58
g59
NtRp1374
(dp1375
g62
(dp1376
g70
I4
ssg71
g1370
sg64
(lp1377
S'8000'
p1378
asbasbasbag57
(g73
g59
NtRp1379
(dp1380
g62
(dp1381
sg71
g674
sg64
(lp1382
g57
(g78
g59
NtRp1383
(dp1384
g62
(dp1385
g82
g83
ssg71
g1379
sg64
(lp1386
S'server_protocol'
p1387
asbag57
(g78
g59
NtRp1388
(dp1389
g62
(dp1390
g89
g90
ssg71
g1379
sg64
(lp1391
S':'
asbag57
(g78
g59
NtRp1392
(dp1393
g62
(dp1394
sg71
g1379
sg64
(lp1395
g57
(g58
g59
NtRp1396
(dp1397
g62
(dp1398
g70
I4
ssg71
g1392
sg64
(lp1399
S'HTTP/1.1'
p1400
asbasbasbag57
(g73
g59
NtRp1401
(dp1402
g62
(dp1403
sg71
g674
sg64
(lp1404
g57
(g78
g59
NtRp1405
(dp1406
g62
(dp1407
g82
g83
ssg71
g1401
sg64
(lp1408
S'server_software'
p1409
asbag57
(g78
g59
NtRp1410
(dp1411
g62
(dp1412
g89
g90
ssg71
g1401
sg64
(lp1413
S':'
asbag57
(g78
g59
NtRp1414
(dp1415
g62
(dp1416
sg71
g1401
sg64
(lp1417
g57
(g58
g59
NtRp1418
(dp1419
g62
(dp1420
g70
I4
ssg71
g1414
sg64
(lp1421
S'Rocket 1.2.5'
p1422
asbasbasbag57
(g73
g59
NtRp1423
(dp1424
g62
(dp1425
sg71
g674
sg64
(lp1426
g57
(g78
g59
NtRp1427
(dp1428
g62
(dp1429
g82
g83
ssg71
g1423
sg64
(lp1430
S'web2py_path'
p1431
asbag57
(g78
g59
NtRp1432
(dp1433
g62
(dp1434
g89
g90
ssg71
g1423
sg64
(lp1435
S':'
asbag57
(g78
g59
NtRp1436
(dp1437
g62
(dp1438
sg71
g1423
sg64
(lp1439
g57
(g58
g59
NtRp1440
(dp1441
g62
(dp1442
g70
I4
ssg71
g1436
sg64
(lp1443
g721
asbasbasbag57
(g73
g59
NtRp1444
(dp1445
g62
(dp1446
sg71
g674
sg64
(lp1447
g57
(g78
g59
NtRp1448
(dp1449
g62
(dp1450
g82
g83
ssg71
g1444
sg64
(lp1451
S'web2py_version'
p1452
asbag57
(g78
g59
NtRp1453
(dp1454
g62
(dp1455
g89
g90
ssg71
g1444
sg64
(lp1456
S':'
asbag57
(g78
g59
NtRp1457
(dp1458
g62
(dp1459
sg71
g1444
sg64
(lp1460
g57
(g58
g59
NtRp1461
(dp1462
g62
(dp1463
g70
I4
ssg71
g1457
sg64
(lp1464
g57
(g66
g59
NtRp1465
(dp1466
g62
(dp1467
g70
I3
ssg71
Nsg64
(lp1468
g57
(g73
g59
NtRp1469
(dp1470
g62
(dp1471
sg71
g1465
sg64
(lp1472
g57
(g78
g59
NtRp1473
(dp1474
g62
(dp1475
sg71
g1469
sg64
(lp1476
g57
(g58
g59
NtRp1477
(dp1478
g62
(dp1479
g70
I3
ssg71
g1473
sg64
(lp1480
S'2'
asbasbasbag57
(g73
g59
NtRp1481
(dp1482
g62
(dp1483
sg71
g1465
sg64
(lp1484
g57
(g78
g59
NtRp1485
(dp1486
g62
(dp1487
sg71
g1481
sg64
(lp1488
g57
(g58
g59
NtRp1489
(dp1490
g62
(dp1491
g70
I3
ssg71
g1485
sg64
(lp1492
S'2'
asbasbasbag57
(g73
g59
NtRp1493
(dp1494
g62
(dp1495
sg71
g1465
sg64
(lp1496
g57
(g78
g59
NtRp1497
(dp1498
g62
(dp1499
sg71
g1493
sg64
(lp1500
g57
(g58
g59
NtRp1501
(dp1502
g62
(dp1503
g70
I3
ssg71
g1497
sg64
(lp1504
S'1'
asbasbasbag57
(g73
g59
NtRp1505
(dp1506
g62
(dp1507
sg71
g1465
sg64
(lp1508
g57
(g78
g59
NtRp1509
(dp1510
g62
(dp1511
sg71
g1505
sg64
(lp1512
g57
(g58
g59
NtRp1513
(dp1514
g62
(dp1515
g70
I3
ssg71
g1509
sg64
(lp1516
S'datetime.datetime(2012, 10, 21, 16, 57, 4)'
p1517
asbasbasbag57
(g73
g59
NtRp1518
(dp1519
g62
(dp1520
sg71
g1465
sg64
(lp1521
g57
(g78
g59
NtRp1522
(dp1523
g62
(dp1524
sg71
g1518
sg64
(lp1525
g57
(g58
g59
NtRp1526
(dp1527
g62
(dp1528
g70
I3
ssg71
g1522
sg64
(lp1529
S'stable'
p1530
asbasbasbasbasbasbasbag57
(g73
g59
NtRp1531
(dp1532
g62
(dp1533
sg71
g674
sg64
(lp1534
g57
(g78
g59
NtRp1535
(dp1536
g62
(dp1537
g82
g83
ssg71
g1531
sg64
(lp1538
S'wsgi_errors'
p1539
asbag57
(g78
g59
NtRp1540
(dp1541
g62
(dp1542
g89
g90
ssg71
g1531
sg64
(lp1543
S':'
asbag57
(g78
g59
NtRp1544
(dp1545
g62
(dp1546
sg71
g1531
sg64
(lp1547
g57
(g58
g59
NtRp1548
(dp1549
g62
(dp1550
g70
I4
ssg71
g1544
sg64
(lp1551
S"<open file '<stderr>', mode 'w' at 0x7f97a1c89270>"
p1552
asbasbasbag57
(g73
g59
NtRp1553
(dp1554
g62
(dp1555
sg71
g674
sg64
(lp1556
g57
(g78
g59
NtRp1557
(dp1558
g62
(dp1559
g82
g83
ssg71
g1553
sg64
(lp1560
S'wsgi_file_wrapper'
p1561
asbag57
(g78
g59
NtRp1562
(dp1563
g62
(dp1564
g89
g90
ssg71
g1553
sg64
(lp1565
S':'
asbag57
(g78
g59
NtRp1566
(dp1567
g62
(dp1568
sg71
g1553
sg64
(lp1569
g57
(g58
g59
NtRp1570
(dp1571
g62
(dp1572
g70
I4
ssg71
g1566
sg64
(lp1573
S'<class wsgiref.util.FileWrapper at 0x1ac1808>'
p1574
asbasbasbag57
(g73
g59
NtRp1575
(dp1576
g62
(dp1577
sg71
g674
sg64
(lp1578
g57
(g78
g59
NtRp1579
(dp1580
g62
(dp1581
g82
g83
ssg71
g1575
sg64
(lp1582
S'wsgi_input'
p1583
asbag57
(g78
g59
NtRp1584
(dp1585
g62
(dp1586
g89
g90
ssg71
g1575
sg64
(lp1587
S':'
asbag57
(g78
g59
NtRp1588
(dp1589
g62
(dp1590
sg71
g1575
sg64
(lp1591
g57
(g58
g59
NtRp1592
(dp1593
g62
(dp1594
g70
I4
ssg71
g1588
sg64
(lp1595
S'<socket._fileobject object at 0x7f976c26d0d0>'
p1596
asbasbasbag57
(g73
g59
NtRp1597
(dp1598
g62
(dp1599
sg71
g674
sg64
(lp1600
g57
(g78
g59
NtRp1601
(dp1602
g62
(dp1603
g82
g83
ssg71
g1597
sg64
(lp1604
S'wsgi_multiprocess'
p1605
asbag57
(g78
g59
NtRp1606
(dp1607
g62
(dp1608
g89
g90
ssg71
g1597
sg64
(lp1609
S':'
asbag57
(g78
g59
NtRp1610
(dp1611
g62
(dp1612
sg71
g1597
sg64
(lp1613
g57
(g58
g59
NtRp1614
(dp1615
g62
(dp1616
g70
I4
ssg71
g1610
sg64
(lp1617
g100
asbasbasbag57
(g73
g59
NtRp1618
(dp1619
g62
(dp1620
sg71
g674
sg64
(lp1621
g57
(g78
g59
NtRp1622
(dp1623
g62
(dp1624
g82
g83
ssg71
g1618
sg64
(lp1625
S'wsgi_multithread'
p1626
asbag57
(g78
g59
NtRp1627
(dp1628
g62
(dp1629
g89
g90
ssg71
g1618
sg64
(lp1630
S':'
asbag57
(g78
g59
NtRp1631
(dp1632
g62
(dp1633
sg71
g1618
sg64
(lp1634
g57
(g58
g59
NtRp1635
(dp1636
g62
(dp1637
g70
I4
ssg71
g1631
sg64
(lp1638
S'True'
p1639
asbasbasbag57
(g73
g59
NtRp1640
(dp1641
g62
(dp1642
sg71
g674
sg64
(lp1643
g57
(g78
g59
NtRp1644
(dp1645
g62
(dp1646
g82
g83
ssg71
g1640
sg64
(lp1647
S'wsgi_run_once'
p1648
asbag57
(g78
g59
NtRp1649
(dp1650
g62
(dp1651
g89
g90
ssg71
g1640
sg64
(lp1652
S':'
asbag57
(g78
g59
NtRp1653
(dp1654
g62
(dp1655
sg71
g1640
sg64
(lp1656
g57
(g58
g59
NtRp1657
(dp1658
g62
(dp1659
g70
I4
ssg71
g1653
sg64
(lp1660
g100
asbasbasbag57
(g73
g59
NtRp1661
(dp1662
g62
(dp1663
sg71
g674
sg64
(lp1664
g57
(g78
g59
NtRp1665
(dp1666
g62
(dp1667
g82
g83
ssg71
g1661
sg64
(lp1668
S'wsgi_url_scheme'
p1669
asbag57
(g78
g59
NtRp1670
(dp1671
g62
(dp1672
g89
g90
ssg71
g1661
sg64
(lp1673
S':'
asbag57
(g78
g59
NtRp1674
(dp1675
g62
(dp1676
sg71
g1661
sg64
(lp1677
g57
(g58
g59
NtRp1678
(dp1679
g62
(dp1680
g70
I4
ssg71
g1674
sg64
(lp1681
S'http'
p1682
asbasbasbag57
(g73
g59
NtRp1683
(dp1684
g62
(dp1685
sg71
g674
sg64
(lp1686
g57
(g78
g59
NtRp1687
(dp1688
g62
(dp1689
g82
g83
ssg71
g1683
sg64
(lp1690
S'wsgi_version'
p1691
asbag57
(g78
g59
NtRp1692
(dp1693
g62
(dp1694
g89
g90
ssg71
g1683
sg64
(lp1695
S':'
asbag57
(g78
g59
NtRp1696
(dp1697
g62
(dp1698
sg71
g1683
sg64
(lp1699
g57
(g58
g59
NtRp1700
(dp1701
g62
(dp1702
g70
I4
ssg71
g1696
sg64
(lp1703
g57
(g66
g59
NtRp1704
(dp1705
g62
(dp1706
g70
I3
ssg71
Nsg64
(lp1707
g57
(g73
g59
NtRp1708
(dp1709
g62
(dp1710
sg71
g1704
sg64
(lp1711
g57
(g78
g59
NtRp1712
(dp1713
g62
(dp1714
sg71
g1708
sg64
(lp1715
g57
(g58
g59
NtRp1716
(dp1717
g62
(dp1718
g70
I3
ssg71
g1712
sg64
(lp1719
S'1'
asbasbasbag57
(g73
g59
NtRp1720
(dp1721
g62
(dp1722
sg71
g1704
sg64
(lp1723
g57
(g78
g59
NtRp1724
(dp1725
g62
(dp1726
sg71
g1720
sg64
(lp1727
g57
(g58
g59
NtRp1728
(dp1729
g62
(dp1730
g70
I3
ssg71
g1724
sg64
(lp1731
S'0'
asbasbasbasbasbasbasbasbasbasbasbag57
(g73
g59
NtRp1732
(dp1733
g62
(dp1734
sg71
g67
sg64
(lp1735
g57
(g78
g59
NtRp1736
(dp1737
g62
(dp1738
g82
g83
ssg71
g1732
sg64
(lp1739
S'extension'
p1740
asbag57
(g78
g59
NtRp1741
(dp1742
g62
(dp1743
g89
g90
ssg71
g1732
sg64
(lp1744
S':'
asbag57
(g78
g59
NtRp1745
(dp1746
g62
(dp1747
sg71
g1732
sg64
(lp1748
g57
(g58
g59
NtRp1749
(dp1750
g62
(dp1751
g70
I5
ssg71
g1745
sg64
(lp1752
S'html'
p1753
asbasbasbag57
(g73
g59
NtRp1754
(dp1755
g62
(dp1756
sg71
g67
sg64
(lp1757
g57
(g78
g59
NtRp1758
(dp1759
g62
(dp1760
g82
g83
ssg71
g1754
sg64
(lp1761
S'folder'
p1762
asbag57
(g78
g59
NtRp1763
(dp1764
g62
(dp1765
g89
g90
ssg71
g1754
sg64
(lp1766
S':'
asbag57
(g78
g59
NtRp1767
(dp1768
g62
(dp1769
sg71
g1754
sg64
(lp1770
g57
(g58
g59
NtRp1771
(dp1772
g62
(dp1773
g70
I5
ssg71
g1767
sg64
(lp1774
S'/home/wionel/Desktop/web2py/applications/music/'
p1775
asbasbasbag57
(g73
g59
NtRp1776
(dp1777
g62
(dp1778
sg71
g67
sg64
(lp1779
g57
(g78
g59
NtRp1780
(dp1781
g62
(dp1782
g82
g83
ssg71
g1776
sg64
(lp1783
S'function'
p1784
asbag57
(g78
g59
NtRp1785
(dp1786
g62
(dp1787
g89
g90
ssg71
g1776
sg64
(lp1788
S':'
asbag57
(g78
g59
NtRp1789
(dp1790
g62
(dp1791
sg71
g1776
sg64
(lp1792
g57
(g58
g59
NtRp1793
(dp1794
g62
(dp1795
g70
I5
ssg71
g1789
sg64
(lp1796
S'index'
p1797
asbasbasbag57
(g73
g59
NtRp1798
(dp1799
g62
(dp1800
sg71
g67
sg64
(lp1801
g57
(g78
g59
NtRp1802
(dp1803
g62
(dp1804
g82
g83
ssg71
g1798
sg64
(lp1805
S'get_vars'
p1806
asbag57
(g78
g59
NtRp1807
(dp1808
g62
(dp1809
g89
g90
ssg71
g1798
sg64
(lp1810
S':'
asbag57
(g78
g59
NtRp1811
(dp1812
g62
(dp1813
sg71
g1798
sg64
(lp1814
g57
(g58
g59
NtRp1815
(dp1816
g62
(dp1817
g70
I5
ssg71
g1811
sg64
(lp1818
g57
(g66
g59
NtRp1819
(dp1820
g62
(dp1821
g70
I4
ssg71
Nsg64
(lp1822
sbasbasbasbag57
(g73
g59
NtRp1823
(dp1824
g62
(dp1825
sg71
g67
sg64
(lp1826
g57
(g78
g59
NtRp1827
(dp1828
g62
(dp1829
g82
g83
ssg71
g1823
sg64
(lp1830
S'global_settings'
p1831
asbag57
(g78
g59
NtRp1832
(dp1833
g62
(dp1834
g89
g90
ssg71
g1823
sg64
(lp1835
S':'
asbag57
(g78
g59
NtRp1836
(dp1837
g62
(dp1838
sg71
g1823
sg64
(lp1839
g57
(g58
g59
NtRp1840
(dp1841
g62
(dp1842
g70
I5
ssg71
g1836
sg64
(lp1843
g57
(g66
g59
NtRp1844
(dp1845
g62
(dp1846
g70
I4
ssg71
Nsg64
(lp1847
g57
(g73
g59
NtRp1848
(dp1849
g62
(dp1850
sg71
g1844
sg64
(lp1851
g57
(g78
g59
NtRp1852
(dp1853
g62
(dp1854
g82
g83
ssg71
g1848
sg64
(lp1855
g686
asbag57
(g78
g59
NtRp1856
(dp1857
g62
(dp1858
g89
g90
ssg71
g1848
sg64
(lp1859
S':'
asbag57
(g78
g59
NtRp1860
(dp1861
g62
(dp1862
sg71
g1848
sg64
(lp1863
g57
(g58
g59
NtRp1864
(dp1865
g62
(dp1866
g70
I4
ssg71
g1860
sg64
(lp1867
S"set(['/home/wionel/Desktop/web2py/applications/admin/', '/home/wionel/Desktop/web2py/applications/welcome/', '/home/wionel/Desktop/web2py/applications/music/'])"
p1868
asbasbasbag57
(g73
g59
NtRp1869
(dp1870
g62
(dp1871
sg71
g1844
sg64
(lp1872
g57
(g78
g59
NtRp1873
(dp1874
g62
(dp1875
g82
g83
ssg71
g1869
sg64
(lp1876
g708
asbag57
(g78
g59
NtRp1877
(dp1878
g62
(dp1879
g89
g90
ssg71
g1869
sg64
(lp1880
S':'
asbag57
(g78
g59
NtRp1881
(dp1882
g62
(dp1883
sg71
g1869
sg64
(lp1884
g57
(g58
g59
NtRp1885
(dp1886
g62
(dp1887
g70
I4
ssg71
g1881
sg64
(lp1888
g721
asbasbasbag57
(g73
g59
NtRp1889
(dp1890
g62
(dp1891
sg71
g1844
sg64
(lp1892
g57
(g78
g59
NtRp1893
(dp1894
g62
(dp1895
g82
g83
ssg71
g1889
sg64
(lp1896
g730
asbag57
(g78
g59
NtRp1897
(dp1898
g62
(dp1899
g89
g90
ssg71
g1889
sg64
(lp1900
S':'
asbag57
(g78
g59
NtRp1901
(dp1902
g62
(dp1903
sg71
g1889
sg64
(lp1904
g57
(g58
g59
NtRp1905
(dp1906
g62
(dp1907
g70
I4
ssg71
g1901
sg64
(lp1908
g57
(g66
g59
NtRp1909
(dp1910
g62
(dp1911
g70
I3
ssg71
Nsg64
(lp1912
sbasbasbasbag57
(g73
g59
NtRp1913
(dp1914
g62
(dp1915
sg71
g1844
sg64
(lp1916
g57
(g78
g59
NtRp1917
(dp1918
g62
(dp1919
g82
g83
ssg71
g1913
sg64
(lp1920
g755
asbag57
(g78
g59
NtRp1921
(dp1922
g62
(dp1923
g89
g90
ssg71
g1913
sg64
(lp1924
S':'
asbag57
(g78
g59
NtRp1925
(dp1926
g62
(dp1927
sg71
g1913
sg64
(lp1928
g57
(g58
g59
NtRp1929
(dp1930
g62
(dp1931
g70
I4
ssg71
g1925
sg64
(lp1932
S"<Values at 0x1b69488: {'verbose': False, 'ip': '127.0.0.1', 'with_scheduler': False, 'ips': ['127.0.1.1'], 'shutdown_timeout': 5, 'taskbar': False, 'port': 8000, 'maxthreads': None, 'softcron': False, 'server_name': 'Rohan', 'bpython': False, 'nogui': False, 'pid_filename': 'httpserver.pid', 'extcron': False, 'runcron': False, 'run_system_tests': False, 'test': None, 'folder': '/home/wionel/Desktop/web2py', 'config': '', 'minthreads': None, 'winservice': '', 'shell': None, 'run': '', 'log_filename': 'httpserver.log', 'debuglevel': 30, 'args': [''], 'socket_timeout': 5, 'ssl_ca_certificate': None, 'scheduler': None, 'profiler_filename': None, 'ssl_private_key': '', 'scheduler_groups': None, 'password': '<ask>', 'request_queue_size': 5, 'ssl_certificate': '', 'cronjob': False, 'numthreads': None, 'quiet': False, 'interfaces': None, 'import_models': False, 'timeout': 10, 'plain': False, 'nobanner': False}>"
p1933
asbasbasbag57
(g73
g59
NtRp1934
(dp1935
g62
(dp1936
sg71
g1844
sg64
(lp1937
g57
(g78
g59
NtRp1938
(dp1939
g62
(dp1940
g82
g83
ssg71
g1934
sg64
(lp1941
g777
asbag57
(g78
g59
NtRp1942
(dp1943
g62
(dp1944
g89
g90
ssg71
g1934
sg64
(lp1945
S':'
asbag57
(g78
g59
NtRp1946
(dp1947
g62
(dp1948
sg71
g1934
sg64
(lp1949
g57
(g58
g59
NtRp1950
(dp1951
g62
(dp1952
g70
I4
ssg71
g1946
sg64
(lp1953
S'set([])'
p1954
asbasbasbag57
(g73
g59
NtRp1955
(dp1956
g62
(dp1957
sg71
g1844
sg64
(lp1958
g57
(g78
g59
NtRp1959
(dp1960
g62
(dp1961
g82
g83
ssg71
g1955
sg64
(lp1962
g799
asbag57
(g78
g59
NtRp1963
(dp1964
g62
(dp1965
g89
g90
ssg71
g1955
sg64
(lp1966
S':'
asbag57
(g78
g59
NtRp1967
(dp1968
g62
(dp1969
sg71
g1955
sg64
(lp1970
g57
(g58
g59
NtRp1971
(dp1972
g62
(dp1973
g70
I4
ssg71
g1967
sg64
(lp1974
g100
asbasbasbag57
(g73
g59
NtRp1975
(dp1976
g62
(dp1977
sg71
g1844
sg64
(lp1978
g57
(g78
g59
NtRp1979
(dp1980
g62
(dp1981
g82
g83
ssg71
g1975
sg64
(lp1982
g820
asbag57
(g78
g59
NtRp1983
(dp1984
g62
(dp1985
g89
g90
ssg71
g1975
sg64
(lp1986
S':'
asbag57
(g78
g59
NtRp1987
(dp1988
g62
(dp1989
sg71
g1975
sg64
(lp1990
g57
(g58
g59
NtRp1991
(dp1992
g62
(dp1993
g70
I4
ssg71
g1987
sg64
(lp1994
g833
asbasbasbag57
(g73
g59
NtRp1995
(dp1996
g62
(dp1997
sg71
g1844
sg64
(lp1998
g57
(g78
g59
NtRp1999
(dp2000
g62
(dp2001
g82
g83
ssg71
g1995
sg64
(lp2002
g1062
asbag57
(g78
g59
NtRp2003
(dp2004
g62
(dp2005
g89
g90
ssg71
g1995
sg64
(lp2006
S':'
asbag57
(g78
g59
NtRp2007
(dp2008
g62
(dp2009
sg71
g1995
sg64
(lp2010
g57
(g58
g59
NtRp2011
(dp2012
g62
(dp2013
g70
I4
ssg71
g2007
sg64
(lp2014
g100
asbasbasbag57
(g73
g59
NtRp2015
(dp2016
g62
(dp2017
sg71
g1844
sg64
(lp2018
g57
(g78
g59
NtRp2019
(dp2020
g62
(dp2021
g82
g83
ssg71
g2015
sg64
(lp2022
g1083
asbag57
(g78
g59
NtRp2023
(dp2024
g62
(dp2025
g89
g90
ssg71
g2015
sg64
(lp2026
S':'
asbag57
(g78
g59
NtRp2027
(dp2028
g62
(dp2029
sg71
g2015
sg64
(lp2030
g57
(g58
g59
NtRp2031
(dp2032
g62
(dp2033
g70
I4
ssg71
g2027
sg64
(lp2034
g100
asbasbasbag57
(g73
g59
NtRp2035
(dp2036
g62
(dp2037
sg71
g1844
sg64
(lp2038
g57
(g78
g59
NtRp2039
(dp2040
g62
(dp2041
g82
g83
ssg71
g2035
sg64
(lp2042
g1104
asbag57
(g78
g59
NtRp2043
(dp2044
g62
(dp2045
g89
g90
ssg71
g2035
sg64
(lp2046
S':'
asbag57
(g78
g59
NtRp2047
(dp2048
g62
(dp2049
sg71
g2035
sg64
(lp2050
g57
(g58
g59
NtRp2051
(dp2052
g62
(dp2053
g70
I4
ssg71
g2047
sg64
(lp2054
g57
(g66
g59
NtRp2055
(dp2056
g62
(dp2057
g70
I3
ssg71
Nsg64
(lp2058
g57
(g73
g59
NtRp2059
(dp2060
g62
(dp2061
sg71
g2055
sg64
(lp2062
g57
(g78
g59
NtRp2063
(dp2064
g62
(dp2065
sg71
g2059
sg64
(lp2066
g57
(g58
g59
NtRp2067
(dp2068
g62
(dp2069
g70
I3
ssg71
g2063
sg64
(lp2070
g1133
asbasbasbag57
(g73
g59
NtRp2071
(dp2072
g62
(dp2073
sg71
g2055
sg64
(lp2074
g57
(g78
g59
NtRp2075
(dp2076
g62
(dp2077
sg71
g2071
sg64
(lp2078
g57
(g58
g59
NtRp2079
(dp2080
g62
(dp2081
g70
I3
ssg71
g2075
sg64
(lp2082
g1146
asbasbasbag57
(g73
g59
NtRp2083
(dp2084
g62
(dp2085
sg71
g2055
sg64
(lp2086
g57
(g78
g59
NtRp2087
(dp2088
g62
(dp2089
sg71
g2083
sg64
(lp2090
g57
(g58
g59
NtRp2091
(dp2092
g62
(dp2093
g70
I3
ssg71
g2087
sg64
(lp2094
g1159
asbasbasbag57
(g73
g59
NtRp2095
(dp2096
g62
(dp2097
sg71
g2055
sg64
(lp2098
g57
(g78
g59
NtRp2099
(dp2100
g62
(dp2101
sg71
g2095
sg64
(lp2102
g57
(g58
g59
NtRp2103
(dp2104
g62
(dp2105
g70
I3
ssg71
g2099
sg64
(lp2106
g1172
asbasbasbag57
(g73
g59
NtRp2107
(dp2108
g62
(dp2109
sg71
g2055
sg64
(lp2110
g57
(g78
g59
NtRp2111
(dp2112
g62
(dp2113
sg71
g2107
sg64
(lp2114
g57
(g58
g59
NtRp2115
(dp2116
g62
(dp2117
g70
I3
ssg71
g2111
sg64
(lp2118
g1185
asbasbasbasbasbasbasbag57
(g73
g59
NtRp2119
(dp2120
g62
(dp2121
sg71
g1844
sg64
(lp2122
g57
(g78
g59
NtRp2123
(dp2124
g62
(dp2125
g82
g83
ssg71
g2119
sg64
(lp2126
g1452
asbag57
(g78
g59
NtRp2127
(dp2128
g62
(dp2129
g89
g90
ssg71
g2119
sg64
(lp2130
S':'
asbag57
(g78
g59
NtRp2131
(dp2132
g62
(dp2133
sg71
g2119
sg64
(lp2134
g57
(g58
g59
NtRp2135
(dp2136
g62
(dp2137
g70
I4
ssg71
g2131
sg64
(lp2138
g57
(g66
g59
NtRp2139
(dp2140
g62
(dp2141
g70
I3
ssg71
Nsg64
(lp2142
g57
(g73
g59
NtRp2143
(dp2144
g62
(dp2145
sg71
g2139
sg64
(lp2146
g57
(g78
g59
NtRp2147
(dp2148
g62
(dp2149
sg71
g2143
sg64
(lp2150
g57
(g58
g59
NtRp2151
(dp2152
g62
(dp2153
g70
I3
ssg71
g2147
sg64
(lp2154
S'2'
asbasbasbag57
(g73
g59
NtRp2155
(dp2156
g62
(dp2157
sg71
g2139
sg64
(lp2158
g57
(g78
g59
NtRp2159
(dp2160
g62
(dp2161
sg71
g2155
sg64
(lp2162
g57
(g58
g59
NtRp2163
(dp2164
g62
(dp2165
g70
I3
ssg71
g2159
sg64
(lp2166
S'2'
asbasbasbag57
(g73
g59
NtRp2167
(dp2168
g62
(dp2169
sg71
g2139
sg64
(lp2170
g57
(g78
g59
NtRp2171
(dp2172
g62
(dp2173
sg71
g2167
sg64
(lp2174
g57
(g58
g59
NtRp2175
(dp2176
g62
(dp2177
g70
I3
ssg71
g2171
sg64
(lp2178
S'1'
asbasbasbag57
(g73
g59
NtRp2179
(dp2180
g62
(dp2181
sg71
g2139
sg64
(lp2182
g57
(g78
g59
NtRp2183
(dp2184
g62
(dp2185
sg71
g2179
sg64
(lp2186
g57
(g58
g59
NtRp2187
(dp2188
g62
(dp2189
g70
I3
ssg71
g2183
sg64
(lp2190
S'datetime.datetime(2012, 10, 21, 16, 57, 4)'
p2191
asbasbasbag57
(g73
g59
NtRp2192
(dp2193
g62
(dp2194
sg71
g2139
sg64
(lp2195
g57
(g78
g59
NtRp2196
(dp2197
g62
(dp2198
sg71
g2192
sg64
(lp2199
g57
(g58
g59
NtRp2200
(dp2201
g62
(dp2202
g70
I3
ssg71
g2196
sg64
(lp2203
g1530
asbasbasbasbasbasbasbasbasbasbasbag57
(g73
g59
NtRp2204
(dp2205
g62
(dp2206
sg71
g67
sg64
(lp2207
g57
(g78
g59
NtRp2208
(dp2209
g62
(dp2210
g82
g83
ssg71
g2204
sg64
(lp2211
S'is_https'
p2212
asbag57
(g78
g59
NtRp2213
(dp2214
g62
(dp2215
g89
g90
ssg71
g2204
sg64
(lp2216
S':'
asbag57
(g78
g59
NtRp2217
(dp2218
g62
(dp2219
sg71
g2204
sg64
(lp2220
g57
(g58
g59
NtRp2221
(dp2222
g62
(dp2223
g70
I5
ssg71
g2217
sg64
(lp2224
g100
asbasbasbag57
(g73
g59
NtRp2225
(dp2226
g62
(dp2227
sg71
g67
sg64
(lp2228
g57
(g78
g59
NtRp2229
(dp2230
g62
(dp2231
g82
g83
ssg71
g2225
sg64
(lp2232
S'is_local'
p2233
asbag57
(g78
g59
NtRp2234
(dp2235
g62
(dp2236
g89
g90
ssg71
g2225
sg64
(lp2237
S':'
asbag57
(g78
g59
NtRp2238
(dp2239
g62
(dp2240
sg71
g2225
sg64
(lp2241
g57
(g58
g59
NtRp2242
(dp2243
g62
(dp2244
g70
I5
ssg71
g2238
sg64
(lp2245
g1639
asbasbasbag57
(g73
g59
NtRp2246
(dp2247
g62
(dp2248
sg71
g67
sg64
(lp2249
g57
(g78
g59
NtRp2250
(dp2251
g62
(dp2252
g82
g83
ssg71
g2246
sg64
(lp2253
S'is_restful'
p2254
asbag57
(g78
g59
NtRp2255
(dp2256
g62
(dp2257
g89
g90
ssg71
g2246
sg64
(lp2258
S':'
asbag57
(g78
g59
NtRp2259
(dp2260
g62
(dp2261
sg71
g2246
sg64
(lp2262
g57
(g58
g59
NtRp2263
(dp2264
g62
(dp2265
g70
I5
ssg71
g2259
sg64
(lp2266
g100
asbasbasbag57
(g73
g59
NtRp2267
(dp2268
g62
(dp2269
sg71
g67
sg64
(lp2270
g57
(g78
g59
NtRp2271
(dp2272
g62
(dp2273
g82
g83
ssg71
g2267
sg64
(lp2274
S'now'
p2275
asbag57
(g78
g59
NtRp2276
(dp2277
g62
(dp2278
g89
g90
ssg71
g2267
sg64
(lp2279
S':'
asbag57
(g78
g59
NtRp2280
(dp2281
g62
(dp2282
sg71
g2267
sg64
(lp2283
g57
(g58
g59
NtRp2284
(dp2285
g62
(dp2286
g70
I5
ssg71
g2280
sg64
(lp2287
S'datetime.datetime(2012, 11, 16, 23, 38, 33, 527057)'
p2288
asbasbasbag57
(g73
g59
NtRp2289
(dp2290
g62
(dp2291
sg71
g67
sg64
(lp2292
g57
(g78
g59
NtRp2293
(dp2294
g62
(dp2295
g82
g83
ssg71
g2289
sg64
(lp2296
S'post_vars'
p2297
asbag57
(g78
g59
NtRp2298
(dp2299
g62
(dp2300
g89
g90
ssg71
g2289
sg64
(lp2301
S':'
asbag57
(g78
g59
NtRp2302
(dp2303
g62
(dp2304
sg71
g2289
sg64
(lp2305
g57
(g58
g59
NtRp2306
(dp2307
g62
(dp2308
g70
I5
ssg71
g2302
sg64
(lp2309
g57
(g66
g59
NtRp2310
(dp2311
g62
(dp2312
g70
I4
ssg71
Nsg64
(lp2313
sbasbasbasbag57
(g73
g59
NtRp2314
(dp2315
g62
(dp2316
sg71
g67
sg64
(lp2317
g57
(g78
g59
NtRp2318
(dp2319
g62
(dp2320
g82
g83
ssg71
g2314
sg64
(lp2321
S'raw_args'
p2322
asbag57
(g78
g59
NtRp2323
(dp2324
g62
(dp2325
g89
g90
ssg71
g2314
sg64
(lp2326
S':'
asbag57
(g78
g59
NtRp2327
(dp2328
g62
(dp2329
sg71
g2314
sg64
(lp2330
g57
(g58
g59
NtRp2331
(dp2332
g62
(dp2333
g70
I5
ssg71
g2327
sg64
(lp2334
S'/22'
p2335
asbasbasbag57
(g73
g59
NtRp2336
(dp2337
g62
(dp2338
sg71
g67
sg64
(lp2339
g57
(g78
g59
NtRp2340
(dp2341
g62
(dp2342
g82
g83
ssg71
g2336
sg64
(lp2343
S'raw_extension'
p2344
asbag57
(g78
g59
NtRp2345
(dp2346
g62
(dp2347
g89
g90
ssg71
g2336
sg64
(lp2348
S':'
asbag57
(g78
g59
NtRp2349
(dp2350
g62
(dp2351
sg71
g2336
sg64
(lp2352
g57
(g58
g59
NtRp2353
(dp2354
g62
(dp2355
g70
I5
ssg71
g2349
sg64
(lp2356
S'None'
p2357
asbasbasbag57
(g73
g59
NtRp2358
(dp2359
g62
(dp2360
sg71
g67
sg64
(lp2361
g57
(g78
g59
NtRp2362
(dp2363
g62
(dp2364
g82
g83
ssg71
g2358
sg64
(lp2365
S'url'
p2366
asbag57
(g78
g59
NtRp2367
(dp2368
g62
(dp2369
g89
g90
ssg71
g2358
sg64
(lp2370
S':'
asbag57
(g78
g59
NtRp2371
(dp2372
g62
(dp2373
sg71
g2358
sg64
(lp2374
g57
(g58
g59
NtRp2375
(dp2376
g62
(dp2377
g70
I5
ssg71
g2371
sg64
(lp2378
g1207
asbasbasbag57
(g73
g59
NtRp2379
(dp2380
g62
(dp2381
sg71
g67
sg64
(lp2382
g57
(g78
g59
NtRp2383
(dp2384
g62
(dp2385
g82
g83
ssg71
g2379
sg64
(lp2386
S'utcnow'
p2387
asbag57
(g78
g59
NtRp2388
(dp2389
g62
(dp2390
g89
g90
ssg71
g2379
sg64
(lp2391
S':'
asbag57
(g78
g59
NtRp2392
(dp2393
g62
(dp2394
sg71
g2379
sg64
(lp2395
g57
(g58
g59
NtRp2396
(dp2397
g62
(dp2398
g70
I5
ssg71
g2392
sg64
(lp2399
S'datetime.datetime(2012, 11, 16, 18, 8, 33, 527090)'
p2400
asbasbasbag57
(g73
g59
NtRp2401
(dp2402
g62
(dp2403
sg71
g67
sg64
(lp2404
g57
(g78
g59
NtRp2405
(dp2406
g62
(dp2407
g82
g83
ssg71
g2401
sg64
(lp2408
S'uuid'
p2409
asbag57
(g78
g59
NtRp2410
(dp2411
g62
(dp2412
g89
g90
ssg71
g2401
sg64
(lp2413
S':'
asbag57
(g78
g59
NtRp2414
(dp2415
g62
(dp2416
sg71
g2401
sg64
(lp2417
g57
(g58
g59
NtRp2418
(dp2419
g62
(dp2420
g70
I5
ssg71
g2414
sg64
(lp2421
S'music/127.0.0.1.2012-11-16.23-38-33.2b146ae4-f424-4c45-95f2-884da2d89938'
p2422
asbasbasbag57
(g73
g59
NtRp2423
(dp2424
g62
(dp2425
sg71
g67
sg64
(lp2426
g57
(g78
g59
NtRp2427
(dp2428
g62
(dp2429
g82
g83
ssg71
g2423
sg64
(lp2430
S'vars'
p2431
asbag57
(g78
g59
NtRp2432
(dp2433
g62
(dp2434
g89
g90
ssg71
g2423
sg64
(lp2435
S':'
asbag57
(g78
g59
NtRp2436
(dp2437
g62
(dp2438
sg71
g2423
sg64
(lp2439
g57
(g58
g59
NtRp2440
(dp2441
g62
(dp2442
g70
I5
ssg71
g2436
sg64
(lp2443
g57
(g66
g59
NtRp2444
(dp2445
g62
(dp2446
g70
I4
ssg71
Nsg64
(lp2447
sbasbasbasbag57
(g73
g59
NtRp2448
(dp2449
g62
(dp2450
sg71
g67
sg64
(lp2451
g57
(g78
g59
NtRp2452
(dp2453
g62
(dp2454
g82
g83
ssg71
g2448
sg64
(lp2455
S'wsgi'
p2456
asbag57
(g78
g59
NtRp2457
(dp2458
g62
(dp2459
g89
g90
ssg71
g2448
sg64
(lp2460
S':'
asbag57
(g78
g59
NtRp2461
(dp2462
g62
(dp2463
sg71
g2448
sg64
(lp2464
g57
(g58
g59
NtRp2465
(dp2466
g62
(dp2467
g70
I5
ssg71
g2461
sg64
(lp2468
g57
(g66
g59
NtRp2469
(dp2470
g62
(dp2471
g70
I4
ssg71
Nsg64
(lp2472
g57
(g73
g59
NtRp2473
(dp2474
g62
(dp2475
sg71
g2469
sg64
(lp2476
g57
(g78
g59
NtRp2477
(dp2478
g62
(dp2479
g82
g83
ssg71
g2473
sg64
(lp2480
S'environ'
p2481
asbag57
(g78
g59
NtRp2482
(dp2483
g62
(dp2484
g89
g90
ssg71
g2473
sg64
(lp2485
S':'
asbag57
(g78
g59
NtRp2486
(dp2487
g62
(dp2488
sg71
g2473
sg64
(lp2489
g57
(g58
g59
NtRp2490
(dp2491
g62
(dp2492
g70
I4
ssg71
g2486
sg64
(lp2493
g57
(g66
g59
NtRp2494
(dp2495
g62
(dp2496
g70
I3
ssg71
Nsg64
(lp2497
g57
(g73
g59
NtRp2498
(dp2499
g62
(dp2500
sg71
g2494
sg64
(lp2501
g57
(g78
g59
NtRp2502
(dp2503
g62
(dp2504
g82
g83
ssg71
g2498
sg64
(lp2505
S'HTTP_ACCEPT'
p2506
asbag57
(g78
g59
NtRp2507
(dp2508
g62
(dp2509
g89
g90
ssg71
g2498
sg64
(lp2510
S':'
asbag57
(g78
g59
NtRp2511
(dp2512
g62
(dp2513
sg71
g2498
sg64
(lp2514
g57
(g58
g59
NtRp2515
(dp2516
g62
(dp2517
g70
I3
ssg71
g2511
sg64
(lp2518
g855
asbasbasbag57
(g73
g59
NtRp2519
(dp2520
g62
(dp2521
sg71
g2494
sg64
(lp2522
g57
(g78
g59
NtRp2523
(dp2524
g62
(dp2525
g82
g83
ssg71
g2519
sg64
(lp2526
S'HTTP_ACCEPT_CHARSET'
p2527
asbag57
(g78
g59
NtRp2528
(dp2529
g62
(dp2530
g89
g90
ssg71
g2519
sg64
(lp2531
S':'
asbag57
(g78
g59
NtRp2532
(dp2533
g62
(dp2534
sg71
g2519
sg64
(lp2535
g57
(g58
g59
NtRp2536
(dp2537
g62
(dp2538
g70
I3
ssg71
g2532
sg64
(lp2539
g877
asbasbasbag57
(g73
g59
NtRp2540
(dp2541
g62
(dp2542
sg71
g2494
sg64
(lp2543
g57
(g78
g59
NtRp2544
(dp2545
g62
(dp2546
g82
g83
ssg71
g2540
sg64
(lp2547
S'HTTP_ACCEPT_ENCODING'
p2548
asbag57
(g78
g59
NtRp2549
(dp2550
g62
(dp2551
g89
g90
ssg71
g2540
sg64
(lp2552
S':'
asbag57
(g78
g59
NtRp2553
(dp2554
g62
(dp2555
sg71
g2540
sg64
(lp2556
g57
(g58
g59
NtRp2557
(dp2558
g62
(dp2559
g70
I3
ssg71
g2553
sg64
(lp2560
g899
asbasbasbag57
(g73
g59
NtRp2561
(dp2562
g62
(dp2563
sg71
g2494
sg64
(lp2564
g57
(g78
g59
NtRp2565
(dp2566
g62
(dp2567
g82
g83
ssg71
g2561
sg64
(lp2568
S'HTTP_ACCEPT_LANGUAGE'
p2569
asbag57
(g78
g59
NtRp2570
(dp2571
g62
(dp2572
g89
g90
ssg71
g2561
sg64
(lp2573
S':'
asbag57
(g78
g59
NtRp2574
(dp2575
g62
(dp2576
sg71
g2561
sg64
(lp2577
g57
(g58
g59
NtRp2578
(dp2579
g62
(dp2580
g70
I3
ssg71
g2574
sg64
(lp2581
g921
asbasbasbag57
(g73
g59
NtRp2582
(dp2583
g62
(dp2584
sg71
g2494
sg64
(lp2585
g57
(g78
g59
NtRp2586
(dp2587
g62
(dp2588
g82
g83
ssg71
g2582
sg64
(lp2589
S'HTTP_CACHE_CONTROL'
p2590
asbag57
(g78
g59
NtRp2591
(dp2592
g62
(dp2593
g89
g90
ssg71
g2582
sg64
(lp2594
S':'
asbag57
(g78
g59
NtRp2595
(dp2596
g62
(dp2597
sg71
g2582
sg64
(lp2598
g57
(g58
g59
NtRp2599
(dp2600
g62
(dp2601
g70
I3
ssg71
g2595
sg64
(lp2602
g943
asbasbasbag57
(g73
g59
NtRp2603
(dp2604
g62
(dp2605
sg71
g2494
sg64
(lp2606
g57
(g78
g59
NtRp2607
(dp2608
g62
(dp2609
g82
g83
ssg71
g2603
sg64
(lp2610
S'HTTP_CONNECTION'
p2611
asbag57
(g78
g59
NtRp2612
(dp2613
g62
(dp2614
g89
g90
ssg71
g2603
sg64
(lp2615
S':'
asbag57
(g78
g59
NtRp2616
(dp2617
g62
(dp2618
sg71
g2603
sg64
(lp2619
g57
(g58
g59
NtRp2620
(dp2621
g62
(dp2622
g70
I3
ssg71
g2616
sg64
(lp2623
g965
asbasbasbag57
(g73
g59
NtRp2624
(dp2625
g62
(dp2626
sg71
g2494
sg64
(lp2627
g57
(g78
g59
NtRp2628
(dp2629
g62
(dp2630
g82
g83
ssg71
g2624
sg64
(lp2631
S'HTTP_COOKIE'
p2632
asbag57
(g78
g59
NtRp2633
(dp2634
g62
(dp2635
g89
g90
ssg71
g2624
sg64
(lp2636
S':'
asbag57
(g78
g59
NtRp2637
(dp2638
g62
(dp2639
sg71
g2624
sg64
(lp2640
g57
(g58
g59
NtRp2641
(dp2642
g62
(dp2643
g70
I3
ssg71
g2637
sg64
(lp2644
g987
asbasbasbag57
(g73
g59
NtRp2645
(dp2646
g62
(dp2647
sg71
g2494
sg64
(lp2648
g57
(g78
g59
NtRp2649
(dp2650
g62
(dp2651
g82
g83
ssg71
g2645
sg64
(lp2652
S'HTTP_HOST'
p2653
asbag57
(g78
g59
NtRp2654
(dp2655
g62
(dp2656
g89
g90
ssg71
g2645
sg64
(lp2657
S':'
asbag57
(g78
g59
NtRp2658
(dp2659
g62
(dp2660
sg71
g2645
sg64
(lp2661
g57
(g58
g59
NtRp2662
(dp2663
g62
(dp2664
g70
I3
ssg71
g2658
sg64
(lp2665
g1009
asbasbasbag57
(g73
g59
NtRp2666
(dp2667
g62
(dp2668
sg71
g2494
sg64
(lp2669
g57
(g78
g59
NtRp2670
(dp2671
g62
(dp2672
g82
g83
ssg71
g2666
sg64
(lp2673
S'HTTP_REFERER'
p2674
asbag57
(g78
g59
NtRp2675
(dp2676
g62
(dp2677
g89
g90
ssg71
g2666
sg64
(lp2678
S':'
asbag57
(g78
g59
NtRp2679
(dp2680
g62
(dp2681
sg71
g2666
sg64
(lp2682
g57
(g58
g59
NtRp2683
(dp2684
g62
(dp2685
g70
I3
ssg71
g2679
sg64
(lp2686
g1031
asbasbasbag57
(g73
g59
NtRp2687
(dp2688
g62
(dp2689
sg71
g2494
sg64
(lp2690
g57
(g78
g59
NtRp2691
(dp2692
g62
(dp2693
g82
g83
ssg71
g2687
sg64
(lp2694
S'HTTP_USER_AGENT'
p2695
asbag57
(g78
g59
NtRp2696
(dp2697
g62
(dp2698
g89
g90
ssg71
g2687
sg64
(lp2699
S':'
asbag57
(g78
g59
NtRp2700
(dp2701
g62
(dp2702
sg71
g2687
sg64
(lp2703
g57
(g58
g59
NtRp2704
(dp2705
g62
(dp2706
g70
I3
ssg71
g2700
sg64
(lp2707
g1053
asbasbasbag57
(g73
g59
NtRp2708
(dp2709
g62
(dp2710
sg71
g2494
sg64
(lp2711
g57
(g78
g59
NtRp2712
(dp2713
g62
(dp2714
g82
g83
ssg71
g2708
sg64
(lp2715
S'PATH_INFO'
p2716
asbag57
(g78
g59
NtRp2717
(dp2718
g62
(dp2719
g89
g90
ssg71
g2708
sg64
(lp2720
S':'
asbag57
(g78
g59
NtRp2721
(dp2722
g62
(dp2723
sg71
g2708
sg64
(lp2724
g57
(g58
g59
NtRp2725
(dp2726
g62
(dp2727
g70
I3
ssg71
g2721
sg64
(lp2728
g1207
asbasbasbag57
(g73
g59
NtRp2729
(dp2730
g62
(dp2731
sg71
g2494
sg64
(lp2732
g57
(g78
g59
NtRp2733
(dp2734
g62
(dp2735
g82
g83
ssg71
g2729
sg64
(lp2736
S'QUERY_STRING'
p2737
asbag57
(g78
g59
NtRp2738
(dp2739
g62
(dp2740
g89
g90
ssg71
g2729
sg64
(lp2741
S':'
asbag57
(g78
g59
NtRp2742
(dp2743
g62
(dp2744
sg71
g2729
sg64
(lp2745
g57
(g58
g59
NtRp2746
(dp2747
g62
(dp2748
g70
I3
ssg71
g2742
sg64
(lp2749
S''
asbasbasbag57
(g73
g59
NtRp2750
(dp2751
g62
(dp2752
sg71
g2494
sg64
(lp2753
g57
(g78
g59
NtRp2754
(dp2755
g62
(dp2756
g82
g83
ssg71
g2750
sg64
(lp2757
S'REMOTE_ADDR'
p2758
asbag57
(g78
g59
NtRp2759
(dp2760
g62
(dp2761
g89
g90
ssg71
g2750
sg64
(lp2762
S':'
asbag57
(g78
g59
NtRp2763
(dp2764
g62
(dp2765
sg71
g2750
sg64
(lp2766
g57
(g58
g59
NtRp2767
(dp2768
g62
(dp2769
g70
I3
ssg71
g2763
sg64
(lp2770
g225
asbasbasbag57
(g73
g59
NtRp2771
(dp2772
g62
(dp2773
sg71
g2494
sg64
(lp2774
g57
(g78
g59
NtRp2775
(dp2776
g62
(dp2777
g82
g83
ssg71
g2771
sg64
(lp2778
S'REMOTE_PORT'
p2779
asbag57
(g78
g59
NtRp2780
(dp2781
g62
(dp2782
g89
g90
ssg71
g2771
sg64
(lp2783
S':'
asbag57
(g78
g59
NtRp2784
(dp2785
g62
(dp2786
sg71
g2771
sg64
(lp2787
g57
(g58
g59
NtRp2788
(dp2789
g62
(dp2790
g70
I3
ssg71
g2784
sg64
(lp2791
g1271
asbasbasbag57
(g73
g59
NtRp2792
(dp2793
g62
(dp2794
sg71
g2494
sg64
(lp2795
g57
(g78
g59
NtRp2796
(dp2797
g62
(dp2798
g82
g83
ssg71
g2792
sg64
(lp2799
S'REQUEST_METHOD'
p2800
asbag57
(g78
g59
NtRp2801
(dp2802
g62
(dp2803
g89
g90
ssg71
g2792
sg64
(lp2804
S':'
asbag57
(g78
g59
NtRp2805
(dp2806
g62
(dp2807
sg71
g2792
sg64
(lp2808
g57
(g58
g59
NtRp2809
(dp2810
g62
(dp2811
g70
I3
ssg71
g2805
sg64
(lp2812
g1293
asbasbasbag57
(g73
g59
NtRp2813
(dp2814
g62
(dp2815
sg71
g2494
sg64
(lp2816
g57
(g78
g59
NtRp2817
(dp2818
g62
(dp2819
g82
g83
ssg71
g2813
sg64
(lp2820
S'REQUEST_URI'
p2821
asbag57
(g78
g59
NtRp2822
(dp2823
g62
(dp2824
g89
g90
ssg71
g2813
sg64
(lp2825
S':'
asbag57
(g78
g59
NtRp2826
(dp2827
g62
(dp2828
sg71
g2813
sg64
(lp2829
g57
(g58
g59
NtRp2830
(dp2831
g62
(dp2832
g70
I3
ssg71
g2826
sg64
(lp2833
g1207
asbasbasbag57
(g73
g59
NtRp2834
(dp2835
g62
(dp2836
sg71
g2494
sg64
(lp2837
g57
(g78
g59
NtRp2838
(dp2839
g62
(dp2840
g82
g83
ssg71
g2834
sg64
(lp2841
S'SCRIPT_NAME'
p2842
asbag57
(g78
g59
NtRp2843
(dp2844
g62
(dp2845
g89
g90
ssg71
g2834
sg64
(lp2846
S':'
asbag57
(g78
g59
NtRp2847
(dp2848
g62
(dp2849
sg71
g2834
sg64
(lp2850
g57
(g58
g59
NtRp2851
(dp2852
g62
(dp2853
g70
I3
ssg71
g2847
sg64
(lp2854
S''
asbasbasbag57
(g73
g59
NtRp2855
(dp2856
g62
(dp2857
sg71
g2494
sg64
(lp2858
g57
(g78
g59
NtRp2859
(dp2860
g62
(dp2861
g82
g83
ssg71
g2855
sg64
(lp2862
S'SERVER_NAME'
p2863
asbag57
(g78
g59
NtRp2864
(dp2865
g62
(dp2866
g89
g90
ssg71
g2855
sg64
(lp2867
S':'
asbag57
(g78
g59
NtRp2868
(dp2869
g62
(dp2870
sg71
g2855
sg64
(lp2871
g57
(g58
g59
NtRp2872
(dp2873
g62
(dp2874
g70
I3
ssg71
g2868
sg64
(lp2875
g1172
asbasbasbag57
(g73
g59
NtRp2876
(dp2877
g62
(dp2878
sg71
g2494
sg64
(lp2879
g57
(g78
g59
NtRp2880
(dp2881
g62
(dp2882
g82
g83
ssg71
g2876
sg64
(lp2883
S'SERVER_PORT'
p2884
asbag57
(g78
g59
NtRp2885
(dp2886
g62
(dp2887
g89
g90
ssg71
g2876
sg64
(lp2888
S':'
asbag57
(g78
g59
NtRp2889
(dp2890
g62
(dp2891
sg71
g2876
sg64
(lp2892
g57
(g58
g59
NtRp2893
(dp2894
g62
(dp2895
g70
I3
ssg71
g2889
sg64
(lp2896
g1378
asbasbasbag57
(g73
g59
NtRp2897
(dp2898
g62
(dp2899
sg71
g2494
sg64
(lp2900
g57
(g78
g59
NtRp2901
(dp2902
g62
(dp2903
g82
g83
ssg71
g2897
sg64
(lp2904
S'SERVER_PROTOCOL'
p2905
asbag57
(g78
g59
NtRp2906
(dp2907
g62
(dp2908
g89
g90
ssg71
g2897
sg64
(lp2909
S':'
asbag57
(g78
g59
NtRp2910
(dp2911
g62
(dp2912
sg71
g2897
sg64
(lp2913
g57
(g58
g59
NtRp2914
(dp2915
g62
(dp2916
g70
I3
ssg71
g2910
sg64
(lp2917
g1400
asbasbasbag57
(g73
g59
NtRp2918
(dp2919
g62
(dp2920
sg71
g2494
sg64
(lp2921
g57
(g78
g59
NtRp2922
(dp2923
g62
(dp2924
g82
g83
ssg71
g2918
sg64
(lp2925
S'SERVER_SOFTWARE'
p2926
asbag57
(g78
g59
NtRp2927
(dp2928
g62
(dp2929
g89
g90
ssg71
g2918
sg64
(lp2930
S':'
asbag57
(g78
g59
NtRp2931
(dp2932
g62
(dp2933
sg71
g2918
sg64
(lp2934
g57
(g58
g59
NtRp2935
(dp2936
g62
(dp2937
g70
I3
ssg71
g2931
sg64
(lp2938
g1422
asbasbasbag57
(g73
g59
NtRp2939
(dp2940
g62
(dp2941
sg71
g2494
sg64
(lp2942
g57
(g78
g59
NtRp2943
(dp2944
g62
(dp2945
g82
g83
ssg71
g2939
sg64
(lp2946
S'wsgi.errors'
p2947
asbag57
(g78
g59
NtRp2948
(dp2949
g62
(dp2950
g89
g90
ssg71
g2939
sg64
(lp2951
S':'
asbag57
(g78
g59
NtRp2952
(dp2953
g62
(dp2954
sg71
g2939
sg64
(lp2955
g57
(g58
g59
NtRp2956
(dp2957
g62
(dp2958
g70
I3
ssg71
g2952
sg64
(lp2959
S"<open file '<stderr>', mode 'w' at 0x7f97a1c89270>"
p2960
asbasbasbag57
(g73
g59
NtRp2961
(dp2962
g62
(dp2963
sg71
g2494
sg64
(lp2964
g57
(g78
g59
NtRp2965
(dp2966
g62
(dp2967
g82
g83
ssg71
g2961
sg64
(lp2968
S'wsgi.file_wrapper'
p2969
asbag57
(g78
g59
NtRp2970
(dp2971
g62
(dp2972
g89
g90
ssg71
g2961
sg64
(lp2973
S':'
asbag57
(g78
g59
NtRp2974
(dp2975
g62
(dp2976
sg71
g2961
sg64
(lp2977
g57
(g58
g59
NtRp2978
(dp2979
g62
(dp2980
g70
I3
ssg71
g2974
sg64
(lp2981
S'<class wsgiref.util.FileWrapper at 0x1ac1808>'
p2982
asbasbasbag57
(g73
g59
NtRp2983
(dp2984
g62
(dp2985
sg71
g2494
sg64
(lp2986
g57
(g78
g59
NtRp2987
(dp2988
g62
(dp2989
g82
g83
ssg71
g2983
sg64
(lp2990
S'wsgi.input'
p2991
asbag57
(g78
g59
NtRp2992
(dp2993
g62
(dp2994
g89
g90
ssg71
g2983
sg64
(lp2995
S':'
asbag57
(g78
g59
NtRp2996
(dp2997
g62
(dp2998
sg71
g2983
sg64
(lp2999
g57
(g58
g59
NtRp3000
(dp3001
g62
(dp3002
g70
I3
ssg71
g2996
sg64
(lp3003
S'<cStringIO.StringO object at 0x1b80ab0>'
p3004
asbasbasbag57
(g73
g59
NtRp3005
(dp3006
g62
(dp3007
sg71
g2494
sg64
(lp3008
g57
(g78
g59
NtRp3009
(dp3010
g62
(dp3011
g82
g83
ssg71
g3005
sg64
(lp3012
S'wsgi.multiprocess'
p3013
asbag57
(g78
g59
NtRp3014
(dp3015
g62
(dp3016
g89
g90
ssg71
g3005
sg64
(lp3017
S':'
asbag57
(g78
g59
NtRp3018
(dp3019
g62
(dp3020
sg71
g3005
sg64
(lp3021
g57
(g58
g59
NtRp3022
(dp3023
g62
(dp3024
g70
I3
ssg71
g3018
sg64
(lp3025
g100
asbasbasbag57
(g73
g59
NtRp3026
(dp3027
g62
(dp3028
sg71
g2494
sg64
(lp3029
g57
(g78
g59
NtRp3030
(dp3031
g62
(dp3032
g82
g83
ssg71
g3026
sg64
(lp3033
S'wsgi.multithread'
p3034
asbag57
(g78
g59
NtRp3035
(dp3036
g62
(dp3037
g89
g90
ssg71
g3026
sg64
(lp3038
S':'
asbag57
(g78
g59
NtRp3039
(dp3040
g62
(dp3041
sg71
g3026
sg64
(lp3042
g57
(g58
g59
NtRp3043
(dp3044
g62
(dp3045
g70
I3
ssg71
g3039
sg64
(lp3046
g1639
asbasbasbag57
(g73
g59
NtRp3047
(dp3048
g62
(dp3049
sg71
g2494
sg64
(lp3050
g57
(g78
g59
NtRp3051
(dp3052
g62
(dp3053
g82
g83
ssg71
g3047
sg64
(lp3054
S'wsgi.run_once'
p3055
asbag57
(g78
g59
NtRp3056
(dp3057
g62
(dp3058
g89
g90
ssg71
g3047
sg64
(lp3059
S':'
asbag57
(g78
g59
NtRp3060
(dp3061
g62
(dp3062
sg71
g3047
sg64
(lp3063
g57
(g58
g59
NtRp3064
(dp3065
g62
(dp3066
g70
I3
ssg71
g3060
sg64
(lp3067
g100
asbasbasbag57
(g73
g59
NtRp3068
(dp3069
g62
(dp3070
sg71
g2494
sg64
(lp3071
g57
(g78
g59
NtRp3072
(dp3073
g62
(dp3074
g82
g83
ssg71
g3068
sg64
(lp3075
S'wsgi.url_scheme'
p3076
asbag57
(g78
g59
NtRp3077
(dp3078
g62
(dp3079
g89
g90
ssg71
g3068
sg64
(lp3080
S':'
asbag57
(g78
g59
NtRp3081
(dp3082
g62
(dp3083
sg71
g3068
sg64
(lp3084
g57
(g58
g59
NtRp3085
(dp3086
g62
(dp3087
g70
I3
ssg71
g3081
sg64
(lp3088
g1682
asbasbasbag57
(g73
g59
NtRp3089
(dp3090
g62
(dp3091
sg71
g2494
sg64
(lp3092
g57
(g78
g59
NtRp3093
(dp3094
g62
(dp3095
g82
g83
ssg71
g3089
sg64
(lp3096
S'wsgi.version'
p3097
asbag57
(g78
g59
NtRp3098
(dp3099
g62
(dp3100
g89
g90
ssg71
g3089
sg64
(lp3101
S':'
asbag57
(g78
g59
NtRp3102
(dp3103
g62
(dp3104
sg71
g3089
sg64
(lp3105
g57
(g58
g59
NtRp3106
(dp3107
g62
(dp3108
g70
I3
ssg71
g3102
sg64
(lp3109
S'1'
asbasbasbasbasbasbasbasbasbasbasbasbasbsS'frames'
p3110
(lp3111
(dp3112
S'file'
p3113
S'/home/wionel/Desktop/web2py/gluon/restricted.py'
p3114
sS'dump'
p3115
(dp3116
S'environment'
p3117
S"{'A': <class 'gluon.html.A'>, 'Auth': <class 'gluon.tools.Auth'>, 'B': <class 'gluon.html.B'>, 'BEAUTIFY': <class 'gluon.html.BEAUTIFY'>, 'BODY': <class 'gluon.html.BODY'>, 'BR': <class 'gluon.html.BR'>, 'BUTTON': <class 'gluon.html.BUTTON'>, 'CAT': <class 'gluon.html.CAT'>, 'CENTER': <class 'gluon.html.CENTER'>, 'CLEANUP': <class 'gluon.validators.CLEANUP'>, ...}"
p3118
sS'ccode'
p3119
S'<code object <module> at 0x7f976c26dab0, file "/...ications/music/views/default/index.html", line 1>'
p3120
ssS'lnum'
p3121
I212
sS'lines'
p3122
(dp3123
I207
S'    try:'
p3124
sI208
S'        if isinstance(code, types.CodeType):'
p3125
sI209
S'            ccode = code'
p3126
sI210
S'        else:'
p3127
sI211
S'            ccode = compile2(code, layer)'
p3128
sI212
S'        exec ccode in environment'
p3129
sI213
S'    except HTTP:'
p3130
sI214
S'        raise'
p3131
sI215
S'    except RestrictedError:'
p3132
sI216
S'        # do not encapsulate (obfuscate) the original RestrictedError'
p3133
ssS'call'
p3134
S'(code=\'left_sidebar_enabled,right_sidebar_enabled=False...(\\\'"></script>\\\\n</body>\\\\n</html>\\\\n\\\', escape=False)\', environment={\'A\': <class \'gluon.html.A\'>, \'Auth\': <class \'gluon.tools.Auth\'>, \'B\': <class \'gluon.html.B\'>, \'BEAUTIFY\': <class \'gluon.html.BEAUTIFY\'>, \'BODY\': <class \'gluon.html.BODY\'>, \'BR\': <class \'gluon.html.BR\'>, \'BUTTON\': <class \'gluon.html.BUTTON\'>, \'CAT\': <class \'gluon.html.CAT\'>, \'CENTER\': <class \'gluon.html.CENTER\'>, \'CLEANUP\': <class \'gluon.validators.CLEANUP\'>, ...}, layer=\'/home/wionel/Desktop/web2py/applications/music/views/default/index.html\')'
p3135
sS'func'
p3136
S'restricted'
p3137
sa(dp3138
g3113
S'/home/wionel/Desktop/web2py/applications/music/views/default/index.html'
p3139
sg3115
(dp3140
sg3121
I87
sg3122
(dp3141
I96
S'            response.write(\'">Go to home</a>\\n\\t\\t\\t\', escape=False)'
p3142
sI97
S'            pass'
p3143
sI78
S'response.write(\'\\n\\t\\t\\n        <div class="\', escape=False)'
p3144
sI79
S'response.write(middle_columns)'
p3145
sI80
S'response.write(\'">\\n            \', escape=False)'
p3146
sI81
S"response.write('\\n            ', escape=False)"
p3147
sI82
S"response.write('\\n', escape=False)"
p3148
sI83
S"if 'isloggedin' in globals():"
p3149
sI84
S"    response.write('\\n\\t', escape=False)"
p3150
sI85
S"    if 'playlist_exist' in globals():"
p3151
sI86
S'        response.write(\'\\n<h1  style="color:darkgreen" >\', escape=False)'
p3152
sI87
S'        response.write(playlistName)'
p3153
sI88
S"        response.write('  \\n\\t\\t\\t ', escape=False)"
p3154
sI89
S"        if 'visitor' not in globals():"
p3155
sI90
S'            response.write(\'\\n\\t\\t\\t\\t<a style="margin-left :20px"  class="btn" href="\', escape=False)'
p3156
sI91
S"            response.write(URL('default','playlist'))"
p3157
sI92
S'            response.write(\'">Edit Playlist</a>\\n    \\t\\t\', escape=False)'
p3158
sI93
S'        else:'
p3159
sI94
S'            response.write(\'\\n    \\t\\t\\t<a style="margin-left :20px"  class="btn" href="\', escape=False)'
p3160
sI95
S"            response.write(URL('default','index'))"
p3161
ssg3134
S'()'
p3162
sg3136
S'<module>'
p3163
sasS'pyver'
p3164
S'Python 2.7.3: /usr/bin/python'
p3165
sS'session'
p3166
g57
(g58
g59
NtRp3167
(dp3168
g62
(dp3169
sg64
(lp3170
g57
(g66
g59
NtRp3171
(dp3172
g62
(dp3173
g70
I5
ssg71
Nsg64
(lp3174
g57
(g73
g59
NtRp3175
(dp3176
g62
(dp3177
sg71
g3171
sg64
(lp3178
g57
(g78
g59
NtRp3179
(dp3180
g62
(dp3181
g82
g83
ssg71
g3175
sg64
(lp3182
S'auth'
p3183
asbag57
(g78
g59
NtRp3184
(dp3185
g62
(dp3186
g89
g90
ssg71
g3175
sg64
(lp3187
S':'
asbag57
(g78
g59
NtRp3188
(dp3189
g62
(dp3190
sg71
g3175
sg64
(lp3191
g57
(g58
g59
NtRp3192
(dp3193
g62
(dp3194
g70
I5
ssg71
g3188
sg64
(lp3195
g57
(g66
g59
NtRp3196
(dp3197
g62
(dp3198
g70
I4
ssg71
Nsg64
(lp3199
g57
(g73
g59
NtRp3200
(dp3201
g62
(dp3202
sg71
g3196
sg64
(lp3203
g57
(g78
g59
NtRp3204
(dp3205
g62
(dp3206
g82
g83
ssg71
g3200
sg64
(lp3207
S'expiration'
p3208
asbag57
(g78
g59
NtRp3209
(dp3210
g62
(dp3211
g89
g90
ssg71
g3200
sg64
(lp3212
S':'
asbag57
(g78
g59
NtRp3213
(dp3214
g62
(dp3215
sg71
g3200
sg64
(lp3216
g57
(g58
g59
NtRp3217
(dp3218
g62
(dp3219
g70
I4
ssg71
g3213
sg64
(lp3220
S'3600'
p3221
asbasbasbag57
(g73
g59
NtRp3222
(dp3223
g62
(dp3224
sg71
g3196
sg64
(lp3225
g57
(g78
g59
NtRp3226
(dp3227
g62
(dp3228
g82
g83
ssg71
g3222
sg64
(lp3229
S'hmac_key'
p3230
asbag57
(g78
g59
NtRp3231
(dp3232
g62
(dp3233
g89
g90
ssg71
g3222
sg64
(lp3234
S':'
asbag57
(g78
g59
NtRp3235
(dp3236
g62
(dp3237
sg71
g3222
sg64
(lp3238
g57
(g58
g59
NtRp3239
(dp3240
g62
(dp3241
g70
I4
ssg71
g3235
sg64
(lp3242
S'807832c5-90db-4936-9268-ca21d565e101'
p3243
asbasbasbag57
(g73
g59
NtRp3244
(dp3245
g62
(dp3246
sg71
g3196
sg64
(lp3247
g57
(g78
g59
NtRp3248
(dp3249
g62
(dp3250
g82
g83
ssg71
g3244
sg64
(lp3251
S'last_visit'
p3252
asbag57
(g78
g59
NtRp3253
(dp3254
g62
(dp3255
g89
g90
ssg71
g3244
sg64
(lp3256
S':'
asbag57
(g78
g59
NtRp3257
(dp3258
g62
(dp3259
sg71
g3244
sg64
(lp3260
g57
(g58
g59
NtRp3261
(dp3262
g62
(dp3263
g70
I4
ssg71
g3257
sg64
(lp3264
S'datetime.datetime(2012, 11, 16, 23, 38, 33, 527057)'
p3265
asbasbasbag57
(g73
g59
NtRp3266
(dp3267
g62
(dp3268
sg71
g3196
sg64
(lp3269
g57
(g78
g59
NtRp3270
(dp3271
g62
(dp3272
g82
g83
ssg71
g3266
sg64
(lp3273
S'user'
p3274
asbag57
(g78
g59
NtRp3275
(dp3276
g62
(dp3277
g89
g90
ssg71
g3266
sg64
(lp3278
S':'
asbag57
(g78
g59
NtRp3279
(dp3280
g62
(dp3281
sg71
g3266
sg64
(lp3282
g57
(g58
g59
NtRp3283
(dp3284
g62
(dp3285
g70
I4
ssg71
g3279
sg64
(lp3286
g57
(g66
g59
NtRp3287
(dp3288
g62
(dp3289
g70
I3
ssg71
Nsg64
(lp3290
g57
(g73
g59
NtRp3291
(dp3292
g62
(dp3293
sg71
g3287
sg64
(lp3294
g57
(g78
g59
NtRp3295
(dp3296
g62
(dp3297
g82
g83
ssg71
g3291
sg64
(lp3298
S'email'
p3299
asbag57
(g78
g59
NtRp3300
(dp3301
g62
(dp3302
g89
g90
ssg71
g3291
sg64
(lp3303
S':'
asbag57
(g78
g59
NtRp3304
(dp3305
g62
(dp3306
sg71
g3291
sg64
(lp3307
g57
(g58
g59
NtRp3308
(dp3309
g62
(dp3310
g70
I3
ssg71
g3304
sg64
(lp3311
S'test@yahoo.com'
p3312
asbasbasbag57
(g73
g59
NtRp3313
(dp3314
g62
(dp3315
sg71
g3287
sg64
(lp3316
g57
(g78
g59
NtRp3317
(dp3318
g62
(dp3319
g82
g83
ssg71
g3313
sg64
(lp3320
S'first_name'
p3321
asbag57
(g78
g59
NtRp3322
(dp3323
g62
(dp3324
g89
g90
ssg71
g3313
sg64
(lp3325
S':'
asbag57
(g78
g59
NtRp3326
(dp3327
g62
(dp3328
sg71
g3313
sg64
(lp3329
g57
(g58
g59
NtRp3330
(dp3331
g62
(dp3332
g70
I3
ssg71
g3326
sg64
(lp3333
S'tester'
p3334
asbasbasbag57
(g73
g59
NtRp3335
(dp3336
g62
(dp3337
sg71
g3287
sg64
(lp3338
g57
(g78
g59
NtRp3339
(dp3340
g62
(dp3341
g82
g83
ssg71
g3335
sg64
(lp3342
S'id'
p3343
asbag57
(g78
g59
NtRp3344
(dp3345
g62
(dp3346
g89
g90
ssg71
g3335
sg64
(lp3347
S':'
asbag57
(g78
g59
NtRp3348
(dp3349
g62
(dp3350
sg71
g3335
sg64
(lp3351
g57
(g58
g59
NtRp3352
(dp3353
g62
(dp3354
g70
I3
ssg71
g3348
sg64
(lp3355
S'26'
p3356
asbasbasbag57
(g73
g59
NtRp3357
(dp3358
g62
(dp3359
sg71
g3287
sg64
(lp3360
g57
(g78
g59
NtRp3361
(dp3362
g62
(dp3363
g82
g83
ssg71
g3357
sg64
(lp3364
S'last_name'
p3365
asbag57
(g78
g59
NtRp3366
(dp3367
g62
(dp3368
g89
g90
ssg71
g3357
sg64
(lp3369
S':'
asbag57
(g78
g59
NtRp3370
(dp3371
g62
(dp3372
sg71
g3357
sg64
(lp3373
g57
(g58
g59
NtRp3374
(dp3375
g62
(dp3376
g70
I3
ssg71
g3370
sg64
(lp3377
S'test'
p3378
asbasbasbag57
(g73
g59
NtRp3379
(dp3380
g62
(dp3381
sg71
g3287
sg64
(lp3382
g57
(g78
g59
NtRp3383
(dp3384
g62
(dp3385
g82
g83
ssg71
g3379
sg64
(lp3386
S'registration_id'
p3387
asbag57
(g78
g59
NtRp3388
(dp3389
g62
(dp3390
g89
g90
ssg71
g3379
sg64
(lp3391
S':'
asbag57
(g78
g59
NtRp3392
(dp3393
g62
(dp3394
sg71
g3379
sg64
(lp3395
g57
(g58
g59
NtRp3396
(dp3397
g62
(dp3398
g70
I3
ssg71
g3392
sg64
(lp3399
S''
asbasbasbag57
(g73
g59
NtRp3400
(dp3401
g62
(dp3402
sg71
g3287
sg64
(lp3403
g57
(g78
g59
NtRp3404
(dp3405
g62
(dp3406
g82
g83
ssg71
g3400
sg64
(lp3407
S'registration_key'
p3408
asbag57
(g78
g59
NtRp3409
(dp3410
g62
(dp3411
g89
g90
ssg71
g3400
sg64
(lp3412
S':'
asbag57
(g78
g59
NtRp3413
(dp3414
g62
(dp3415
sg71
g3400
sg64
(lp3416
g57
(g58
g59
NtRp3417
(dp3418
g62
(dp3419
g70
I3
ssg71
g3413
sg64
(lp3420
S''
asbasbasbag57
(g73
g59
NtRp3421
(dp3422
g62
(dp3423
sg71
g3287
sg64
(lp3424
g57
(g78
g59
NtRp3425
(dp3426
g62
(dp3427
g82
g83
ssg71
g3421
sg64
(lp3428
S'reset_password_key'
p3429
asbag57
(g78
g59
NtRp3430
(dp3431
g62
(dp3432
g89
g90
ssg71
g3421
sg64
(lp3433
S':'
asbag57
(g78
g59
NtRp3434
(dp3435
g62
(dp3436
sg71
g3421
sg64
(lp3437
g57
(g58
g59
NtRp3438
(dp3439
g62
(dp3440
g70
I3
ssg71
g3434
sg64
(lp3441
S''
asbasbasbasbasbasbasbag57
(g73
g59
NtRp3442
(dp3443
g62
(dp3444
sg71
g3196
sg64
(lp3445
g57
(g78
g59
NtRp3446
(dp3447
g62
(dp3448
g82
g83
ssg71
g3442
sg64
(lp3449
S'user_groups'
p3450
asbag57
(g78
g59
NtRp3451
(dp3452
g62
(dp3453
g89
g90
ssg71
g3442
sg64
(lp3454
S':'
asbag57
(g78
g59
NtRp3455
(dp3456
g62
(dp3457
sg71
g3442
sg64
(lp3458
g57
(g58
g59
NtRp3459
(dp3460
g62
(dp3461
g70
I4
ssg71
g3455
sg64
(lp3462
g57
(g66
g59
NtRp3463
(dp3464
g62
(dp3465
g70
I3
ssg71
Nsg64
(lp3466
g57
(g73
g59
NtRp3467
(dp3468
g62
(dp3469
sg71
g3463
sg64
(lp3470
g57
(g78
g59
NtRp3471
(dp3472
g62
(dp3473
g82
g83
ssg71
g3467
sg64
(lp3474
S'25'
p3475
asbag57
(g78
g59
NtRp3476
(dp3477
g62
(dp3478
g89
g90
ssg71
g3467
sg64
(lp3479
S':'
asbag57
(g78
g59
NtRp3480
(dp3481
g62
(dp3482
sg71
g3467
sg64
(lp3483
g57
(g58
g59
NtRp3484
(dp3485
g62
(dp3486
g70
I3
ssg71
g3480
sg64
(lp3487
S'user_26'
p3488
asbasbasbasbasbasbasbasbasbasbasbag57
(g73
g59
NtRp3489
(dp3490
g62
(dp3491
sg71
g3171
sg64
(lp3492
g57
(g78
g59
NtRp3493
(dp3494
g62
(dp3495
g82
g83
ssg71
g3489
sg64
(lp3496
S'flash'
p3497
asbag57
(g78
g59
NtRp3498
(dp3499
g62
(dp3500
g89
g90
ssg71
g3489
sg64
(lp3501
S':'
asbag57
(g78
g59
NtRp3502
(dp3503
g62
(dp3504
sg71
g3489
sg64
(lp3505
g57
(g58
g59
NtRp3506
(dp3507
g62
(dp3508
g70
I5
ssg71
g3502
sg64
(lp3509
S'None'
p3510
asbasbasbasbasbsS'etype'
p3511
S"<type 'exceptions.NameError'>"
p3512
sS'date'
p3513
S'Fri Nov 16 23:38:33 2012'
p3514
sS'response'
p3515
g57
(g58
g59
NtRp3516
(dp3517
g62
(dp3518
sg64
(lp3519
g57
(g66
g59
NtRp3520
(dp3521
g62
(dp3522
g70
I5
ssg71
Nsg64
(lp3523
g57
(g73
g59
NtRp3524
(dp3525
g62
(dp3526
sg71
g3520
sg64
(lp3527
g57
(g78
g59
NtRp3528
(dp3529
g62
(dp3530
g82
g83
ssg71
g3524
sg64
(lp3531
g168
asbag57
(g78
g59
NtRp3532
(dp3533
g62
(dp3534
g89
g90
ssg71
g3524
sg64
(lp3535
S':'
asbag57
(g78
g59
NtRp3536
(dp3537
g62
(dp3538
sg71
g3524
sg64
(lp3539
g57
(g58
g59
NtRp3540
(dp3541
g62
(dp3542
g70
I5
ssg71
g3536
sg64
(lp3543
S'<cStringIO.StringO object at 0x7f97943c09d0>'
p3544
asbasbasbag57
(g73
g59
NtRp3545
(dp3546
g62
(dp3547
sg71
g3520
sg64
(lp3548
g57
(g78
g59
NtRp3549
(dp3550
g62
(dp3551
g82
g83
ssg71
g3545
sg64
(lp3552
g256
asbag57
(g78
g59
NtRp3553
(dp3554
g62
(dp3555
g89
g90
ssg71
g3545
sg64
(lp3556
S':'
asbag57
(g78
g59
NtRp3557
(dp3558
g62
(dp3559
sg71
g3545
sg64
(lp3560
g57
(g58
g59
NtRp3561
(dp3562
g62
(dp3563
g70
I5
ssg71
g3557
sg64
(lp3564
g57
(g66
g59
NtRp3565
(dp3566
g62
(dp3567
g70
I4
ssg71
Nsg64
(lp3568
g57
(g73
g59
NtRp3569
(dp3570
g62
(dp3571
sg71
g3565
sg64
(lp3572
g57
(g78
g59
NtRp3573
(dp3574
g62
(dp3575
g82
g83
ssg71
g3569
sg64
(lp3576
S'session_id_music'
p3577
asbag57
(g78
g59
NtRp3578
(dp3579
g62
(dp3580
g89
g90
ssg71
g3569
sg64
(lp3581
S':'
asbag57
(g78
g59
NtRp3582
(dp3583
g62
(dp3584
sg71
g3569
sg64
(lp3585
g57
(g58
g59
NtRp3586
(dp3587
g62
(dp3588
g70
I4
ssg71
g3582
sg64
(lp3589
g488
ag57
(g66
g59
NtRp3590
(dp3591
g62
(dp3592
g70
I3
ssg71
Nsg64
(lp3593
g57
(g73
g59
NtRp3594
(dp3595
g62
(dp3596
sg71
g3590
sg64
(lp3597
g57
(g78
g59
NtRp3598
(dp3599
g62
(dp3600
g82
g83
ssg71
g3594
sg64
(lp3601
g307
asbag57
(g78
g59
NtRp3602
(dp3603
g62
(dp3604
g89
g90
ssg71
g3594
sg64
(lp3605
S':'
asbag57
(g78
g59
NtRp3606
(dp3607
g62
(dp3608
sg71
g3594
sg64
(lp3609
g57
(g58
g59
NtRp3610
(dp3611
g62
(dp3612
g70
I3
ssg71
g3606
sg64
(lp3613
S''
asbasbasbag57
(g73
g59
NtRp3614
(dp3615
g62
(dp3616
sg71
g3590
sg64
(lp3617
g57
(g78
g59
NtRp3618
(dp3619
g62
(dp3620
g82
g83
ssg71
g3614
sg64
(lp3621
g328
asbag57
(g78
g59
NtRp3622
(dp3623
g62
(dp3624
g89
g90
ssg71
g3614
sg64
(lp3625
S':'
asbag57
(g78
g59
NtRp3626
(dp3627
g62
(dp3628
sg71
g3614
sg64
(lp3629
g57
(g58
g59
NtRp3630
(dp3631
g62
(dp3632
g70
I3
ssg71
g3626
sg64
(lp3633
S''
asbasbasbag57
(g73
g59
NtRp3634
(dp3635
g62
(dp3636
sg71
g3590
sg64
(lp3637
g57
(g78
g59
NtRp3638
(dp3639
g62
(dp3640
g82
g83
ssg71
g3634
sg64
(lp3641
g349
asbag57
(g78
g59
NtRp3642
(dp3643
g62
(dp3644
g89
g90
ssg71
g3634
sg64
(lp3645
S':'
asbag57
(g78
g59
NtRp3646
(dp3647
g62
(dp3648
sg71
g3634
sg64
(lp3649
g57
(g58
g59
NtRp3650
(dp3651
g62
(dp3652
g70
I3
ssg71
g3646
sg64
(lp3653
S''
asbasbasbag57
(g73
g59
NtRp3654
(dp3655
g62
(dp3656
sg71
g3590
sg64
(lp3657
g57
(g78
g59
NtRp3658
(dp3659
g62
(dp3660
g82
g83
ssg71
g3654
sg64
(lp3661
g370
asbag57
(g78
g59
NtRp3662
(dp3663
g62
(dp3664
g89
g90
ssg71
g3654
sg64
(lp3665
S':'
asbag57
(g78
g59
NtRp3666
(dp3667
g62
(dp3668
sg71
g3654
sg64
(lp3669
g57
(g58
g59
NtRp3670
(dp3671
g62
(dp3672
g70
I3
ssg71
g3666
sg64
(lp3673
S''
asbasbasbag57
(g73
g59
NtRp3674
(dp3675
g62
(dp3676
sg71
g3590
sg64
(lp3677
g57
(g78
g59
NtRp3678
(dp3679
g62
(dp3680
g82
g83
ssg71
g3674
sg64
(lp3681
g391
asbag57
(g78
g59
NtRp3682
(dp3683
g62
(dp3684
g89
g90
ssg71
g3674
sg64
(lp3685
S':'
asbag57
(g78
g59
NtRp3686
(dp3687
g62
(dp3688
sg71
g3674
sg64
(lp3689
g57
(g58
g59
NtRp3690
(dp3691
g62
(dp3692
g70
I3
ssg71
g3686
sg64
(lp3693
S''
asbasbasbag57
(g73
g59
NtRp3694
(dp3695
g62
(dp3696
sg71
g3590
sg64
(lp3697
g57
(g78
g59
NtRp3698
(dp3699
g62
(dp3700
g82
g83
ssg71
g3694
sg64
(lp3701
g412
asbag57
(g78
g59
NtRp3702
(dp3703
g62
(dp3704
g89
g90
ssg71
g3694
sg64
(lp3705
S':'
asbag57
(g78
g59
NtRp3706
(dp3707
g62
(dp3708
sg71
g3694
sg64
(lp3709
g57
(g58
g59
NtRp3710
(dp3711
g62
(dp3712
g70
I3
ssg71
g3706
sg64
(lp3713
S'/'
asbasbasbag57
(g73
g59
NtRp3714
(dp3715
g62
(dp3716
sg71
g3590
sg64
(lp3717
g57
(g78
g59
NtRp3718
(dp3719
g62
(dp3720
g82
g83
ssg71
g3714
sg64
(lp3721
g433
asbag57
(g78
g59
NtRp3722
(dp3723
g62
(dp3724
g89
g90
ssg71
g3714
sg64
(lp3725
S':'
asbag57
(g78
g59
NtRp3726
(dp3727
g62
(dp3728
sg71
g3714
sg64
(lp3729
g57
(g58
g59
NtRp3730
(dp3731
g62
(dp3732
g70
I3
ssg71
g3726
sg64
(lp3733
S''
asbasbasbag57
(g73
g59
NtRp3734
(dp3735
g62
(dp3736
sg71
g3590
sg64
(lp3737
g57
(g78
g59
NtRp3738
(dp3739
g62
(dp3740
g82
g83
ssg71
g3734
sg64
(lp3741
g454
asbag57
(g78
g59
NtRp3742
(dp3743
g62
(dp3744
g89
g90
ssg71
g3734
sg64
(lp3745
S':'
asbag57
(g78
g59
NtRp3746
(dp3747
g62
(dp3748
sg71
g3734
sg64
(lp3749
g57
(g58
g59
NtRp3750
(dp3751
g62
(dp3752
g70
I3
ssg71
g3746
sg64
(lp3753
S''
asbasbasbasbasbasbasbasbasbasbasbag57
(g73
g59
NtRp3754
(dp3755
g62
(dp3756
sg71
g3520
sg64
(lp3757
g57
(g78
g59
NtRp3758
(dp3759
g62
(dp3760
g82
g83
ssg71
g3754
sg64
(lp3761
S'delimiters'
p3762
asbag57
(g78
g59
NtRp3763
(dp3764
g62
(dp3765
g89
g90
ssg71
g3754
sg64
(lp3766
S':'
asbag57
(g78
g59
NtRp3767
(dp3768
g62
(dp3769
sg71
g3754
sg64
(lp3770
g57
(g58
g59
NtRp3771
(dp3772
g62
(dp3773
g70
I5
ssg71
g3767
sg64
(lp3774
g57
(g66
g59
NtRp3775
(dp3776
g62
(dp3777
g70
I4
ssg71
Nsg64
(lp3778
g57
(g73
g59
NtRp3779
(dp3780
g62
(dp3781
sg71
g3775
sg64
(lp3782
g57
(g78
g59
NtRp3783
(dp3784
g62
(dp3785
sg71
g3779
sg64
(lp3786
g57
(g58
g59
NtRp3787
(dp3788
g62
(dp3789
g70
I4
ssg71
g3783
sg64
(lp3790
S'{{'
p3791
asbasbasbag57
(g73
g59
NtRp3792
(dp3793
g62
(dp3794
sg71
g3775
sg64
(lp3795
g57
(g78
g59
NtRp3796
(dp3797
g62
(dp3798
sg71
g3792
sg64
(lp3799
g57
(g58
g59
NtRp3800
(dp3801
g62
(dp3802
g70
I4
ssg71
g3796
sg64
(lp3803
S'}}'
p3804
asbasbasbasbasbasbasbag57
(g73
g59
NtRp3805
(dp3806
g62
(dp3807
sg71
g3520
sg64
(lp3808
g57
(g78
g59
NtRp3809
(dp3810
g62
(dp3811
g82
g83
ssg71
g3805
sg64
(lp3812
S'files'
p3813
asbag57
(g78
g59
NtRp3814
(dp3815
g62
(dp3816
g89
g90
ssg71
g3805
sg64
(lp3817
S':'
asbag57
(g78
g59
NtRp3818
(dp3819
g62
(dp3820
sg71
g3805
sg64
(lp3821
g57
(g58
g59
NtRp3822
(dp3823
g62
(dp3824
g70
I5
ssg71
g3818
sg64
(lp3825
g57
(g66
g59
NtRp3826
(dp3827
g62
(dp3828
g70
I4
ssg71
Nsg64
(lp3829
g57
(g73
g59
NtRp3830
(dp3831
g62
(dp3832
sg71
g3826
sg64
(lp3833
g57
(g78
g59
NtRp3834
(dp3835
g62
(dp3836
sg71
g3830
sg64
(lp3837
g57
(g58
g59
NtRp3838
(dp3839
g62
(dp3840
g70
I4
ssg71
g3834
sg64
(lp3841
S'/music/static/js/jquery.js'
p3842
asbasbasbag57
(g73
g59
NtRp3843
(dp3844
g62
(dp3845
sg71
g3826
sg64
(lp3846
g57
(g78
g59
NtRp3847
(dp3848
g62
(dp3849
sg71
g3843
sg64
(lp3850
g57
(g58
g59
NtRp3851
(dp3852
g62
(dp3853
g70
I4
ssg71
g3847
sg64
(lp3854
S'/music/static/css/calendar.css'
p3855
asbasbasbag57
(g73
g59
NtRp3856
(dp3857
g62
(dp3858
sg71
g3826
sg64
(lp3859
g57
(g78
g59
NtRp3860
(dp3861
g62
(dp3862
sg71
g3856
sg64
(lp3863
g57
(g58
g59
NtRp3864
(dp3865
g62
(dp3866
g70
I4
ssg71
g3860
sg64
(lp3867
S'/music/static/js/calendar.js'
p3868
asbasbasbag57
(g73
g59
NtRp3869
(dp3870
g62
(dp3871
sg71
g3826
sg64
(lp3872
g57
(g78
g59
NtRp3873
(dp3874
g62
(dp3875
sg71
g3869
sg64
(lp3876
g57
(g58
g59
NtRp3877
(dp3878
g62
(dp3879
g70
I4
ssg71
g3873
sg64
(lp3880
S'/music/static/js/web2py.js'
p3881
asbasbasbag57
(g73
g59
NtRp3882
(dp3883
g62
(dp3884
sg71
g3826
sg64
(lp3885
g57
(g78
g59
NtRp3886
(dp3887
g62
(dp3888
sg71
g3882
sg64
(lp3889
g57
(g58
g59
NtRp3890
(dp3891
g62
(dp3892
g70
I4
ssg71
g3886
sg64
(lp3893
S'/music/static/css/web2py.css'
p3894
asbasbasbag57
(g73
g59
NtRp3895
(dp3896
g62
(dp3897
sg71
g3826
sg64
(lp3898
g57
(g78
g59
NtRp3899
(dp3900
g62
(dp3901
sg71
g3895
sg64
(lp3902
g57
(g58
g59
NtRp3903
(dp3904
g62
(dp3905
g70
I4
ssg71
g3899
sg64
(lp3906
S'/music/static/css/bootstrap.min.css'
p3907
asbasbasbag57
(g73
g59
NtRp3908
(dp3909
g62
(dp3910
sg71
g3826
sg64
(lp3911
g57
(g78
g59
NtRp3912
(dp3913
g62
(dp3914
sg71
g3908
sg64
(lp3915
g57
(g58
g59
NtRp3916
(dp3917
g62
(dp3918
g70
I4
ssg71
g3912
sg64
(lp3919
S'/music/static/css/bootstrap-responsive.min.css'
p3920
asbasbasbag57
(g73
g59
NtRp3921
(dp3922
g62
(dp3923
sg71
g3826
sg64
(lp3924
g57
(g78
g59
NtRp3925
(dp3926
g62
(dp3927
sg71
g3921
sg64
(lp3928
g57
(g58
g59
NtRp3929
(dp3930
g62
(dp3931
g70
I4
ssg71
g3925
sg64
(lp3932
S'/music/static/css/web2py_bootstrap.css'
p3933
asbasbasbasbasbasbasbag57
(g73
g59
NtRp3934
(dp3935
g62
(dp3936
sg71
g3520
sg64
(lp3937
g57
(g78
g59
NtRp3938
(dp3939
g62
(dp3940
g82
g83
ssg71
g3934
sg64
(lp3941
S'flash'
p3942
asbag57
(g78
g59
NtRp3943
(dp3944
g62
(dp3945
g89
g90
ssg71
g3934
sg64
(lp3946
S':'
asbag57
(g78
g59
NtRp3947
(dp3948
g62
(dp3949
sg71
g3934
sg64
(lp3950
g57
(g58
g59
NtRp3951
(dp3952
g62
(dp3953
g70
I5
ssg71
g3947
sg64
(lp3954
S''
asbasbasbag57
(g73
g59
NtRp3955
(dp3956
g62
(dp3957
sg71
g3520
sg64
(lp3958
g57
(g78
g59
NtRp3959
(dp3960
g62
(dp3961
g82
g83
ssg71
g3955
sg64
(lp3962
S'generic_patterns'
p3963
asbag57
(g78
g59
NtRp3964
(dp3965
g62
(dp3966
g89
g90
ssg71
g3955
sg64
(lp3967
S':'
asbag57
(g78
g59
NtRp3968
(dp3969
g62
(dp3970
sg71
g3955
sg64
(lp3971
g57
(g58
g59
NtRp3972
(dp3973
g62
(dp3974
g70
I5
ssg71
g3968
sg64
(lp3975
g57
(g66
g59
NtRp3976
(dp3977
g62
(dp3978
g70
I4
ssg71
Nsg64
(lp3979
g57
(g73
g59
NtRp3980
(dp3981
g62
(dp3982
sg71
g3976
sg64
(lp3983
g57
(g78
g59
NtRp3984
(dp3985
g62
(dp3986
sg71
g3980
sg64
(lp3987
g57
(g58
g59
NtRp3988
(dp3989
g62
(dp3990
g70
I4
ssg71
g3984
sg64
(lp3991
S'*'
asbasbasbasbasbasbasbag57
(g73
g59
NtRp3992
(dp3993
g62
(dp3994
sg71
g3520
sg64
(lp3995
g57
(g78
g59
NtRp3996
(dp3997
g62
(dp3998
g82
g83
ssg71
g3992
sg64
(lp3999
S'google_analytics_id'
p4000
asbag57
(g78
g59
NtRp4001
(dp4002
g62
(dp4003
g89
g90
ssg71
g3992
sg64
(lp4004
S':'
asbag57
(g78
g59
NtRp4005
(dp4006
g62
(dp4007
sg71
g3992
sg64
(lp4008
g57
(g58
g59
NtRp4009
(dp4010
g62
(dp4011
g70
I5
ssg71
g4005
sg64
(lp4012
S'None'
p4013
asbasbasbag57
(g73
g59
NtRp4014
(dp4015
g62
(dp4016
sg71
g3520
sg64
(lp4017
g57
(g78
g59
NtRp4018
(dp4019
g62
(dp4020
g82
g83
ssg71
g4014
sg64
(lp4021
S'headers'
p4022
asbag57
(g78
g59
NtRp4023
(dp4024
g62
(dp4025
g89
g90
ssg71
g4014
sg64
(lp4026
S':'
asbag57
(g78
g59
NtRp4027
(dp4028
g62
(dp4029
sg71
g4014
sg64
(lp4030
g57
(g58
g59
NtRp4031
(dp4032
g62
(dp4033
g70
I5
ssg71
g4027
sg64
(lp4034
g57
(g66
g59
NtRp4035
(dp4036
g62
(dp4037
g70
I4
ssg71
Nsg64
(lp4038
g57
(g73
g59
NtRp4039
(dp4040
g62
(dp4041
sg71
g4035
sg64
(lp4042
g57
(g78
g59
NtRp4043
(dp4044
g62
(dp4045
g82
g83
ssg71
g4039
sg64
(lp4046
S'X-Powered-By'
p4047
asbag57
(g78
g59
NtRp4048
(dp4049
g62
(dp4050
g89
g90
ssg71
g4039
sg64
(lp4051
S':'
asbag57
(g78
g59
NtRp4052
(dp4053
g62
(dp4054
sg71
g4039
sg64
(lp4055
g57
(g58
g59
NtRp4056
(dp4057
g62
(dp4058
g70
I4
ssg71
g4052
sg64
(lp4059
S'web2py'
p4060
asbasbasbasbasbasbasbag57
(g73
g59
NtRp4061
(dp4062
g62
(dp4063
sg71
g3520
sg64
(lp4064
g57
(g78
g59
NtRp4065
(dp4066
g62
(dp4067
g82
g83
ssg71
g4061
sg64
(lp4068
S'menu'
p4069
asbag57
(g78
g59
NtRp4070
(dp4071
g62
(dp4072
g89
g90
ssg71
g4061
sg64
(lp4073
S':'
asbag57
(g78
g59
NtRp4074
(dp4075
g62
(dp4076
sg71
g4061
sg64
(lp4077
g57
(g58
g59
NtRp4078
(dp4079
g62
(dp4080
g70
I5
ssg71
g4074
sg64
(lp4081
g57
(g66
g59
NtRp4082
(dp4083
g62
(dp4084
g70
I4
ssg71
Nsg64
(lp4085
g57
(g73
g59
NtRp4086
(dp4087
g62
(dp4088
sg71
g4082
sg64
(lp4089
g57
(g78
g59
NtRp4090
(dp4091
g62
(dp4092
sg71
g4086
sg64
(lp4093
g57
(g58
g59
NtRp4094
(dp4095
g62
(dp4096
g70
I4
ssg71
g4090
sg64
(lp4097
g57
(g66
g59
NtRp4098
(dp4099
g62
(dp4100
g70
I3
ssg71
Nsg64
(lp4101
g57
(g73
g59
NtRp4102
(dp4103
g62
(dp4104
sg71
g4098
sg64
(lp4105
g57
(g78
g59
NtRp4106
(dp4107
g62
(dp4108
sg71
g4102
sg64
(lp4109
g57
(g58
g59
NtRp4110
(dp4111
g62
(dp4112
g70
I3
ssg71
g4106
sg64
(lp4113
cgluon.languages
lazyT_unpickle
p4114
(S's\x04\x00\x00\x00Home'
tRp4115
asbasbasbag57
(g73
g59
NtRp4116
(dp4117
g62
(dp4118
sg71
g4098
sg64
(lp4119
g57
(g78
g59
NtRp4120
(dp4121
g62
(dp4122
sg71
g4116
sg64
(lp4123
g57
(g58
g59
NtRp4124
(dp4125
g62
(dp4126
g70
I3
ssg71
g4120
sg64
(lp4127
g100
asbasbasbag57
(g73
g59
NtRp4128
(dp4129
g62
(dp4130
sg71
g4098
sg64
(lp4131
g57
(g78
g59
NtRp4132
(dp4133
g62
(dp4134
sg71
g4128
sg64
(lp4135
g57
(g58
g59
NtRp4136
(dp4137
g62
(dp4138
g70
I3
ssg71
g4132
sg64
(lp4139
S'/music/default/index'
p4140
asbasbasbag57
(g73
g59
NtRp4141
(dp4142
g62
(dp4143
sg71
g4098
sg64
(lp4144
g57
(g78
g59
NtRp4145
(dp4146
g62
(dp4147
sg71
g4141
sg64
(lp4148
g57
(g58
g59
NtRp4149
(dp4150
g62
(dp4151
g70
I3
ssg71
g4145
sg64
(lp4152
g57
(g66
g59
NtRp4153
(dp4154
g62
(dp4155
g70
I2
ssg71
Nsg64
(lp4156
sbasbasbasbasbasbasbasbag57
(g73
g59
NtRp4157
(dp4158
g62
(dp4159
sg71
g4082
sg64
(lp4160
g57
(g78
g59
NtRp4161
(dp4162
g62
(dp4163
sg71
g4157
sg64
(lp4164
g57
(g58
g59
NtRp4165
(dp4166
g62
(dp4167
g70
I4
ssg71
g4161
sg64
(lp4168
g57
(g66
g59
NtRp4169
(dp4170
g62
(dp4171
g70
I3
ssg71
Nsg64
(lp4172
g57
(g73
g59
NtRp4173
(dp4174
g62
(dp4175
sg71
g4169
sg64
(lp4176
g57
(g78
g59
NtRp4177
(dp4178
g62
(dp4179
sg71
g4173
sg64
(lp4180
g57
(g58
g59
NtRp4181
(dp4182
g62
(dp4183
g70
I3
ssg71
g4177
sg64
(lp4184
g57
(cgluon.html
SPAN
p4185
g59
NtRp4186
(dp4187
g62
(dp4188
S'_class'
p4189
S'highlighted'
p4190
ssg71
Nsg64
(lp4191
g4060
asbasbasbasbag57
(g73
g59
NtRp4192
(dp4193
g62
(dp4194
sg71
g4169
sg64
(lp4195
g57
(g78
g59
NtRp4196
(dp4197
g62
(dp4198
sg71
g4192
sg64
(lp4199
g57
(g58
g59
NtRp4200
(dp4201
g62
(dp4202
g70
I3
ssg71
g4196
sg64
(lp4203
g100
asbasbasbag57
(g73
g59
NtRp4204
(dp4205
g62
(dp4206
sg71
g4169
sg64
(lp4207
g57
(g78
g59
NtRp4208
(dp4209
g62
(dp4210
sg71
g4204
sg64
(lp4211
g57
(g58
g59
NtRp4212
(dp4213
g62
(dp4214
g70
I3
ssg71
g4208
sg64
(lp4215
S'http://web2py.com'
p4216
asbasbasbag57
(g73
g59
NtRp4217
(dp4218
g62
(dp4219
sg71
g4169
sg64
(lp4220
g57
(g78
g59
NtRp4221
(dp4222
g62
(dp4223
sg71
g4217
sg64
(lp4224
g57
(g58
g59
NtRp4225
(dp4226
g62
(dp4227
g70
I3
ssg71
g4221
sg64
(lp4228
g57
(g66
g59
NtRp4229
(dp4230
g62
(dp4231
g70
I2
ssg71
Nsg64
(lp4232
g57
(g73
g59
NtRp4233
(dp4234
g62
(dp4235
sg71
g4229
sg64
(lp4236
g57
(g78
g59
NtRp4237
(dp4238
g62
(dp4239
sg71
g4233
sg64
(lp4240
g57
(g58
g59
NtRp4241
(dp4242
g62
(dp4243
g70
I2
ssg71
g4237
sg64
(lp4244
g57
(g66
g59
NtRp4245
(dp4246
g62
(dp4247
g70
I1
ssg71
Nsg64
(lp4248
g57
(g73
g59
NtRp4249
(dp4250
g62
(dp4251
sg71
g4245
sg64
(lp4252
g57
(g78
g59
NtRp4253
(dp4254
g62
(dp4255
sg71
g4249
sg64
(lp4256
g57
(g58
g59
NtRp4257
(dp4258
g62
(dp4259
g70
I1
ssg71
g4253
sg64
(lp4260
g4114
(S's\x08\x00\x00\x00My Sites'
tRp4261
asbasbasbag57
(g73
g59
NtRp4262
(dp4263
g62
(dp4264
sg71
g4245
sg64
(lp4265
g57
(g78
g59
NtRp4266
(dp4267
g62
(dp4268
sg71
g4262
sg64
(lp4269
g57
(g58
g59
NtRp4270
(dp4271
g62
(dp4272
g70
I1
ssg71
g4266
sg64
(lp4273
I00
asbasbasbag57
(g73
g59
NtRp4274
(dp4275
g62
(dp4276
sg71
g4245
sg64
(lp4277
g57
(g78
g59
NtRp4278
(dp4279
g62
(dp4280
sg71
g4274
sg64
(lp4281
g57
(g58
g59
NtRp4282
(dp4283
g62
(dp4284
g70
I1
ssg71
g4278
sg64
(lp4285
S'/admin/default/site'
p4286
asbasbasbasbasbasbasbag57
(g73
g59
NtRp4287
(dp4288
g62
(dp4289
sg71
g4229
sg64
(lp4290
g57
(g78
g59
NtRp4291
(dp4292
g62
(dp4293
sg71
g4287
sg64
(lp4294
g57
(g58
g59
NtRp4295
(dp4296
g62
(dp4297
g70
I2
ssg71
g4291
sg64
(lp4298
g57
(g66
g59
NtRp4299
(dp4300
g62
(dp4301
g70
I1
ssg71
Nsg64
(lp4302
g57
(g73
g59
NtRp4303
(dp4304
g62
(dp4305
sg71
g4299
sg64
(lp4306
g57
(g78
g59
NtRp4307
(dp4308
g62
(dp4309
sg71
g4303
sg64
(lp4310
g57
(g58
g59
NtRp4311
(dp4312
g62
(dp4313
g70
I1
ssg71
g4307
sg64
(lp4314
g4114
(S's\x08\x00\x00\x00This App'
tRp4315
asbasbasbag57
(g73
g59
NtRp4316
(dp4317
g62
(dp4318
sg71
g4299
sg64
(lp4319
g57
(g78
g59
NtRp4320
(dp4321
g62
(dp4322
sg71
g4316
sg64
(lp4323
g57
(g58
g59
NtRp4324
(dp4325
g62
(dp4326
g70
I1
ssg71
g4320
sg64
(lp4327
I00
asbasbasbag57
(g73
g59
NtRp4328
(dp4329
g62
(dp4330
sg71
g4299
sg64
(lp4331
g57
(g78
g59
NtRp4332
(dp4333
g62
(dp4334
sg71
g4328
sg64
(lp4335
g57
(g58
g59
NtRp4336
(dp4337
g62
(dp4338
g70
I1
ssg71
g4332
sg64
(lp4339
S'/admin/default/design/music'
p4340
asbasbasbag57
(g73
g59
NtRp4341
(dp4342
g62
(dp4343
sg71
g4299
sg64
(lp4344
g57
(g78
g59
NtRp4345
(dp4346
g62
(dp4347
sg71
g4341
sg64
(lp4348
g57
(g58
g59
NtRp4349
(dp4350
g62
(dp4351
g70
I1
ssg71
g4345
sg64
(lp4352
(lp4353
(g4114
(S's\n\x00\x00\x00Controller'
tRp4354
I00
S'/admin/default/edit/music/controllers/default.py'
tp4355
a(g4114
(S's\x04\x00\x00\x00View'
tRp4356
I00
S'/admin/default/edit/music/views/default/index.html'
tp4357
a(g4114
(S's\x06\x00\x00\x00Layout'
tRp4358
I00
S'/admin/default/edit/music/views/layout.html'
tp4359
a(g4114
(S's\n\x00\x00\x00Stylesheet'
tRp4360
I00
S'/admin/default/edit/music/static/css/web2py.css'
tp4361
a(g4114
(S's\x08\x00\x00\x00DB Model'
tRp4362
I00
S'/admin/default/edit/music/models/db.py'
tp4363
a(g4114
(S's\n\x00\x00\x00Menu Model'
tRp4364
I00
S'/admin/default/edit/music/models/menu.py'
tp4365
a(g4114
(S's\x08\x00\x00\x00Database'
tRp4366
I00
S'/music/appadmin/index'
tp4367
a(g4114
(S's\x06\x00\x00\x00Errors'
tRp4368
I00
S'/admin/default/errors/music'
tp4369
a(g4114
(S's\x05\x00\x00\x00About'
tRp4370
I00
S'/admin/default/about/music'
tp4371
aasbasbasbasbasbasbasbag57
(g73
g59
NtRp4372
(dp4373
g62
(dp4374
sg71
g4229
sg64
(lp4375
g57
(g78
g59
NtRp4376
(dp4377
g62
(dp4378
sg71
g4372
sg64
(lp4379
g57
(g58
g59
NtRp4380
(dp4381
g62
(dp4382
g70
I2
ssg71
g4376
sg64
(lp4383
g57
(g66
g59
NtRp4384
(dp4385
g62
(dp4386
g70
I1
ssg71
Nsg64
(lp4387
g57
(g73
g59
NtRp4388
(dp4389
g62
(dp4390
sg71
g4384
sg64
(lp4391
g57
(g78
g59
NtRp4392
(dp4393
g62
(dp4394
sg71
g4388
sg64
(lp4395
g57
(g58
g59
NtRp4396
(dp4397
g62
(dp4398
g70
I1
ssg71
g4392
sg64
(lp4399
S'web2py.com'
p4400
asbasbasbag57
(g73
g59
NtRp4401
(dp4402
g62
(dp4403
sg71
g4384
sg64
(lp4404
g57
(g78
g59
NtRp4405
(dp4406
g62
(dp4407
sg71
g4401
sg64
(lp4408
g57
(g58
g59
NtRp4409
(dp4410
g62
(dp4411
g70
I1
ssg71
g4405
sg64
(lp4412
I00
asbasbasbag57
(g73
g59
NtRp4413
(dp4414
g62
(dp4415
sg71
g4384
sg64
(lp4416
g57
(g78
g59
NtRp4417
(dp4418
g62
(dp4419
sg71
g4413
sg64
(lp4420
g57
(g58
g59
NtRp4421
(dp4422
g62
(dp4423
g70
I1
ssg71
g4417
sg64
(lp4424
S'http://www.web2py.com'
p4425
asbasbasbag57
(g73
g59
NtRp4426
(dp4427
g62
(dp4428
sg71
g4384
sg64
(lp4429
g57
(g78
g59
NtRp4430
(dp4431
g62
(dp4432
sg71
g4426
sg64
(lp4433
g57
(g58
g59
NtRp4434
(dp4435
g62
(dp4436
g70
I1
ssg71
g4430
sg64
(lp4437
(lp4438
(g4114
(S's\x08\x00\x00\x00Download'
tRp4439
I00
S'http://www.web2py.com/examples/default/download'
p4440
tp4441
a(g4114
(S's\x07\x00\x00\x00Support'
tRp4442
I00
S'http://www.web2py.com/examples/default/support'
p4443
tp4444
a(g4114
(S's\x04\x00\x00\x00Demo'
tRp4445
I00
S'http://web2py.com/demo_admin'
p4446
tp4447
a(g4114
(S's\x0e\x00\x00\x00Quick Examples'
tRp4448
I00
S'http://web2py.com/examples/default/examples'
p4449
tp4450
a(g4114
(S's\x03\x00\x00\x00FAQ'
tRp4451
I00
S'http://web2py.com/AlterEgo'
p4452
tp4453
a(g4114
(S's\x06\x00\x00\x00Videos'
tRp4454
I00
S'http://www.web2py.com/examples/default/videos/'
p4455
tp4456
a(g4114
(S's\x11\x00\x00\x00Free Applications'
tRp4457
I00
S'http://web2py.com/appliances'
p4458
tp4459
a(g4114
(S's\x07\x00\x00\x00Plugins'
tRp4460
I00
S'http://web2py.com/plugins'
p4461
tp4462
a(g4114
(S's\x07\x00\x00\x00Layouts'
tRp4463
I00
S'http://web2py.com/layouts'
p4464
tp4465
a(g4114
(S's\x07\x00\x00\x00Recipes'
tRp4466
I00
S'http://web2pyslices.com/'
p4467
tp4468
a(g4114
(S's\x08\x00\x00\x00Semantic'
tRp4469
I00
S'http://web2py.com/semantic'
p4470
tp4471
aasbasbasbasbasbasbasbag57
(g73
g59
NtRp4472
(dp4473
g62
(dp4474
sg71
g4229
sg64
(lp4475
g57
(g78
g59
NtRp4476
(dp4477
g62
(dp4478
sg71
g4472
sg64
(lp4479
g57
(g58
g59
NtRp4480
(dp4481
g62
(dp4482
g70
I2
ssg71
g4476
sg64
(lp4483
g57
(g66
g59
NtRp4484
(dp4485
g62
(dp4486
g70
I1
ssg71
Nsg64
(lp4487
g57
(g73
g59
NtRp4488
(dp4489
g62
(dp4490
sg71
g4484
sg64
(lp4491
g57
(g78
g59
NtRp4492
(dp4493
g62
(dp4494
sg71
g4488
sg64
(lp4495
g57
(g58
g59
NtRp4496
(dp4497
g62
(dp4498
g70
I1
ssg71
g4492
sg64
(lp4499
g4114
(S's\r\x00\x00\x00Documentation'
tRp4500
asbasbasbag57
(g73
g59
NtRp4501
(dp4502
g62
(dp4503
sg71
g4484
sg64
(lp4504
g57
(g78
g59
NtRp4505
(dp4506
g62
(dp4507
sg71
g4501
sg64
(lp4508
g57
(g58
g59
NtRp4509
(dp4510
g62
(dp4511
g70
I1
ssg71
g4505
sg64
(lp4512
I00
asbasbasbag57
(g73
g59
NtRp4513
(dp4514
g62
(dp4515
sg71
g4484
sg64
(lp4516
g57
(g78
g59
NtRp4517
(dp4518
g62
(dp4519
sg71
g4513
sg64
(lp4520
g57
(g58
g59
NtRp4521
(dp4522
g62
(dp4523
g70
I1
ssg71
g4517
sg64
(lp4524
S'http://www.web2py.com/book'
p4525
asbasbasbag57
(g73
g59
NtRp4526
(dp4527
g62
(dp4528
sg71
g4484
sg64
(lp4529
g57
(g78
g59
NtRp4530
(dp4531
g62
(dp4532
sg71
g4526
sg64
(lp4533
g57
(g58
g59
NtRp4534
(dp4535
g62
(dp4536
g70
I1
ssg71
g4530
sg64
(lp4537
(lp4538
(g4114
(S's\x07\x00\x00\x00Preface'
tRp4539
I00
S'http://www.web2py.com/book/default/chapter/00'
p4540
tp4541
a(g4114
(S's\x0c\x00\x00\x00Introduction'
tRp4542
I00
S'http://www.web2py.com/book/default/chapter/01'
p4543
tp4544
a(g4114
(S's\x06\x00\x00\x00Python'
tRp4545
I00
S'http://www.web2py.com/book/default/chapter/02'
p4546
tp4547
a(g4114
(S's\x08\x00\x00\x00Overview'
tRp4548
I00
S'http://www.web2py.com/book/default/chapter/03'
p4549
tp4550
a(g4114
(S's\x08\x00\x00\x00The Core'
tRp4551
I00
S'http://www.web2py.com/book/default/chapter/04'
p4552
tp4553
a(g4114
(S's\t\x00\x00\x00The Views'
tRp4554
I00
S'http://www.web2py.com/book/default/chapter/05'
p4555
tp4556
a(g4114
(S's\x08\x00\x00\x00Database'
tRp4557
I00
S'http://www.web2py.com/book/default/chapter/06'
p4558
tp4559
a(g4114
(S's\x14\x00\x00\x00Forms and Validators'
tRp4560
I00
S'http://www.web2py.com/book/default/chapter/07'
p4561
tp4562
a(g4114
(S's\r\x00\x00\x00Email and SMS'
tRp4563
I00
S'http://www.web2py.com/book/default/chapter/08'
p4564
tp4565
a(g4114
(S's\x0e\x00\x00\x00Access Control'
tRp4566
I00
S'http://www.web2py.com/book/default/chapter/09'
p4567
tp4568
a(g4114
(S's\x08\x00\x00\x00Services'
tRp4569
I00
S'http://www.web2py.com/book/default/chapter/10'
p4570
tp4571
a(g4114
(S's\x0c\x00\x00\x00Ajax Recipes'
tRp4572
I00
S'http://www.web2py.com/book/default/chapter/11'
p4573
tp4574
a(g4114
(S's\x16\x00\x00\x00Components and Plugins'
tRp4575
I00
S'http://www.web2py.com/book/default/chapter/12'
p4576
tp4577
a(g4114
(S's\x12\x00\x00\x00Deployment Recipes'
tRp4578
I00
S'http://www.web2py.com/book/default/chapter/13'
p4579
tp4580
a(g4114
(S's\r\x00\x00\x00Other Recipes'
tRp4581
I00
S'http://www.web2py.com/book/default/chapter/14'
p4582
tp4583
a(g4114
(S's\r\x00\x00\x00Buy this book'
tRp4584
I00
S'http://stores.lulu.com/web2py'
p4585
tp4586
aasbasbasbasbasbasbasbag57
(g73
g59
NtRp4587
(dp4588
g62
(dp4589
sg71
g4229
sg64
(lp4590
g57
(g78
g59
NtRp4591
(dp4592
g62
(dp4593
sg71
g4587
sg64
(lp4594
g57
(g58
g59
NtRp4595
(dp4596
g62
(dp4597
g70
I2
ssg71
g4591
sg64
(lp4598
g57
(g66
g59
NtRp4599
(dp4600
g62
(dp4601
g70
I1
ssg71
Nsg64
(lp4602
g57
(g73
g59
NtRp4603
(dp4604
g62
(dp4605
sg71
g4599
sg64
(lp4606
g57
(g78
g59
NtRp4607
(dp4608
g62
(dp4609
sg71
g4603
sg64
(lp4610
g57
(g58
g59
NtRp4611
(dp4612
g62
(dp4613
g70
I1
ssg71
g4607
sg64
(lp4614
g4114
(S's\t\x00\x00\x00Community'
tRp4615
asbasbasbag57
(g73
g59
NtRp4616
(dp4617
g62
(dp4618
sg71
g4599
sg64
(lp4619
g57
(g78
g59
NtRp4620
(dp4621
g62
(dp4622
sg71
g4616
sg64
(lp4623
g57
(g58
g59
NtRp4624
(dp4625
g62
(dp4626
g70
I1
ssg71
g4620
sg64
(lp4627
I00
asbasbasbag57
(g73
g59
NtRp4628
(dp4629
g62
(dp4630
sg71
g4599
sg64
(lp4631
g57
(g78
g59
NtRp4632
(dp4633
g62
(dp4634
sg71
g4628
sg64
(lp4635
g57
(g58
g59
NtRp4636
(dp4637
g62
(dp4638
g70
I1
ssg71
g4632
sg64
(lp4639
Nasbasbasbag57
(g73
g59
NtRp4640
(dp4641
g62
(dp4642
sg71
g4599
sg64
(lp4643
g57
(g78
g59
NtRp4644
(dp4645
g62
(dp4646
sg71
g4640
sg64
(lp4647
g57
(g58
g59
NtRp4648
(dp4649
g62
(dp4650
g70
I1
ssg71
g4644
sg64
(lp4651
(lp4652
(g4114
(S's\x06\x00\x00\x00Groups'
tRp4653
I00
S'http://www.web2py.com/examples/default/usergroups'
p4654
tp4655
a(g4114
(S's\x07\x00\x00\x00Twitter'
tRp4656
I00
S'http://twitter.com/web2py'
p4657
tp4658
a(g4114
(S's\t\x00\x00\x00Live Chat'
tRp4659
I00
S'http://webchat.freenode.net/?channels=web2py'
p4660
tp4661
aasbasbasbasbasbasbasbag57
(g73
g59
NtRp4662
(dp4663
g62
(dp4664
sg71
g4229
sg64
(lp4665
g57
(g78
g59
NtRp4666
(dp4667
g62
(dp4668
sg71
g4662
sg64
(lp4669
g57
(g58
g59
NtRp4670
(dp4671
g62
(dp4672
g70
I2
ssg71
g4666
sg64
(lp4673
g57
(g66
g59
NtRp4674
(dp4675
g62
(dp4676
g70
I1
ssg71
Nsg64
(lp4677
g57
(g73
g59
NtRp4678
(dp4679
g62
(dp4680
sg71
g4674
sg64
(lp4681
g57
(g78
g59
NtRp4682
(dp4683
g62
(dp4684
sg71
g4678
sg64
(lp4685
g57
(g58
g59
NtRp4686
(dp4687
g62
(dp4688
g70
I1
ssg71
g4682
sg64
(lp4689
g4114
(S's\x07\x00\x00\x00Plugins'
tRp4690
asbasbasbag57
(g73
g59
NtRp4691
(dp4692
g62
(dp4693
sg71
g4674
sg64
(lp4694
g57
(g78
g59
NtRp4695
(dp4696
g62
(dp4697
sg71
g4691
sg64
(lp4698
g57
(g58
g59
NtRp4699
(dp4700
g62
(dp4701
g70
I1
ssg71
g4695
sg64
(lp4702
I00
asbasbasbag57
(g73
g59
NtRp4703
(dp4704
g62
(dp4705
sg71
g4674
sg64
(lp4706
g57
(g78
g59
NtRp4707
(dp4708
g62
(dp4709
sg71
g4703
sg64
(lp4710
g57
(g58
g59
NtRp4711
(dp4712
g62
(dp4713
g70
I1
ssg71
g4707
sg64
(lp4714
Nasbasbasbag57
(g73
g59
NtRp4715
(dp4716
g62
(dp4717
sg71
g4674
sg64
(lp4718
g57
(g78
g59
NtRp4719
(dp4720
g62
(dp4721
sg71
g4715
sg64
(lp4722
g57
(g58
g59
NtRp4723
(dp4724
g62
(dp4725
g70
I1
ssg71
g4719
sg64
(lp4726
(lp4727
(S'plugin_wiki'
p4728
I00
S'http://web2py.com/examples/default/download'
p4729
tp4730
a(g4114
(S's\r\x00\x00\x00Other Plugins'
tRp4731
I00
g4461
tp4732
a(g4114
(S's\x0e\x00\x00\x00Layout Plugins'
tRp4733
I00
g4464
tp4734
aasbasbasbasbasbasbasbasbasbasbasbasbasbasbasbasbasbasbasbag57
(g73
g59
NtRp4735
(dp4736
g62
(dp4737
sg71
g3520
sg64
(lp4738
g57
(g78
g59
NtRp4739
(dp4740
g62
(dp4741
g82
g83
ssg71
g4735
sg64
(lp4742
S'meta'
p4743
asbag57
(g78
g59
NtRp4744
(dp4745
g62
(dp4746
g89
g90
ssg71
g4735
sg64
(lp4747
S':'
asbag57
(g78
g59
NtRp4748
(dp4749
g62
(dp4750
sg71
g4735
sg64
(lp4751
g57
(g58
g59
NtRp4752
(dp4753
g62
(dp4754
g70
I5
ssg71
g4748
sg64
(lp4755
g57
(g66
g59
NtRp4756
(dp4757
g62
(dp4758
g70
I4
ssg71
Nsg64
(lp4759
g57
(g73
g59
NtRp4760
(dp4761
g62
(dp4762
sg71
g4756
sg64
(lp4763
g57
(g78
g59
NtRp4764
(dp4765
g62
(dp4766
g82
g83
ssg71
g4760
sg64
(lp4767
S'author'
p4768
asbag57
(g78
g59
NtRp4769
(dp4770
g62
(dp4771
g89
g90
ssg71
g4760
sg64
(lp4772
S':'
asbag57
(g78
g59
NtRp4773
(dp4774
g62
(dp4775
sg71
g4760
sg64
(lp4776
g57
(g58
g59
NtRp4777
(dp4778
g62
(dp4779
g70
I4
ssg71
g4773
sg64
(lp4780
S'Your Name <you@example.com>'
p4781
asbasbasbag57
(g73
g59
NtRp4782
(dp4783
g62
(dp4784
sg71
g4756
sg64
(lp4785
g57
(g78
g59
NtRp4786
(dp4787
g62
(dp4788
g82
g83
ssg71
g4782
sg64
(lp4789
S'description'
p4790
asbag57
(g78
g59
NtRp4791
(dp4792
g62
(dp4793
g89
g90
ssg71
g4782
sg64
(lp4794
S':'
asbag57
(g78
g59
NtRp4795
(dp4796
g62
(dp4797
sg71
g4782
sg64
(lp4798
g57
(g58
g59
NtRp4799
(dp4800
g62
(dp4801
g70
I4
ssg71
g4795
sg64
(lp4802
S'a cool new app'
p4803
asbasbasbag57
(g73
g59
NtRp4804
(dp4805
g62
(dp4806
sg71
g4756
sg64
(lp4807
g57
(g78
g59
NtRp4808
(dp4809
g62
(dp4810
g82
g83
ssg71
g4804
sg64
(lp4811
S'generator'
p4812
asbag57
(g78
g59
NtRp4813
(dp4814
g62
(dp4815
g89
g90
ssg71
g4804
sg64
(lp4816
S':'
asbag57
(g78
g59
NtRp4817
(dp4818
g62
(dp4819
sg71
g4804
sg64
(lp4820
g57
(g58
g59
NtRp4821
(dp4822
g62
(dp4823
g70
I4
ssg71
g4817
sg64
(lp4824
S'Web2py Web Framework'
p4825
asbasbasbag57
(g73
g59
NtRp4826
(dp4827
g62
(dp4828
sg71
g4756
sg64
(lp4829
g57
(g78
g59
NtRp4830
(dp4831
g62
(dp4832
g82
g83
ssg71
g4826
sg64
(lp4833
S'keywords'
p4834
asbag57
(g78
g59
NtRp4835
(dp4836
g62
(dp4837
g89
g90
ssg71
g4826
sg64
(lp4838
S':'
asbag57
(g78
g59
NtRp4839
(dp4840
g62
(dp4841
sg71
g4826
sg64
(lp4842
g57
(g58
g59
NtRp4843
(dp4844
g62
(dp4845
g70
I4
ssg71
g4839
sg64
(lp4846
S'web2py, python, framework'
p4847
asbasbasbasbasbasbasbag57
(g73
g59
NtRp4848
(dp4849
g62
(dp4850
sg71
g3520
sg64
(lp4851
g57
(g78
g59
NtRp4852
(dp4853
g62
(dp4854
g82
g83
ssg71
g4848
sg64
(lp4855
S'models_to_run'
p4856
asbag57
(g78
g59
NtRp4857
(dp4858
g62
(dp4859
g89
g90
ssg71
g4848
sg64
(lp4860
S':'
asbag57
(g78
g59
NtRp4861
(dp4862
g62
(dp4863
sg71
g4848
sg64
(lp4864
g57
(g58
g59
NtRp4865
(dp4866
g62
(dp4867
g70
I5
ssg71
g4861
sg64
(lp4868
g57
(g66
g59
NtRp4869
(dp4870
g62
(dp4871
g70
I4
ssg71
Nsg64
(lp4872
g57
(g73
g59
NtRp4873
(dp4874
g62
(dp4875
sg71
g4869
sg64
(lp4876
g57
(g78
g59
NtRp4877
(dp4878
g62
(dp4879
sg71
g4873
sg64
(lp4880
g57
(g58
g59
NtRp4881
(dp4882
g62
(dp4883
g70
I4
ssg71
g4877
sg64
(lp4884
S'^\\w+\\.py$'
p4885
asbasbasbag57
(g73
g59
NtRp4886
(dp4887
g62
(dp4888
sg71
g4869
sg64
(lp4889
g57
(g78
g59
NtRp4890
(dp4891
g62
(dp4892
sg71
g4886
sg64
(lp4893
g57
(g58
g59
NtRp4894
(dp4895
g62
(dp4896
g70
I4
ssg71
g4890
sg64
(lp4897
S'^default/\\w+\\.py$'
p4898
asbasbasbag57
(g73
g59
NtRp4899
(dp4900
g62
(dp4901
sg71
g4869
sg64
(lp4902
g57
(g78
g59
NtRp4903
(dp4904
g62
(dp4905
sg71
g4899
sg64
(lp4906
g57
(g58
g59
NtRp4907
(dp4908
g62
(dp4909
g70
I4
ssg71
g4903
sg64
(lp4910
S'^default/index/\\w+\\.py$'
p4911
asbasbasbasbasbasbasbag57
(g73
g59
NtRp4912
(dp4913
g62
(dp4914
sg71
g3520
sg64
(lp4915
g57
(g78
g59
NtRp4916
(dp4917
g62
(dp4918
g82
g83
ssg71
g4912
sg64
(lp4919
S'postprocessing'
p4920
asbag57
(g78
g59
NtRp4921
(dp4922
g62
(dp4923
g89
g90
ssg71
g4912
sg64
(lp4924
S':'
asbag57
(g78
g59
NtRp4925
(dp4926
g62
(dp4927
sg71
g4912
sg64
(lp4928
g57
(g58
g59
NtRp4929
(dp4930
g62
(dp4931
g70
I5
ssg71
g4925
sg64
(lp4932
g57
(g66
g59
NtRp4933
(dp4934
g62
(dp4935
g70
I4
ssg71
Nsg64
(lp4936
sbasbasbasbag57
(g73
g59
NtRp4937
(dp4938
g62
(dp4939
sg71
g3520
sg64
(lp4940
g57
(g78
g59
NtRp4941
(dp4942
g62
(dp4943
g82
g83
ssg71
g4937
sg64
(lp4944
S'session_cookie_expires'
p4945
asbag57
(g78
g59
NtRp4946
(dp4947
g62
(dp4948
g89
g90
ssg71
g4937
sg64
(lp4949
S':'
asbag57
(g78
g59
NtRp4950
(dp4951
g62
(dp4952
sg71
g4937
sg64
(lp4953
g57
(g58
g59
NtRp4954
(dp4955
g62
(dp4956
g70
I5
ssg71
g4950
sg64
(lp4957
S'None'
p4958
asbasbasbag57
(g73
g59
NtRp4959
(dp4960
g62
(dp4961
sg71
g3520
sg64
(lp4962
g57
(g78
g59
NtRp4963
(dp4964
g62
(dp4965
g82
g83
ssg71
g4959
sg64
(lp4966
S'session_data_name'
p4967
asbag57
(g78
g59
NtRp4968
(dp4969
g62
(dp4970
g89
g90
ssg71
g4959
sg64
(lp4971
S':'
asbag57
(g78
g59
NtRp4972
(dp4973
g62
(dp4974
sg71
g4959
sg64
(lp4975
g57
(g58
g59
NtRp4976
(dp4977
g62
(dp4978
g70
I5
ssg71
g4972
sg64
(lp4979
S'session_data_music'
p4980
asbasbasbag57
(g73
g59
NtRp4981
(dp4982
g62
(dp4983
sg71
g3520
sg64
(lp4984
g57
(g78
g59
NtRp4985
(dp4986
g62
(dp4987
g82
g83
ssg71
g4981
sg64
(lp4988
S'session_file'
p4989
asbag57
(g78
g59
NtRp4990
(dp4991
g62
(dp4992
g89
g90
ssg71
g4981
sg64
(lp4993
S':'
asbag57
(g78
g59
NtRp4994
(dp4995
g62
(dp4996
sg71
g4981
sg64
(lp4997
g57
(g58
g59
NtRp4998
(dp4999
g62
(dp5000
g70
I5
ssg71
g4994
sg64
(lp5001
S"<open file '/home/wionel/Desktop/web2py/applications/music/sessions/127.0.0.1-3c0cad68-c677-410a-bc7f-6cdf12352d80', mode 'rb+' at 0x7f97940e5c00>"
p5002
asbasbasbag57
(g73
g59
NtRp5003
(dp5004
g62
(dp5005
sg71
g3520
sg64
(lp5006
g57
(g78
g59
NtRp5007
(dp5008
g62
(dp5009
g82
g83
ssg71
g5003
sg64
(lp5010
S'session_filename'
p5011
asbag57
(g78
g59
NtRp5012
(dp5013
g62
(dp5014
g89
g90
ssg71
g5003
sg64
(lp5015
S':'
asbag57
(g78
g59
NtRp5016
(dp5017
g62
(dp5018
sg71
g5003
sg64
(lp5019
g57
(g58
g59
NtRp5020
(dp5021
g62
(dp5022
g70
I5
ssg71
g5016
sg64
(lp5023
S'/home/wionel/Desktop/web2py/applications/music/sessions/127.0.0.1-3c0cad68-c677-410a-bc7f-6cdf12352d80'
p5024
asbasbasbag57
(g73
g59
NtRp5025
(dp5026
g62
(dp5027
sg71
g3520
sg64
(lp5028
g57
(g78
g59
NtRp5029
(dp5030
g62
(dp5031
g82
g83
ssg71
g5025
sg64
(lp5032
S'session_id'
p5033
asbag57
(g78
g59
NtRp5034
(dp5035
g62
(dp5036
g89
g90
ssg71
g5025
sg64
(lp5037
S':'
asbag57
(g78
g59
NtRp5038
(dp5039
g62
(dp5040
sg71
g5025
sg64
(lp5041
g57
(g58
g59
NtRp5042
(dp5043
g62
(dp5044
g70
I5
ssg71
g5038
sg64
(lp5045
g488
asbasbasbag57
(g73
g59
NtRp5046
(dp5047
g62
(dp5048
sg71
g3520
sg64
(lp5049
g57
(g78
g59
NtRp5050
(dp5051
g62
(dp5052
g82
g83
ssg71
g5046
sg64
(lp5053
S'session_id_name'
p5054
asbag57
(g78
g59
NtRp5055
(dp5056
g62
(dp5057
g89
g90
ssg71
g5046
sg64
(lp5058
S':'
asbag57
(g78
g59
NtRp5059
(dp5060
g62
(dp5061
sg71
g5046
sg64
(lp5062
g57
(g58
g59
NtRp5063
(dp5064
g62
(dp5065
g70
I5
ssg71
g5059
sg64
(lp5066
g3577
asbasbasbag57
(g73
g59
NtRp5067
(dp5068
g62
(dp5069
sg71
g3520
sg64
(lp5070
g57
(g78
g59
NtRp5071
(dp5072
g62
(dp5073
g82
g83
ssg71
g5067
sg64
(lp5074
S'session_locked'
p5075
asbag57
(g78
g59
NtRp5076
(dp5077
g62
(dp5078
g89
g90
ssg71
g5067
sg64
(lp5079
S':'
asbag57
(g78
g59
NtRp5080
(dp5081
g62
(dp5082
sg71
g5067
sg64
(lp5083
g57
(g58
g59
NtRp5084
(dp5085
g62
(dp5086
g70
I5
ssg71
g5080
sg64
(lp5087
g1639
asbasbasbag57
(g73
g59
NtRp5088
(dp5089
g62
(dp5090
sg71
g3520
sg64
(lp5091
g57
(g78
g59
NtRp5092
(dp5093
g62
(dp5094
g82
g83
ssg71
g5088
sg64
(lp5095
S'session_new'
p5096
asbag57
(g78
g59
NtRp5097
(dp5098
g62
(dp5099
g89
g90
ssg71
g5088
sg64
(lp5100
S':'
asbag57
(g78
g59
NtRp5101
(dp5102
g62
(dp5103
sg71
g5088
sg64
(lp5104
g57
(g58
g59
NtRp5105
(dp5106
g62
(dp5107
g70
I5
ssg71
g5101
sg64
(lp5108
g100
asbasbasbag57
(g73
g59
NtRp5109
(dp5110
g62
(dp5111
sg71
g3520
sg64
(lp5112
g57
(g78
g59
NtRp5113
(dp5114
g62
(dp5115
g82
g83
ssg71
g5109
sg64
(lp5116
S'session_storage_type'
p5117
asbag57
(g78
g59
NtRp5118
(dp5119
g62
(dp5120
g89
g90
ssg71
g5109
sg64
(lp5121
S':'
asbag57
(g78
g59
NtRp5122
(dp5123
g62
(dp5124
sg71
g5109
sg64
(lp5125
g57
(g58
g59
NtRp5126
(dp5127
g62
(dp5128
g70
I5
ssg71
g5122
sg64
(lp5129
g3113
asbasbasbag57
(g73
g59
NtRp5130
(dp5131
g62
(dp5132
sg71
g3520
sg64
(lp5133
g57
(g78
g59
NtRp5134
(dp5135
g62
(dp5136
g82
g83
ssg71
g5130
sg64
(lp5137
S'status'
p5138
asbag57
(g78
g59
NtRp5139
(dp5140
g62
(dp5141
g89
g90
ssg71
g5130
sg64
(lp5142
S':'
asbag57
(g78
g59
NtRp5143
(dp5144
g62
(dp5145
sg71
g5130
sg64
(lp5146
g57
(g58
g59
NtRp5147
(dp5148
g62
(dp5149
g70
I5
ssg71
g5143
sg64
(lp5150
S'200'
p5151
asbasbasbag57
(g73
g59
NtRp5152
(dp5153
g62
(dp5154
sg71
g3520
sg64
(lp5155
g57
(g78
g59
NtRp5156
(dp5157
g62
(dp5158
g82
g83
ssg71
g5152
sg64
(lp5159
S'subtitle'
p5160
asbag57
(g78
g59
NtRp5161
(dp5162
g62
(dp5163
g89
g90
ssg71
g5152
sg64
(lp5164
S':'
asbag57
(g78
g59
NtRp5165
(dp5166
g62
(dp5167
sg71
g5152
sg64
(lp5168
g57
(g58
g59
NtRp5169
(dp5170
g62
(dp5171
g70
I5
ssg71
g5165
sg64
(lp5172
g4114
(S's\r\x00\x00\x00customize me!'
tRp5173
asbasbasbag57
(g73
g59
NtRp5174
(dp5175
g62
(dp5176
sg71
g3520
sg64
(lp5177
g57
(g78
g59
NtRp5178
(dp5179
g62
(dp5180
g82
g83
ssg71
g5174
sg64
(lp5181
S'title'
p5182
asbag57
(g78
g59
NtRp5183
(dp5184
g62
(dp5185
g89
g90
ssg71
g5174
sg64
(lp5186
S':'
asbag57
(g78
g59
NtRp5187
(dp5188
g62
(dp5189
sg71
g5174
sg64
(lp5190
g57
(g58
g59
NtRp5191
(dp5192
g62
(dp5193
g70
I5
ssg71
g5187
sg64
(lp5194
S'Music'
p5195
asbasbasbag57
(g73
g59
NtRp5196
(dp5197
g62
(dp5198
sg71
g3520
sg64
(lp5199
g57
(g78
g59
NtRp5200
(dp5201
g62
(dp5202
g82
g83
ssg71
g5196
sg64
(lp5203
S'view'
p5204
asbag57
(g78
g59
NtRp5205
(dp5206
g62
(dp5207
g89
g90
ssg71
g5196
sg64
(lp5208
S':'
asbag57
(g78
g59
NtRp5209
(dp5210
g62
(dp5211
sg71
g5196
sg64
(lp5212
g57
(g58
g59
NtRp5213
(dp5214
g62
(dp5215
g70
I5
ssg71
g5209
sg64
(lp5216
S'default/index.html'
p5217
asbasbasbasbasbsS'locals'
p5218
(dp5219
S'Service'
p5220
S"<class 'gluon.tools.Service'>"
p5221
sS'OBJECT'
p5222
S"<class 'gluon.html.OBJECT'>"
p5223
sS'SQLDB'
p5224
S"<class 'gluon.dal.DAL'>"
p5225
sg3166
S"<Storage {'flash': None, '_formkey[register]': '...ssion_hash': '83d15db397accd911ddcc7519b31852f'}>"
p5226
sS'LINK'
p5227
S"<class 'gluon.html.LINK'>"
p5228
sS'BR'
p5229
S"<class 'gluon.html.BR'>"
p5230
sS'local_import'
p5231
S'<function <lambda>>'
p5232
sS'playlist_exist'
p5233
S"'true'"
p5234
sS'isloggedin'
p5235
S"'true'"
p5236
sS'__package__'
p5237
S'None'
p5238
sS'PRE'
p5239
S"<class 'gluon.html.PRE'>"
p5240
sS'IS_INT_IN_RANGE'
p5241
S"<class 'gluon.validators.IS_INT_IN_RANGE'>"
p5242
sS'left_sidebar_enabled'
p5243
g100
sS'IS_LOWER'
p5244
S"<class 'gluon.validators.IS_LOWER'>"
p5245
sS'IS_STRONG'
p5246
S"<class 'gluon.validators.IS_STRONG'>"
p5247
sS'cache'
p5248
S'<gluon.cache.Cache object>'
p5249
sS'IS_IN_DB'
p5250
S"<class 'gluon.validators.IS_IN_DB'>"
p5251
sS'TAG'
p5252
S'<gluon.html.__TAG__ object>'
p5253
sS'SQLField'
p5254
S"<class 'gluon.dal.Field'>"
p5255
sS'mail'
p5256
S'<gluon.tools.Mail object>'
p5257
sS'BODY'
p5258
S"<class 'gluon.html.BODY'>"
p5259
sS'IS_DATE_IN_RANGE'
p5260
S"<class 'gluon.validators.IS_DATE_IN_RANGE'>"
p5261
sS'IFRAME'
p5262
S"<class 'gluon.html.IFRAME'>"
p5263
sS'URL'
p5264
S'<function URL>'
p5265
sS'__file__'
p5266
S"'/home/wionel/Desktop/web2py/applications/music/views/default/index.html'"
p5267
sS'db'
p5268
S'<DAL uri="sqlite://storage.sqlite">'
p5269
sS'auth'
p5270
S'<gluon.tools.Auth object>'
p5271
sS'P'
S"<class 'gluon.html.P'>"
p5272
sS'TFOOT'
p5273
S"<class 'gluon.html.TFOOT'>"
p5274
sS'XHTML'
p5275
S"<class 'gluon.html.XHTML'>"
p5276
sS'public_playlists'
p5277
S'<Rows (12)>'
p5278
sS'ON'
p5279
g1639
sS'OL'
p5280
S"<class 'gluon.html.OL'>"
p5281
sS'TEXTAREA'
p5282
S"<class 'gluon.html.TEXTAREA'>"
p5283
sS'MENU'
p5284
S"<class 'gluon.html.MENU'>"
p5285
sS'IS_IMAGE'
p5286
S"<class 'gluon.validators.IS_IMAGE'>"
p5287
sS'EM'
p5288
S"<class 'gluon.html.EM'>"
p5289
sS'CODE'
p5290
S"<class 'gluon.html.CODE'>"
p5291
sS'HTTP'
p5292
S"<class 'gluon.http.HTTP'>"
p5293
sS'HR'
p5294
S"<class 'gluon.html.HR'>"
p5295
sS'IS_DATETIME'
p5296
S"<class 'gluon.validators.IS_DATETIME'>"
p5297
sS'STYLE'
p5298
S"<class 'gluon.html.STYLE'>"
p5299
sS'LABEL'
p5300
S"<class 'gluon.html.LABEL'>"
p5301
sS'OPTGROUP'
p5302
S"<class 'gluon.html.OPTGROUP'>"
p5303
sS'CLEANUP'
p5304
S"<class 'gluon.validators.CLEANUP'>"
p5305
sS'plugins'
p5306
S'<gluon.tools.PluginManager object>'
p5307
sS'SELECT'
p5308
S"<class 'gluon.html.SELECT'>"
p5309
sS'use_janrain'
p5310
S'<function use_janrain>'
p5311
sS'CENTER'
p5312
S"<class 'gluon.html.CENTER'>"
p5313
sS'prettydate'
p5314
S'<function prettydate>'
p5315
sS'Crud'
p5316
S"<class 'gluon.tools.Crud'>"
p5317
sS'Auth'
p5318
S"<class 'gluon.tools.Auth'>"
p5319
sS'__builtins__'
p5320
S"{'ArithmeticError': <type 'exceptions.ArithmeticError'>, 'AssertionError': <type 'exceptions.AssertionError'>, 'AttributeError': <type 'exceptions.AttributeError'>, 'BaseException': <type 'exceptions.BaseException'>, 'BufferError': <type 'exceptions.BufferError'>, 'BytesWarning': <type 'exceptions.BytesWarning'>, 'DeprecationWarning': <type 'exceptions.DeprecationWarning'>, 'EOFError': <type 'exceptions.EOFError'>, 'Ellipsis': Ellipsis, 'EnvironmentError': <type 'exceptions.EnvironmentError'>, ...}"
p5321
sS'HTML'
p5322
S"<class 'gluon.html.HTML'>"
p5323
sS'SQLFORM'
p5324
S"<class 'gluon.sqlhtml.SQLFORM'>"
p5325
sS'LOAD'
p5326
S'<function LOAD>'
p5327
sS'redirect'
p5328
S'<function redirect>'
p5329
sS'FIELDSET'
p5330
S"<class 'gluon.html.FIELDSET'>"
p5331
sS'IS_EQUAL_TO'
p5332
S"<class 'gluon.validators.IS_EQUAL_TO'>"
p5333
sS'embed64'
p5334
S'<function embed64>'
p5335
sS'IS_LIST_OF'
p5336
S"<class 'gluon.validators.IS_LIST_OF'>"
p5337
sS'INPUT'
p5338
S"<class 'gluon.html.INPUT'>"
p5339
sS'EMBED'
p5340
S"<class 'gluon.html.EMBED'>"
p5341
sS'_'
S'<function _>'
p5342
sS'H2'
p5343
S"<class 'gluon.html.H2'>"
p5344
sS'H3'
p5345
S"<class 'gluon.html.H3'>"
p5346
sS'BUTTON'
p5347
S"<class 'gluon.html.BUTTON'>"
p5348
sS'H1'
p5349
S"<class 'gluon.html.H1'>"
p5350
sS'H6'
p5351
S"<class 'gluon.html.H6'>"
p5352
sS'H4'
p5353
S"<class 'gluon.html.H4'>"
p5354
sS'H5'
p5355
S"<class 'gluon.html.H5'>"
p5356
sS'UL'
p5357
S"<class 'gluon.html.UL'>"
p5358
sS'IS_UPPER'
p5359
S"<class 'gluon.validators.IS_UPPER'>"
p5360
sS'xmlescape'
p5361
S'<function xmlescape>'
p5362
sS'IS_TIME'
p5363
S"<class 'gluon.validators.IS_TIME'>"
p5364
sS'OPTION'
p5365
S"<class 'gluon.html.OPTION'>"
p5366
sS'TITLE'
p5367
S"<class 'gluon.html.TITLE'>"
p5368
sS'CRYPT'
p5369
S"<class 'gluon.validators.CRYPT'>"
p5370
sS'IS_EMPTY_OR'
p5371
S"<class 'gluon.validators.IS_EMPTY_OR'>"
p5372
sS'MARKMIN'
p5373
S"<class 'gluon.html.MARKMIN'>"
p5374
sS'__name__'
p5375
S"'__restricted__'"
p5376
sS'message'
p5377
S"'Wel-Come To IIIT Music Store !!'"
p5378
sS'STRONG'
p5379
S"<class 'gluon.html.STRONG'>"
p5380
sS'COL'
p5381
S"<class 'gluon.html.COL'>"
p5382
sS'service'
p5383
S'<gluon.tools.Service object>'
p5384
sS'SCRIPT'
p5385
S"<class 'gluon.html.SCRIPT'>"
p5386
sS'TABLE'
p5387
S"<class 'gluon.html.TABLE'>"
p5388
sS'IS_IPV4'
p5389
S"<class 'gluon.validators.IS_IPV4'>"
p5390
sS'IS_LENGTH'
p5391
S"<class 'gluon.validators.IS_LENGTH'>"
p5392
sS'XML'
p5393
S"<class 'gluon.html.XML'>"
p5394
sS'B'
S"<class 'gluon.html.B'>"
p5395
sS'IMG'
p5396
S"<class 'gluon.html.IMG'>"
p5397
sS'SQLTABLE'
p5398
S"<class 'gluon.sqlhtml.SQLTABLE'>"
p5399
sS'IS_MATCH'
p5400
S"<class 'gluon.validators.IS_MATCH'>"
p5401
sS'IS_ALPHANUMERIC'
p5402
S"<class 'gluon.validators.IS_ALPHANUMERIC'>"
p5403
sS'SPAN'
p5404
S"<class 'gluon.html.SPAN'>"
p5405
sS'IS_SLUG'
p5406
S"<class 'gluon.validators.IS_SLUG'>"
p5407
sS'BEAUTIFY'
p5408
S"<class 'gluon.html.BEAUTIFY'>"
p5409
sS'META'
p5410
S"<class 'gluon.html.META'>"
p5411
sS'IS_DATE'
p5412
S"<class 'gluon.validators.IS_DATE'>"
p5413
sS'IS_EMAIL'
p5414
S"<class 'gluon.validators.IS_EMAIL'>"
p5415
sS'IS_NOT_EMPTY'
p5416
S"<class 'gluon.validators.IS_NOT_EMPTY'>"
p5417
sS'IS_FLOAT_IN_RANGE'
p5418
S"<class 'gluon.validators.IS_FLOAT_IN_RANGE'>"
p5419
sS'TBODY'
p5420
S"<class 'gluon.html.TBODY'>"
p5421
sS'CAT'
p5422
S"<class 'gluon.html.CAT'>"
p5423
sS'Field'
p5424
S"<class 'gluon.dal.Field'>"
p5425
sS'middle_columns'
p5426
S"'span9'"
p5427
sS'DIV'
p5428
S"<class 'gluon.html.DIV'>"
p5429
sS'LEGEND'
p5430
S"<class 'gluon.html.LEGEND'>"
p5431
sS'COLGROUP'
p5432
S"<class 'gluon.html.COLGROUP'>"
p5433
sS'DAL'
p5434
S"<class 'gluon.dal.DAL'>"
p5435
sS'TT'
p5436
S"<class 'gluon.html.TT'>"
p5437
sS'TR'
p5438
S"<class 'gluon.html.TR'>"
p5439
sS'LI'
p5440
S"<class 'gluon.html.LI'>"
p5441
sS'right_sidebar_enabled'
p5442
g1639
sS'TH'
p5443
S"<class 'gluon.html.TH'>"
p5444
sS'TD'
p5445
S"<class 'gluon.html.TD'>"
p5446
sS'PluginManager'
p5447
S"<class 'gluon.tools.PluginManager'>"
p5448
sS'IS_URL'
p5449
S"<class 'gluon.validators.IS_URL'>"
p5450
sS'A'
S"<class 'gluon.html.A'>"
p5451
sS'HEAD'
p5452
S"<class 'gluon.html.HEAD'>"
p5453
sS'IS_DATETIME_IN_RANGE'
p5454
S"<class 'gluon.validators.IS_DATETIME_IN_RANGE'>"
p5455
sS'FORM'
p5456
S"<class 'gluon.html.FORM'>"
p5457
sS'I'
S"<class 'gluon.html.I'>"
p5458
sS'crud'
p5459
S'<gluon.tools.Crud object>'
p5460
sS'IS_NOT_IN_DB'
p5461
S"<class 'gluon.validators.IS_NOT_IN_DB'>"
p5462
sg3515
S"<Storage {'body': <cStringIO.StringO object at 0...t 0x7f976c12ae60>, 'view': 'default/index.html'}>"
p5463
sS'THEAD'
p5464
S"<class 'gluon.html.THEAD'>"
p5465
sS'IS_NULL_OR'
p5466
S"<class 'gluon.validators.IS_EMPTY_OR'>"
p5467
sg56
S"<Storage {'function': 'index', 'body': <cStringI...applications/music/', 'post_vars': <Storage {}>}>"
p5468
sS'IS_EXPR'
p5469
S"<class 'gluon.validators.IS_EXPR'>"
p5470
sS'T'
S'<gluon.languages.translator object>'
p5471
sS'IS_IN_SET'
p5472
S"<class 'gluon.validators.IS_IN_SET'>"
p5473
sS'IS_UPLOAD_FILENAME'
p5474
S"<class 'gluon.validators.IS_UPLOAD_FILENAME'>"
p5475
sS'IS_DECIMAL_IN_RANGE'
p5476
S"<class 'gluon.validators.IS_DECIMAL_IN_RANGE'>"
p5477
sS'songs'
p5478
S"[<Row {'title': 'song 1', 'id': 1, 'file': 'song....6920486177612053612054686120576f682e6d7033.mp3'}>, <Row {'title': 'song 4', 'id': 5, 'file': 'song....205b7777772e444a4d617a612e436f6d5d2e6d7033.mp3'}>, <Row {'title': 'song 6', 'id': 7, 'file': 'song....205b7777772e444a4d617a612e436f6d5d2e6d7033.mp3'}>]"
p5479
sssS'traceback'
p5480
S'Traceback (most recent call last):\n  File "/home/wionel/Desktop/web2py/gluon/restricted.py", line 212, in restricted\n    exec ccode in environment\n  File "/home/wionel/Desktop/web2py/applications/music/views/default/index.html", line 87, in <module>\n    {{else:}}\nNameError: name \'playlistName\' is not defined\n'
p5481
s.