(dp1
S'output'
p2
S"<type 'exceptions.NameError'> global name 'songs' is not defined"
p3
sS'layer'
p4
S'/home/wionel/Desktop/web2py/applications/music/controllers/default.py'
p5
sS'code'
p6
S'# -*- coding: utf-8 -*-\n# this file is released under public domain and you can use without limitations\n\n#########################################################################\n## This is a samples controller\n## - index is the default action of any application\n## - user is required for authentication and authorization\n## - download is for downloading files uploaded in the db (does streaming)\n## - call exposes all registered services (none by default)\n#########################################################################\n\n\ndef index():\n    """\n    example action using the internationalization operator T and flash\n    rendered by views/default/index.html or views/generic.html\n\n    if you need a simple wiki simple replace the two lines below with:\n    return auth.wiki()\n    \n                row=db((db.people.name==request.args(0))&  \n               (db.people.company_id==db.company.id)).select().first()\n """\n    if(auth.is_logged_in()):\n        id = auth.user_id\n        row=db(db.playlist.user_id==id).select().first()\n        if (str(row)=="None"):\n            response.flash = T("You do no have playlist configured!")\n            return dict(message=T(\'Wel-Come To IIIT Music Store !!\'),isloggedin=\'true\')\n        else:\n            songIds=row.songlist.split(",")\n            songs = [];\n            playlistName = row.name\n            for id in songIds:\n                songs.append(db(db.song.id==id).select().first())\n            pass  \n            #response.flash = T(str(songs[0].title))\n            message = \'Wel-Come To IIIT Music Store !!\'\n            return dict(message=T(message) ,isloggedin=\'true\', playlist_exist=\'true\', songs=songs, playlistName=playlistName)\n            pass\n    else:\n        response.flash = T("Please log in listen to your playlist!")\n        return dict(message=T(\'Wel-Come To IIIT Music Store !!\'))\n    pass\n    \ndef playlist():\n    message=T(\'Wel-Come To IIIT Music Store !!\');\n    if(auth.is_logged_in()):\n        id = auth.user_id\n        row=db(db.playlist.user_id==id).select().first()    \n        \n        if (str(row)!="None"):\n            p_songs = db(db.song).select()\n            return dict(title="Edit Playlist",message=message,isloggedin=\'true\',songs=songs,p_songs=p_songs)\n        pass\n        \n    else:\n       return dict(message=message,isloggedin=\'true\',songs=db(db.song).select())\n    \n    \ndef save():\n    user_id=auth.user_id;\n    playlist_name = request.vars.playlist_name;\n    songlist= request.vars.songlist;\n    #return response.render(dict(xml=str(user_id)))\n    \n    id = db.playlist.insert(user_id=user_id,name=playlist_name,songlist=songlist)\n    \n    redirect(URL(\'index\'))\n    \ndef edit():\n\n    redirect(URL(\'playlist\'))\n\ndef user():\n    """\n    exposes:\n    http://..../[app]/default/user/login\n    http://..../[app]/default/user/logout\n    http://..../[app]/default/user/register\n    http://..../[app]/default/user/profile\n    http://..../[app]/default/user/retrieve_password\n    http://..../[app]/default/user/change_password\n    use @auth.requires_login()\n        @auth.requires_membership(\'group name\')\n        @auth.requires_permission(\'read\',\'table name\',record_id)\n    to decorate functions that need access control\n    """\n    return dict(form=auth())\n\n\ndef download():\n    """\n    allows downloading of uploaded files\n    http://..../[app]/default/download/[filename]\n    """\n    return response.download(request, db)\n\n\ndef call():\n    """\n    exposes services. for example:\n    http://..../[app]/default/call/jsonrpc\n    decorate with @services.jsonrpc the functions to expose\n    supports xml, json, xmlrpc, jsonrpc, amfrpc, rss, csv\n    """\n    return service()\n\n\n@auth.requires_signature()\ndef data():\n    """\n    http://..../[app]/default/data/tables\n    http://..../[app]/default/data/create/[table]\n    http://..../[app]/default/data/read/[table]/[id]\n    http://..../[app]/default/data/update/[table]/[id]\n    http://..../[app]/default/data/delete/[table]/[id]\n    http://..../[app]/default/data/select/[table]\n    http://..../[app]/default/data/search/[table]\n    but URLs must be signed, i.e. linked with\n      A(\'table\',_href=URL(\'data/tables\',user_signature=True))\n    or with the signed load operator\n      LOAD(\'default\',\'data.load\',args=\'tables\',ajax=True,user_signature=True)\n    """\n    return dict(form=crud())\n\nresponse._vars=response._caller(playlist)\n'
p7
sS'snapshot'
p8
(dp9
S'exception'
p10
(dp11
S'__hash__'
p12
S"<method-wrapper '__hash__' of exceptions.NameError object>"
p13
sS'__setattr__'
p14
S"<method-wrapper '__setattr__' of exceptions.NameError object>"
p15
sS'__reduce_ex__'
p16
S'<built-in method __reduce_ex__ of exceptions.NameError object>'
p17
sS'__getslice__'
p18
S"<method-wrapper '__getslice__' of exceptions.NameError object>"
p19
sS'__getitem__'
p20
S"<method-wrapper '__getitem__' of exceptions.NameError object>"
p21
sS'__setstate__'
p22
S'<built-in method __setstate__ of exceptions.NameError object>'
p23
sS'args'
p24
S'("global name \'songs\' is not defined",)'
p25
sS'__reduce__'
p26
S'<built-in method __reduce__ of exceptions.NameError object>'
p27
sS'__str__'
p28
S"<method-wrapper '__str__' of exceptions.NameError object>"
p29
sS'__format__'
p30
S'<built-in method __format__ of exceptions.NameError object>'
p31
sS'__getattribute__'
p32
S"<method-wrapper '__getattribute__' of exceptions.NameError object>"
p33
sS'__class__'
p34
S"<type 'exceptions.NameError'>"
p35
sS'__unicode__'
p36
S'<built-in method __unicode__ of exceptions.NameError object>'
p37
sS'__delattr__'
p38
S"<method-wrapper '__delattr__' of exceptions.NameError object>"
p39
sS'__subclasshook__'
p40
S'<built-in method __subclasshook__ of type object>'
p41
sS'__repr__'
p42
S"<method-wrapper '__repr__' of exceptions.NameError object>"
p43
sS'__dict__'
p44
S'{}'
p45
sS'__sizeof__'
p46
S'<built-in method __sizeof__ of exceptions.NameError object>'
p47
sS'__doc__'
p48
S"'Name not found globally.'"
p49
sS'__init__'
p50
S"<method-wrapper '__init__' of exceptions.NameError object>"
p51
sS'__new__'
p52
S'<built-in method __new__ of type object>'
p53
ssS'evalue'
p54
S"global name 'songs' is not defined"
p55
sS'request'
p56
ccopy_reg
_reconstructor
p57
(cgluon.html
BEAUTIFY
p58
c__builtin__
object
p59
NtRp60
(dp61
S'attributes'
p62
(dp63
sS'components'
p64
(lp65
g57
(cgluon.html
TABLE
p66
g59
NtRp67
(dp68
g62
(dp69
S'level'
p70
I5
ssS'parent'
p71
Nsg64
(lp72
g57
(cgluon.html
TR
p73
g59
NtRp74
(dp75
g62
(dp76
sg71
g67
sg64
(lp77
g57
(cgluon.html
TD
p78
g59
NtRp79
(dp80
g62
(dp81
S'_style'
p82
S'font-weight:bold;vertical-align:top'
p83
ssg71
g74
sg64
(lp84
S'ajax'
p85
asbag57
(g78
g59
NtRp86
(dp87
g62
(dp88
S'_valign'
p89
S'top'
p90
ssg71
g74
sg64
(lp91
S':'
asbag57
(g78
g59
NtRp92
(dp93
g62
(dp94
sg71
g74
sg64
(lp95
g57
(g58
g59
NtRp96
(dp97
g62
(dp98
g70
I5
ssg71
g92
sg64
(lp99
S'False'
p100
asbasbasbag57
(g73
g59
NtRp101
(dp102
g62
(dp103
sg71
g67
sg64
(lp104
g57
(g78
g59
NtRp105
(dp106
g62
(dp107
g82
g83
ssg71
g101
sg64
(lp108
S'application'
p109
asbag57
(g78
g59
NtRp110
(dp111
g62
(dp112
g89
g90
ssg71
g101
sg64
(lp113
S':'
asbag57
(g78
g59
NtRp114
(dp115
g62
(dp116
sg71
g101
sg64
(lp117
g57
(g58
g59
NtRp118
(dp119
g62
(dp120
g70
I5
ssg71
g114
sg64
(lp121
S'music'
p122
asbasbasbag57
(g73
g59
NtRp123
(dp124
g62
(dp125
sg71
g67
sg64
(lp126
g57
(g78
g59
NtRp127
(dp128
g62
(dp129
g82
g83
ssg71
g123
sg64
(lp130
g24
asbag57
(g78
g59
NtRp131
(dp132
g62
(dp133
g89
g90
ssg71
g123
sg64
(lp134
S':'
asbag57
(g78
g59
NtRp135
(dp136
g62
(dp137
sg71
g123
sg64
(lp138
g57
(g58
g59
NtRp139
(dp140
g62
(dp141
g70
I5
ssg71
g135
sg64
(lp142
g57
(g66
g59
NtRp143
(dp144
g62
(dp145
g70
I4
ssg71
Nsg64
(lp146
sbasbasbasbag57
(g73
g59
NtRp147
(dp148
g62
(dp149
sg71
g67
sg64
(lp150
g57
(g78
g59
NtRp151
(dp152
g62
(dp153
g82
g83
ssg71
g147
sg64
(lp154
S'body'
p155
asbag57
(g78
g59
NtRp156
(dp157
g62
(dp158
g89
g90
ssg71
g147
sg64
(lp159
S':'
asbag57
(g78
g59
NtRp160
(dp161
g62
(dp162
sg71
g147
sg64
(lp163
g57
(g58
g59
NtRp164
(dp165
g62
(dp166
g70
I5
ssg71
g160
sg64
(lp167
S'<cStringIO.StringO object at 0x7f81043d0ab0>'
p168
asbasbasbag57
(g73
g59
NtRp169
(dp170
g62
(dp171
sg71
g67
sg64
(lp172
g57
(g78
g59
NtRp173
(dp174
g62
(dp175
g82
g83
ssg71
g169
sg64
(lp176
S'cid'
p177
asbag57
(g78
g59
NtRp178
(dp179
g62
(dp180
g89
g90
ssg71
g169
sg64
(lp181
S':'
asbag57
(g78
g59
NtRp182
(dp183
g62
(dp184
sg71
g169
sg64
(lp185
g57
(g58
g59
NtRp186
(dp187
g62
(dp188
g70
I5
ssg71
g182
sg64
(lp189
S'None'
p190
asbasbasbag57
(g73
g59
NtRp191
(dp192
g62
(dp193
sg71
g67
sg64
(lp194
g57
(g78
g59
NtRp195
(dp196
g62
(dp197
g82
g83
ssg71
g191
sg64
(lp198
S'client'
p199
asbag57
(g78
g59
NtRp200
(dp201
g62
(dp202
g89
g90
ssg71
g191
sg64
(lp203
S':'
asbag57
(g78
g59
NtRp204
(dp205
g62
(dp206
sg71
g191
sg64
(lp207
g57
(g58
g59
NtRp208
(dp209
g62
(dp210
g70
I5
ssg71
g204
sg64
(lp211
S'127.0.0.1'
p212
asbasbasbag57
(g73
g59
NtRp213
(dp214
g62
(dp215
sg71
g67
sg64
(lp216
g57
(g78
g59
NtRp217
(dp218
g62
(dp219
g82
g83
ssg71
g213
sg64
(lp220
S'controller'
p221
asbag57
(g78
g59
NtRp222
(dp223
g62
(dp224
g89
g90
ssg71
g213
sg64
(lp225
S':'
asbag57
(g78
g59
NtRp226
(dp227
g62
(dp228
sg71
g213
sg64
(lp229
g57
(g58
g59
NtRp230
(dp231
g62
(dp232
g70
I5
ssg71
g226
sg64
(lp233
S'default'
p234
asbasbasbag57
(g73
g59
NtRp235
(dp236
g62
(dp237
sg71
g67
sg64
(lp238
g57
(g78
g59
NtRp239
(dp240
g62
(dp241
g82
g83
ssg71
g235
sg64
(lp242
S'cookies'
p243
asbag57
(g78
g59
NtRp244
(dp245
g62
(dp246
g89
g90
ssg71
g235
sg64
(lp247
S':'
asbag57
(g78
g59
NtRp248
(dp249
g62
(dp250
sg71
g235
sg64
(lp251
g57
(g58
g59
NtRp252
(dp253
g62
(dp254
g70
I5
ssg71
g248
sg64
(lp255
g57
(g66
g59
NtRp256
(dp257
g62
(dp258
g70
I4
ssg71
Nsg64
(lp259
g57
(g73
g59
NtRp260
(dp261
g62
(dp262
sg71
g256
sg64
(lp263
g57
(g78
g59
NtRp264
(dp265
g62
(dp266
g82
g83
ssg71
g260
sg64
(lp267
S'session_id_admin'
p268
asbag57
(g78
g59
NtRp269
(dp270
g62
(dp271
g89
g90
ssg71
g260
sg64
(lp272
S':'
asbag57
(g78
g59
NtRp273
(dp274
g62
(dp275
sg71
g260
sg64
(lp276
g57
(g58
g59
NtRp277
(dp278
g62
(dp279
g70
I4
ssg71
g273
sg64
(lp280
S'127.0.0.1-b219e5e2-515c-4b16-b7ec-dfc8af6f68cc'
p281
ag57
(g66
g59
NtRp282
(dp283
g62
(dp284
g70
I3
ssg71
Nsg64
(lp285
g57
(g73
g59
NtRp286
(dp287
g62
(dp288
sg71
g282
sg64
(lp289
g57
(g78
g59
NtRp290
(dp291
g62
(dp292
g82
g83
ssg71
g286
sg64
(lp293
S'comment'
p294
asbag57
(g78
g59
NtRp295
(dp296
g62
(dp297
g89
g90
ssg71
g286
sg64
(lp298
S':'
asbag57
(g78
g59
NtRp299
(dp300
g62
(dp301
sg71
g286
sg64
(lp302
g57
(g58
g59
NtRp303
(dp304
g62
(dp305
g70
I3
ssg71
g299
sg64
(lp306
S''
asbasbasbag57
(g73
g59
NtRp307
(dp308
g62
(dp309
sg71
g282
sg64
(lp310
g57
(g78
g59
NtRp311
(dp312
g62
(dp313
g82
g83
ssg71
g307
sg64
(lp314
S'domain'
p315
asbag57
(g78
g59
NtRp316
(dp317
g62
(dp318
g89
g90
ssg71
g307
sg64
(lp319
S':'
asbag57
(g78
g59
NtRp320
(dp321
g62
(dp322
sg71
g307
sg64
(lp323
g57
(g58
g59
NtRp324
(dp325
g62
(dp326
g70
I3
ssg71
g320
sg64
(lp327
S''
asbasbasbag57
(g73
g59
NtRp328
(dp329
g62
(dp330
sg71
g282
sg64
(lp331
g57
(g78
g59
NtRp332
(dp333
g62
(dp334
g82
g83
ssg71
g328
sg64
(lp335
S'expires'
p336
asbag57
(g78
g59
NtRp337
(dp338
g62
(dp339
g89
g90
ssg71
g328
sg64
(lp340
S':'
asbag57
(g78
g59
NtRp341
(dp342
g62
(dp343
sg71
g328
sg64
(lp344
g57
(g58
g59
NtRp345
(dp346
g62
(dp347
g70
I3
ssg71
g341
sg64
(lp348
S''
asbasbasbag57
(g73
g59
NtRp349
(dp350
g62
(dp351
sg71
g282
sg64
(lp352
g57
(g78
g59
NtRp353
(dp354
g62
(dp355
g82
g83
ssg71
g349
sg64
(lp356
S'httponly'
p357
asbag57
(g78
g59
NtRp358
(dp359
g62
(dp360
g89
g90
ssg71
g349
sg64
(lp361
S':'
asbag57
(g78
g59
NtRp362
(dp363
g62
(dp364
sg71
g349
sg64
(lp365
g57
(g58
g59
NtRp366
(dp367
g62
(dp368
g70
I3
ssg71
g362
sg64
(lp369
S''
asbasbasbag57
(g73
g59
NtRp370
(dp371
g62
(dp372
sg71
g282
sg64
(lp373
g57
(g78
g59
NtRp374
(dp375
g62
(dp376
g82
g83
ssg71
g370
sg64
(lp377
S'max-age'
p378
asbag57
(g78
g59
NtRp379
(dp380
g62
(dp381
g89
g90
ssg71
g370
sg64
(lp382
S':'
asbag57
(g78
g59
NtRp383
(dp384
g62
(dp385
sg71
g370
sg64
(lp386
g57
(g58
g59
NtRp387
(dp388
g62
(dp389
g70
I3
ssg71
g383
sg64
(lp390
S''
asbasbasbag57
(g73
g59
NtRp391
(dp392
g62
(dp393
sg71
g282
sg64
(lp394
g57
(g78
g59
NtRp395
(dp396
g62
(dp397
g82
g83
ssg71
g391
sg64
(lp398
S'path'
p399
asbag57
(g78
g59
NtRp400
(dp401
g62
(dp402
g89
g90
ssg71
g391
sg64
(lp403
S':'
asbag57
(g78
g59
NtRp404
(dp405
g62
(dp406
sg71
g391
sg64
(lp407
g57
(g58
g59
NtRp408
(dp409
g62
(dp410
g70
I3
ssg71
g404
sg64
(lp411
S''
asbasbasbag57
(g73
g59
NtRp412
(dp413
g62
(dp414
sg71
g282
sg64
(lp415
g57
(g78
g59
NtRp416
(dp417
g62
(dp418
g82
g83
ssg71
g412
sg64
(lp419
S'secure'
p420
asbag57
(g78
g59
NtRp421
(dp422
g62
(dp423
g89
g90
ssg71
g412
sg64
(lp424
S':'
asbag57
(g78
g59
NtRp425
(dp426
g62
(dp427
sg71
g412
sg64
(lp428
g57
(g58
g59
NtRp429
(dp430
g62
(dp431
g70
I3
ssg71
g425
sg64
(lp432
S''
asbasbasbag57
(g73
g59
NtRp433
(dp434
g62
(dp435
sg71
g282
sg64
(lp436
g57
(g78
g59
NtRp437
(dp438
g62
(dp439
g82
g83
ssg71
g433
sg64
(lp440
S'version'
p441
asbag57
(g78
g59
NtRp442
(dp443
g62
(dp444
g89
g90
ssg71
g433
sg64
(lp445
S':'
asbag57
(g78
g59
NtRp446
(dp447
g62
(dp448
sg71
g433
sg64
(lp449
g57
(g58
g59
NtRp450
(dp451
g62
(dp452
g70
I3
ssg71
g446
sg64
(lp453
S''
asbasbasbasbasbasbasbag57
(g73
g59
NtRp454
(dp455
g62
(dp456
sg71
g256
sg64
(lp457
g57
(g78
g59
NtRp458
(dp459
g62
(dp460
g82
g83
ssg71
g454
sg64
(lp461
S'session_id_music'
p462
asbag57
(g78
g59
NtRp463
(dp464
g62
(dp465
g89
g90
ssg71
g454
sg64
(lp466
S':'
asbag57
(g78
g59
NtRp467
(dp468
g62
(dp469
sg71
g454
sg64
(lp470
g57
(g58
g59
NtRp471
(dp472
g62
(dp473
g70
I4
ssg71
g467
sg64
(lp474
S'127.0.0.1-adc6eb33-f19b-4659-bd7d-4019f40bbf7e'
p475
ag57
(g66
g59
NtRp476
(dp477
g62
(dp478
g70
I3
ssg71
Nsg64
(lp479
g57
(g73
g59
NtRp480
(dp481
g62
(dp482
sg71
g476
sg64
(lp483
g57
(g78
g59
NtRp484
(dp485
g62
(dp486
g82
g83
ssg71
g480
sg64
(lp487
g294
asbag57
(g78
g59
NtRp488
(dp489
g62
(dp490
g89
g90
ssg71
g480
sg64
(lp491
S':'
asbag57
(g78
g59
NtRp492
(dp493
g62
(dp494
sg71
g480
sg64
(lp495
g57
(g58
g59
NtRp496
(dp497
g62
(dp498
g70
I3
ssg71
g492
sg64
(lp499
S''
asbasbasbag57
(g73
g59
NtRp500
(dp501
g62
(dp502
sg71
g476
sg64
(lp503
g57
(g78
g59
NtRp504
(dp505
g62
(dp506
g82
g83
ssg71
g500
sg64
(lp507
g315
asbag57
(g78
g59
NtRp508
(dp509
g62
(dp510
g89
g90
ssg71
g500
sg64
(lp511
S':'
asbag57
(g78
g59
NtRp512
(dp513
g62
(dp514
sg71
g500
sg64
(lp515
g57
(g58
g59
NtRp516
(dp517
g62
(dp518
g70
I3
ssg71
g512
sg64
(lp519
S''
asbasbasbag57
(g73
g59
NtRp520
(dp521
g62
(dp522
sg71
g476
sg64
(lp523
g57
(g78
g59
NtRp524
(dp525
g62
(dp526
g82
g83
ssg71
g520
sg64
(lp527
g336
asbag57
(g78
g59
NtRp528
(dp529
g62
(dp530
g89
g90
ssg71
g520
sg64
(lp531
S':'
asbag57
(g78
g59
NtRp532
(dp533
g62
(dp534
sg71
g520
sg64
(lp535
g57
(g58
g59
NtRp536
(dp537
g62
(dp538
g70
I3
ssg71
g532
sg64
(lp539
S''
asbasbasbag57
(g73
g59
NtRp540
(dp541
g62
(dp542
sg71
g476
sg64
(lp543
g57
(g78
g59
NtRp544
(dp545
g62
(dp546
g82
g83
ssg71
g540
sg64
(lp547
g357
asbag57
(g78
g59
NtRp548
(dp549
g62
(dp550
g89
g90
ssg71
g540
sg64
(lp551
S':'
asbag57
(g78
g59
NtRp552
(dp553
g62
(dp554
sg71
g540
sg64
(lp555
g57
(g58
g59
NtRp556
(dp557
g62
(dp558
g70
I3
ssg71
g552
sg64
(lp559
S''
asbasbasbag57
(g73
g59
NtRp560
(dp561
g62
(dp562
sg71
g476
sg64
(lp563
g57
(g78
g59
NtRp564
(dp565
g62
(dp566
g82
g83
ssg71
g560
sg64
(lp567
g378
asbag57
(g78
g59
NtRp568
(dp569
g62
(dp570
g89
g90
ssg71
g560
sg64
(lp571
S':'
asbag57
(g78
g59
NtRp572
(dp573
g62
(dp574
sg71
g560
sg64
(lp575
g57
(g58
g59
NtRp576
(dp577
g62
(dp578
g70
I3
ssg71
g572
sg64
(lp579
S''
asbasbasbag57
(g73
g59
NtRp580
(dp581
g62
(dp582
sg71
g476
sg64
(lp583
g57
(g78
g59
NtRp584
(dp585
g62
(dp586
g82
g83
ssg71
g580
sg64
(lp587
g399
asbag57
(g78
g59
NtRp588
(dp589
g62
(dp590
g89
g90
ssg71
g580
sg64
(lp591
S':'
asbag57
(g78
g59
NtRp592
(dp593
g62
(dp594
sg71
g580
sg64
(lp595
g57
(g58
g59
NtRp596
(dp597
g62
(dp598
g70
I3
ssg71
g592
sg64
(lp599
S''
asbasbasbag57
(g73
g59
NtRp600
(dp601
g62
(dp602
sg71
g476
sg64
(lp603
g57
(g78
g59
NtRp604
(dp605
g62
(dp606
g82
g83
ssg71
g600
sg64
(lp607
g420
asbag57
(g78
g59
NtRp608
(dp609
g62
(dp610
g89
g90
ssg71
g600
sg64
(lp611
S':'
asbag57
(g78
g59
NtRp612
(dp613
g62
(dp614
sg71
g600
sg64
(lp615
g57
(g58
g59
NtRp616
(dp617
g62
(dp618
g70
I3
ssg71
g612
sg64
(lp619
S''
asbasbasbag57
(g73
g59
NtRp620
(dp621
g62
(dp622
sg71
g476
sg64
(lp623
g57
(g78
g59
NtRp624
(dp625
g62
(dp626
g82
g83
ssg71
g620
sg64
(lp627
g441
asbag57
(g78
g59
NtRp628
(dp629
g62
(dp630
g89
g90
ssg71
g620
sg64
(lp631
S':'
asbag57
(g78
g59
NtRp632
(dp633
g62
(dp634
sg71
g620
sg64
(lp635
g57
(g58
g59
NtRp636
(dp637
g62
(dp638
g70
I3
ssg71
g632
sg64
(lp639
S''
asbasbasbasbasbasbasbag57
(g73
g59
NtRp640
(dp641
g62
(dp642
sg71
g256
sg64
(lp643
g57
(g78
g59
NtRp644
(dp645
g62
(dp646
g82
g83
ssg71
g640
sg64
(lp647
S'session_id_welcome'
p648
asbag57
(g78
g59
NtRp649
(dp650
g62
(dp651
g89
g90
ssg71
g640
sg64
(lp652
S':'
asbag57
(g78
g59
NtRp653
(dp654
g62
(dp655
sg71
g640
sg64
(lp656
g57
(g58
g59
NtRp657
(dp658
g62
(dp659
g70
I4
ssg71
g653
sg64
(lp660
S'127.0.0.1-cf1e1d48-8570-440d-98a4-a34b5cb99250'
p661
ag57
(g66
g59
NtRp662
(dp663
g62
(dp664
g70
I3
ssg71
Nsg64
(lp665
g57
(g73
g59
NtRp666
(dp667
g62
(dp668
sg71
g662
sg64
(lp669
g57
(g78
g59
NtRp670
(dp671
g62
(dp672
g82
g83
ssg71
g666
sg64
(lp673
g294
asbag57
(g78
g59
NtRp674
(dp675
g62
(dp676
g89
g90
ssg71
g666
sg64
(lp677
S':'
asbag57
(g78
g59
NtRp678
(dp679
g62
(dp680
sg71
g666
sg64
(lp681
g57
(g58
g59
NtRp682
(dp683
g62
(dp684
g70
I3
ssg71
g678
sg64
(lp685
S''
asbasbasbag57
(g73
g59
NtRp686
(dp687
g62
(dp688
sg71
g662
sg64
(lp689
g57
(g78
g59
NtRp690
(dp691
g62
(dp692
g82
g83
ssg71
g686
sg64
(lp693
g315
asbag57
(g78
g59
NtRp694
(dp695
g62
(dp696
g89
g90
ssg71
g686
sg64
(lp697
S':'
asbag57
(g78
g59
NtRp698
(dp699
g62
(dp700
sg71
g686
sg64
(lp701
g57
(g58
g59
NtRp702
(dp703
g62
(dp704
g70
I3
ssg71
g698
sg64
(lp705
S''
asbasbasbag57
(g73
g59
NtRp706
(dp707
g62
(dp708
sg71
g662
sg64
(lp709
g57
(g78
g59
NtRp710
(dp711
g62
(dp712
g82
g83
ssg71
g706
sg64
(lp713
g336
asbag57
(g78
g59
NtRp714
(dp715
g62
(dp716
g89
g90
ssg71
g706
sg64
(lp717
S':'
asbag57
(g78
g59
NtRp718
(dp719
g62
(dp720
sg71
g706
sg64
(lp721
g57
(g58
g59
NtRp722
(dp723
g62
(dp724
g70
I3
ssg71
g718
sg64
(lp725
S''
asbasbasbag57
(g73
g59
NtRp726
(dp727
g62
(dp728
sg71
g662
sg64
(lp729
g57
(g78
g59
NtRp730
(dp731
g62
(dp732
g82
g83
ssg71
g726
sg64
(lp733
g357
asbag57
(g78
g59
NtRp734
(dp735
g62
(dp736
g89
g90
ssg71
g726
sg64
(lp737
S':'
asbag57
(g78
g59
NtRp738
(dp739
g62
(dp740
sg71
g726
sg64
(lp741
g57
(g58
g59
NtRp742
(dp743
g62
(dp744
g70
I3
ssg71
g738
sg64
(lp745
S''
asbasbasbag57
(g73
g59
NtRp746
(dp747
g62
(dp748
sg71
g662
sg64
(lp749
g57
(g78
g59
NtRp750
(dp751
g62
(dp752
g82
g83
ssg71
g746
sg64
(lp753
g378
asbag57
(g78
g59
NtRp754
(dp755
g62
(dp756
g89
g90
ssg71
g746
sg64
(lp757
S':'
asbag57
(g78
g59
NtRp758
(dp759
g62
(dp760
sg71
g746
sg64
(lp761
g57
(g58
g59
NtRp762
(dp763
g62
(dp764
g70
I3
ssg71
g758
sg64
(lp765
S''
asbasbasbag57
(g73
g59
NtRp766
(dp767
g62
(dp768
sg71
g662
sg64
(lp769
g57
(g78
g59
NtRp770
(dp771
g62
(dp772
g82
g83
ssg71
g766
sg64
(lp773
g399
asbag57
(g78
g59
NtRp774
(dp775
g62
(dp776
g89
g90
ssg71
g766
sg64
(lp777
S':'
asbag57
(g78
g59
NtRp778
(dp779
g62
(dp780
sg71
g766
sg64
(lp781
g57
(g58
g59
NtRp782
(dp783
g62
(dp784
g70
I3
ssg71
g778
sg64
(lp785
S''
asbasbasbag57
(g73
g59
NtRp786
(dp787
g62
(dp788
sg71
g662
sg64
(lp789
g57
(g78
g59
NtRp790
(dp791
g62
(dp792
g82
g83
ssg71
g786
sg64
(lp793
g420
asbag57
(g78
g59
NtRp794
(dp795
g62
(dp796
g89
g90
ssg71
g786
sg64
(lp797
S':'
asbag57
(g78
g59
NtRp798
(dp799
g62
(dp800
sg71
g786
sg64
(lp801
g57
(g58
g59
NtRp802
(dp803
g62
(dp804
g70
I3
ssg71
g798
sg64
(lp805
S''
asbasbasbag57
(g73
g59
NtRp806
(dp807
g62
(dp808
sg71
g662
sg64
(lp809
g57
(g78
g59
NtRp810
(dp811
g62
(dp812
g82
g83
ssg71
g806
sg64
(lp813
g441
asbag57
(g78
g59
NtRp814
(dp815
g62
(dp816
g89
g90
ssg71
g806
sg64
(lp817
S':'
asbag57
(g78
g59
NtRp818
(dp819
g62
(dp820
sg71
g806
sg64
(lp821
g57
(g58
g59
NtRp822
(dp823
g62
(dp824
g70
I3
ssg71
g818
sg64
(lp825
S''
asbasbasbasbasbasbasbasbasbasbasbag57
(g73
g59
NtRp826
(dp827
g62
(dp828
sg71
g67
sg64
(lp829
g57
(g78
g59
NtRp830
(dp831
g62
(dp832
g82
g83
ssg71
g826
sg64
(lp833
S'env'
p834
asbag57
(g78
g59
NtRp835
(dp836
g62
(dp837
g89
g90
ssg71
g826
sg64
(lp838
S':'
asbag57
(g78
g59
NtRp839
(dp840
g62
(dp841
sg71
g826
sg64
(lp842
g57
(g58
g59
NtRp843
(dp844
g62
(dp845
g70
I5
ssg71
g839
sg64
(lp846
g57
(g66
g59
NtRp847
(dp848
g62
(dp849
g70
I4
ssg71
Nsg64
(lp850
g57
(g73
g59
NtRp851
(dp852
g62
(dp853
sg71
g847
sg64
(lp854
g57
(g78
g59
NtRp855
(dp856
g62
(dp857
g82
g83
ssg71
g851
sg64
(lp858
S'app_folders'
p859
asbag57
(g78
g59
NtRp860
(dp861
g62
(dp862
g89
g90
ssg71
g851
sg64
(lp863
S':'
asbag57
(g78
g59
NtRp864
(dp865
g62
(dp866
sg71
g851
sg64
(lp867
g57
(g58
g59
NtRp868
(dp869
g62
(dp870
g70
I4
ssg71
g864
sg64
(lp871
S"set(['/home/wionel/Desktop/web2py/applications/admin/', '/home/wionel/Desktop/web2py/applications/welcome/', '/home/wionel/Desktop/web2py/applications/music/'])"
p872
asbasbasbag57
(g73
g59
NtRp873
(dp874
g62
(dp875
sg71
g847
sg64
(lp876
g57
(g78
g59
NtRp877
(dp878
g62
(dp879
g82
g83
ssg71
g873
sg64
(lp880
S'applications_parent'
p881
asbag57
(g78
g59
NtRp882
(dp883
g62
(dp884
g89
g90
ssg71
g873
sg64
(lp885
S':'
asbag57
(g78
g59
NtRp886
(dp887
g62
(dp888
sg71
g873
sg64
(lp889
g57
(g58
g59
NtRp890
(dp891
g62
(dp892
g70
I4
ssg71
g886
sg64
(lp893
S'/home/wionel/Desktop/web2py'
p894
asbasbasbag57
(g73
g59
NtRp895
(dp896
g62
(dp897
sg71
g847
sg64
(lp898
g57
(g78
g59
NtRp899
(dp900
g62
(dp901
g82
g83
ssg71
g895
sg64
(lp902
S'cmd_args'
p903
asbag57
(g78
g59
NtRp904
(dp905
g62
(dp906
g89
g90
ssg71
g895
sg64
(lp907
S':'
asbag57
(g78
g59
NtRp908
(dp909
g62
(dp910
sg71
g895
sg64
(lp911
g57
(g58
g59
NtRp912
(dp913
g62
(dp914
g70
I4
ssg71
g908
sg64
(lp915
g57
(g66
g59
NtRp916
(dp917
g62
(dp918
g70
I3
ssg71
Nsg64
(lp919
sbasbasbasbag57
(g73
g59
NtRp920
(dp921
g62
(dp922
sg71
g847
sg64
(lp923
g57
(g78
g59
NtRp924
(dp925
g62
(dp926
g82
g83
ssg71
g920
sg64
(lp927
S'cmd_options'
p928
asbag57
(g78
g59
NtRp929
(dp930
g62
(dp931
g89
g90
ssg71
g920
sg64
(lp932
S':'
asbag57
(g78
g59
NtRp933
(dp934
g62
(dp935
sg71
g920
sg64
(lp936
g57
(g58
g59
NtRp937
(dp938
g62
(dp939
g70
I4
ssg71
g933
sg64
(lp940
S"<Values at 0x2d6d488: {'verbose': False, 'ip': '127.0.0.1', 'with_scheduler': False, 'ips': ['127.0.1.1'], 'shutdown_timeout': 5, 'taskbar': False, 'port': 8000, 'maxthreads': None, 'softcron': False, 'server_name': 'Rohan', 'bpython': False, 'nogui': False, 'pid_filename': 'httpserver.pid', 'extcron': False, 'runcron': False, 'run_system_tests': False, 'test': None, 'folder': '/home/wionel/Desktop/web2py', 'config': '', 'minthreads': None, 'winservice': '', 'shell': None, 'run': '', 'log_filename': 'httpserver.log', 'debuglevel': 30, 'args': [''], 'socket_timeout': 5, 'ssl_ca_certificate': None, 'scheduler': None, 'profiler_filename': None, 'ssl_private_key': '', 'scheduler_groups': None, 'password': '<ask>', 'request_queue_size': 5, 'ssl_certificate': '', 'cronjob': False, 'numthreads': None, 'quiet': False, 'interfaces': None, 'import_models': False, 'timeout': 10, 'plain': False, 'nobanner': False}>"
p941
asbasbasbag57
(g73
g59
NtRp942
(dp943
g62
(dp944
sg71
g847
sg64
(lp945
g57
(g78
g59
NtRp946
(dp947
g62
(dp948
g82
g83
ssg71
g942
sg64
(lp949
S'db_sessions'
p950
asbag57
(g78
g59
NtRp951
(dp952
g62
(dp953
g89
g90
ssg71
g942
sg64
(lp954
S':'
asbag57
(g78
g59
NtRp955
(dp956
g62
(dp957
sg71
g942
sg64
(lp958
g57
(g58
g59
NtRp959
(dp960
g62
(dp961
g70
I4
ssg71
g955
sg64
(lp962
S'set([])'
p963
asbasbasbag57
(g73
g59
NtRp964
(dp965
g62
(dp966
sg71
g847
sg64
(lp967
g57
(g78
g59
NtRp968
(dp969
g62
(dp970
g82
g83
ssg71
g964
sg64
(lp971
S'debugging'
p972
asbag57
(g78
g59
NtRp973
(dp974
g62
(dp975
g89
g90
ssg71
g964
sg64
(lp976
S':'
asbag57
(g78
g59
NtRp977
(dp978
g62
(dp979
sg71
g964
sg64
(lp980
g57
(g58
g59
NtRp981
(dp982
g62
(dp983
g70
I4
ssg71
g977
sg64
(lp984
g100
asbasbasbag57
(g73
g59
NtRp985
(dp986
g62
(dp987
sg71
g847
sg64
(lp988
g57
(g78
g59
NtRp989
(dp990
g62
(dp991
g82
g83
ssg71
g985
sg64
(lp992
S'gluon_parent'
p993
asbag57
(g78
g59
NtRp994
(dp995
g62
(dp996
g89
g90
ssg71
g985
sg64
(lp997
S':'
asbag57
(g78
g59
NtRp998
(dp999
g62
(dp1000
sg71
g985
sg64
(lp1001
g57
(g58
g59
NtRp1002
(dp1003
g62
(dp1004
g70
I4
ssg71
g998
sg64
(lp1005
S'/home/wionel/Desktop/web2py'
p1006
asbasbasbag57
(g73
g59
NtRp1007
(dp1008
g62
(dp1009
sg71
g847
sg64
(lp1010
g57
(g78
g59
NtRp1011
(dp1012
g62
(dp1013
g82
g83
ssg71
g1007
sg64
(lp1014
S'http_accept'
p1015
asbag57
(g78
g59
NtRp1016
(dp1017
g62
(dp1018
g89
g90
ssg71
g1007
sg64
(lp1019
S':'
asbag57
(g78
g59
NtRp1020
(dp1021
g62
(dp1022
sg71
g1007
sg64
(lp1023
g57
(g58
g59
NtRp1024
(dp1025
g62
(dp1026
g70
I4
ssg71
g1020
sg64
(lp1027
S'text/html,application/xhtml+xml,application/xml;q=0.9,*/*;q=0.8'
p1028
asbasbasbag57
(g73
g59
NtRp1029
(dp1030
g62
(dp1031
sg71
g847
sg64
(lp1032
g57
(g78
g59
NtRp1033
(dp1034
g62
(dp1035
g82
g83
ssg71
g1029
sg64
(lp1036
S'http_accept_charset'
p1037
asbag57
(g78
g59
NtRp1038
(dp1039
g62
(dp1040
g89
g90
ssg71
g1029
sg64
(lp1041
S':'
asbag57
(g78
g59
NtRp1042
(dp1043
g62
(dp1044
sg71
g1029
sg64
(lp1045
g57
(g58
g59
NtRp1046
(dp1047
g62
(dp1048
g70
I4
ssg71
g1042
sg64
(lp1049
S'ISO-8859-1,utf-8;q=0.7,*;q=0.3'
p1050
asbasbasbag57
(g73
g59
NtRp1051
(dp1052
g62
(dp1053
sg71
g847
sg64
(lp1054
g57
(g78
g59
NtRp1055
(dp1056
g62
(dp1057
g82
g83
ssg71
g1051
sg64
(lp1058
S'http_accept_encoding'
p1059
asbag57
(g78
g59
NtRp1060
(dp1061
g62
(dp1062
g89
g90
ssg71
g1051
sg64
(lp1063
S':'
asbag57
(g78
g59
NtRp1064
(dp1065
g62
(dp1066
sg71
g1051
sg64
(lp1067
g57
(g58
g59
NtRp1068
(dp1069
g62
(dp1070
g70
I4
ssg71
g1064
sg64
(lp1071
S'gzip,deflate,sdch'
p1072
asbasbasbag57
(g73
g59
NtRp1073
(dp1074
g62
(dp1075
sg71
g847
sg64
(lp1076
g57
(g78
g59
NtRp1077
(dp1078
g62
(dp1079
g82
g83
ssg71
g1073
sg64
(lp1080
S'http_accept_language'
p1081
asbag57
(g78
g59
NtRp1082
(dp1083
g62
(dp1084
g89
g90
ssg71
g1073
sg64
(lp1085
S':'
asbag57
(g78
g59
NtRp1086
(dp1087
g62
(dp1088
sg71
g1073
sg64
(lp1089
g57
(g58
g59
NtRp1090
(dp1091
g62
(dp1092
g70
I4
ssg71
g1086
sg64
(lp1093
S'en-US,en;q=0.8'
p1094
asbasbasbag57
(g73
g59
NtRp1095
(dp1096
g62
(dp1097
sg71
g847
sg64
(lp1098
g57
(g78
g59
NtRp1099
(dp1100
g62
(dp1101
g82
g83
ssg71
g1095
sg64
(lp1102
S'http_cache_control'
p1103
asbag57
(g78
g59
NtRp1104
(dp1105
g62
(dp1106
g89
g90
ssg71
g1095
sg64
(lp1107
S':'
asbag57
(g78
g59
NtRp1108
(dp1109
g62
(dp1110
sg71
g1095
sg64
(lp1111
g57
(g58
g59
NtRp1112
(dp1113
g62
(dp1114
g70
I4
ssg71
g1108
sg64
(lp1115
S'max-age=0'
p1116
asbasbasbag57
(g73
g59
NtRp1117
(dp1118
g62
(dp1119
sg71
g847
sg64
(lp1120
g57
(g78
g59
NtRp1121
(dp1122
g62
(dp1123
g82
g83
ssg71
g1117
sg64
(lp1124
S'http_connection'
p1125
asbag57
(g78
g59
NtRp1126
(dp1127
g62
(dp1128
g89
g90
ssg71
g1117
sg64
(lp1129
S':'
asbag57
(g78
g59
NtRp1130
(dp1131
g62
(dp1132
sg71
g1117
sg64
(lp1133
g57
(g58
g59
NtRp1134
(dp1135
g62
(dp1136
g70
I4
ssg71
g1130
sg64
(lp1137
S'keep-alive'
p1138
asbasbasbag57
(g73
g59
NtRp1139
(dp1140
g62
(dp1141
sg71
g847
sg64
(lp1142
g57
(g78
g59
NtRp1143
(dp1144
g62
(dp1145
g82
g83
ssg71
g1139
sg64
(lp1146
S'http_cookie'
p1147
asbag57
(g78
g59
NtRp1148
(dp1149
g62
(dp1150
g89
g90
ssg71
g1139
sg64
(lp1151
S':'
asbag57
(g78
g59
NtRp1152
(dp1153
g62
(dp1154
sg71
g1139
sg64
(lp1155
g57
(g58
g59
NtRp1156
(dp1157
g62
(dp1158
g70
I4
ssg71
g1152
sg64
(lp1159
S'session_id_welcome=127.0.0.1-cf1e1d48-8570-440d-98a4-a34b5cb99250; session_id_music=127.0.0.1-adc6eb33-f19b-4659-bd7d-4019f40bbf7e; session_id_admin=127.0.0.1-b219e5e2-515c-4b16-b7ec-dfc8af6f68cc'
p1160
asbasbasbag57
(g73
g59
NtRp1161
(dp1162
g62
(dp1163
sg71
g847
sg64
(lp1164
g57
(g78
g59
NtRp1165
(dp1166
g62
(dp1167
g82
g83
ssg71
g1161
sg64
(lp1168
S'http_host'
p1169
asbag57
(g78
g59
NtRp1170
(dp1171
g62
(dp1172
g89
g90
ssg71
g1161
sg64
(lp1173
S':'
asbag57
(g78
g59
NtRp1174
(dp1175
g62
(dp1176
sg71
g1161
sg64
(lp1177
g57
(g58
g59
NtRp1178
(dp1179
g62
(dp1180
g70
I4
ssg71
g1174
sg64
(lp1181
S'127.0.0.1:8000'
p1182
asbasbasbag57
(g73
g59
NtRp1183
(dp1184
g62
(dp1185
sg71
g847
sg64
(lp1186
g57
(g78
g59
NtRp1187
(dp1188
g62
(dp1189
g82
g83
ssg71
g1183
sg64
(lp1190
S'http_referer'
p1191
asbag57
(g78
g59
NtRp1192
(dp1193
g62
(dp1194
g89
g90
ssg71
g1183
sg64
(lp1195
S':'
asbag57
(g78
g59
NtRp1196
(dp1197
g62
(dp1198
sg71
g1183
sg64
(lp1199
g57
(g58
g59
NtRp1200
(dp1201
g62
(dp1202
g70
I4
ssg71
g1196
sg64
(lp1203
S'http://127.0.0.1:8000/music/default/index'
p1204
asbasbasbag57
(g73
g59
NtRp1205
(dp1206
g62
(dp1207
sg71
g847
sg64
(lp1208
g57
(g78
g59
NtRp1209
(dp1210
g62
(dp1211
g82
g83
ssg71
g1205
sg64
(lp1212
S'http_user_agent'
p1213
asbag57
(g78
g59
NtRp1214
(dp1215
g62
(dp1216
g89
g90
ssg71
g1205
sg64
(lp1217
S':'
asbag57
(g78
g59
NtRp1218
(dp1219
g62
(dp1220
sg71
g1205
sg64
(lp1221
g57
(g58
g59
NtRp1222
(dp1223
g62
(dp1224
g70
I4
ssg71
g1218
sg64
(lp1225
S'Mozilla/5.0 (X11; Linux x86_64) AppleWebKit/537.4 (KHTML, like Gecko) Chrome/22.0.1229.92 Safari/537.4'
p1226
asbasbasbag57
(g73
g59
NtRp1227
(dp1228
g62
(dp1229
sg71
g847
sg64
(lp1230
g57
(g78
g59
NtRp1231
(dp1232
g62
(dp1233
g82
g83
ssg71
g1227
sg64
(lp1234
S'is_jython'
p1235
asbag57
(g78
g59
NtRp1236
(dp1237
g62
(dp1238
g89
g90
ssg71
g1227
sg64
(lp1239
S':'
asbag57
(g78
g59
NtRp1240
(dp1241
g62
(dp1242
sg71
g1227
sg64
(lp1243
g57
(g58
g59
NtRp1244
(dp1245
g62
(dp1246
g70
I4
ssg71
g1240
sg64
(lp1247
g100
asbasbasbag57
(g73
g59
NtRp1248
(dp1249
g62
(dp1250
sg71
g847
sg64
(lp1251
g57
(g78
g59
NtRp1252
(dp1253
g62
(dp1254
g82
g83
ssg71
g1248
sg64
(lp1255
S'is_pypy'
p1256
asbag57
(g78
g59
NtRp1257
(dp1258
g62
(dp1259
g89
g90
ssg71
g1248
sg64
(lp1260
S':'
asbag57
(g78
g59
NtRp1261
(dp1262
g62
(dp1263
sg71
g1248
sg64
(lp1264
g57
(g58
g59
NtRp1265
(dp1266
g62
(dp1267
g70
I4
ssg71
g1261
sg64
(lp1268
g100
asbasbasbag57
(g73
g59
NtRp1269
(dp1270
g62
(dp1271
sg71
g847
sg64
(lp1272
g57
(g78
g59
NtRp1273
(dp1274
g62
(dp1275
g82
g83
ssg71
g1269
sg64
(lp1276
S'local_hosts'
p1277
asbag57
(g78
g59
NtRp1278
(dp1279
g62
(dp1280
g89
g90
ssg71
g1269
sg64
(lp1281
S':'
asbag57
(g78
g59
NtRp1282
(dp1283
g62
(dp1284
sg71
g1269
sg64
(lp1285
g57
(g58
g59
NtRp1286
(dp1287
g62
(dp1288
g70
I4
ssg71
g1282
sg64
(lp1289
g57
(g66
g59
NtRp1290
(dp1291
g62
(dp1292
g70
I3
ssg71
Nsg64
(lp1293
g57
(g73
g59
NtRp1294
(dp1295
g62
(dp1296
sg71
g1290
sg64
(lp1297
g57
(g78
g59
NtRp1298
(dp1299
g62
(dp1300
sg71
g1294
sg64
(lp1301
g57
(g58
g59
NtRp1302
(dp1303
g62
(dp1304
g70
I3
ssg71
g1298
sg64
(lp1305
S'127.0.0.1'
p1306
asbasbasbag57
(g73
g59
NtRp1307
(dp1308
g62
(dp1309
sg71
g1290
sg64
(lp1310
g57
(g78
g59
NtRp1311
(dp1312
g62
(dp1313
sg71
g1307
sg64
(lp1314
g57
(g58
g59
NtRp1315
(dp1316
g62
(dp1317
g70
I3
ssg71
g1311
sg64
(lp1318
S'::ffff:127.0.0.1'
p1319
asbasbasbag57
(g73
g59
NtRp1320
(dp1321
g62
(dp1322
sg71
g1290
sg64
(lp1323
g57
(g78
g59
NtRp1324
(dp1325
g62
(dp1326
sg71
g1320
sg64
(lp1327
g57
(g58
g59
NtRp1328
(dp1329
g62
(dp1330
g70
I3
ssg71
g1324
sg64
(lp1331
S'Rohan'
p1332
asbasbasbag57
(g73
g59
NtRp1333
(dp1334
g62
(dp1335
sg71
g1290
sg64
(lp1336
g57
(g78
g59
NtRp1337
(dp1338
g62
(dp1339
sg71
g1333
sg64
(lp1340
g57
(g58
g59
NtRp1341
(dp1342
g62
(dp1343
g70
I3
ssg71
g1337
sg64
(lp1344
S'Rohan'
p1345
asbasbasbag57
(g73
g59
NtRp1346
(dp1347
g62
(dp1348
sg71
g1290
sg64
(lp1349
g57
(g78
g59
NtRp1350
(dp1351
g62
(dp1352
sg71
g1346
sg64
(lp1353
g57
(g58
g59
NtRp1354
(dp1355
g62
(dp1356
g70
I3
ssg71
g1350
sg64
(lp1357
S'127.0.1.1'
p1358
asbasbasbasbasbasbasbag57
(g73
g59
NtRp1359
(dp1360
g62
(dp1361
sg71
g847
sg64
(lp1362
g57
(g78
g59
NtRp1363
(dp1364
g62
(dp1365
g82
g83
ssg71
g1359
sg64
(lp1366
S'path_info'
p1367
asbag57
(g78
g59
NtRp1368
(dp1369
g62
(dp1370
g89
g90
ssg71
g1359
sg64
(lp1371
S':'
asbag57
(g78
g59
NtRp1372
(dp1373
g62
(dp1374
sg71
g1359
sg64
(lp1375
g57
(g58
g59
NtRp1376
(dp1377
g62
(dp1378
g70
I4
ssg71
g1372
sg64
(lp1379
S'/music/default/playlist'
p1380
asbasbasbag57
(g73
g59
NtRp1381
(dp1382
g62
(dp1383
sg71
g847
sg64
(lp1384
g57
(g78
g59
NtRp1385
(dp1386
g62
(dp1387
g82
g83
ssg71
g1381
sg64
(lp1388
S'query_string'
p1389
asbag57
(g78
g59
NtRp1390
(dp1391
g62
(dp1392
g89
g90
ssg71
g1381
sg64
(lp1393
S':'
asbag57
(g78
g59
NtRp1394
(dp1395
g62
(dp1396
sg71
g1381
sg64
(lp1397
g57
(g58
g59
NtRp1398
(dp1399
g62
(dp1400
g70
I4
ssg71
g1394
sg64
(lp1401
S''
asbasbasbag57
(g73
g59
NtRp1402
(dp1403
g62
(dp1404
sg71
g847
sg64
(lp1405
g57
(g78
g59
NtRp1406
(dp1407
g62
(dp1408
g82
g83
ssg71
g1402
sg64
(lp1409
S'remote_addr'
p1410
asbag57
(g78
g59
NtRp1411
(dp1412
g62
(dp1413
g89
g90
ssg71
g1402
sg64
(lp1414
S':'
asbag57
(g78
g59
NtRp1415
(dp1416
g62
(dp1417
sg71
g1402
sg64
(lp1418
g57
(g58
g59
NtRp1419
(dp1420
g62
(dp1421
g70
I4
ssg71
g1415
sg64
(lp1422
g212
asbasbasbag57
(g73
g59
NtRp1423
(dp1424
g62
(dp1425
sg71
g847
sg64
(lp1426
g57
(g78
g59
NtRp1427
(dp1428
g62
(dp1429
g82
g83
ssg71
g1423
sg64
(lp1430
S'remote_port'
p1431
asbag57
(g78
g59
NtRp1432
(dp1433
g62
(dp1434
g89
g90
ssg71
g1423
sg64
(lp1435
S':'
asbag57
(g78
g59
NtRp1436
(dp1437
g62
(dp1438
sg71
g1423
sg64
(lp1439
g57
(g58
g59
NtRp1440
(dp1441
g62
(dp1442
g70
I4
ssg71
g1436
sg64
(lp1443
S'45685'
p1444
asbasbasbag57
(g73
g59
NtRp1445
(dp1446
g62
(dp1447
sg71
g847
sg64
(lp1448
g57
(g78
g59
NtRp1449
(dp1450
g62
(dp1451
g82
g83
ssg71
g1445
sg64
(lp1452
S'request_method'
p1453
asbag57
(g78
g59
NtRp1454
(dp1455
g62
(dp1456
g89
g90
ssg71
g1445
sg64
(lp1457
S':'
asbag57
(g78
g59
NtRp1458
(dp1459
g62
(dp1460
sg71
g1445
sg64
(lp1461
g57
(g58
g59
NtRp1462
(dp1463
g62
(dp1464
g70
I4
ssg71
g1458
sg64
(lp1465
S'GET'
p1466
asbasbasbag57
(g73
g59
NtRp1467
(dp1468
g62
(dp1469
sg71
g847
sg64
(lp1470
g57
(g78
g59
NtRp1471
(dp1472
g62
(dp1473
g82
g83
ssg71
g1467
sg64
(lp1474
S'request_uri'
p1475
asbag57
(g78
g59
NtRp1476
(dp1477
g62
(dp1478
g89
g90
ssg71
g1467
sg64
(lp1479
S':'
asbag57
(g78
g59
NtRp1480
(dp1481
g62
(dp1482
sg71
g1467
sg64
(lp1483
g57
(g58
g59
NtRp1484
(dp1485
g62
(dp1486
g70
I4
ssg71
g1480
sg64
(lp1487
g1380
asbasbasbag57
(g73
g59
NtRp1488
(dp1489
g62
(dp1490
sg71
g847
sg64
(lp1491
g57
(g78
g59
NtRp1492
(dp1493
g62
(dp1494
g82
g83
ssg71
g1488
sg64
(lp1495
S'script_name'
p1496
asbag57
(g78
g59
NtRp1497
(dp1498
g62
(dp1499
g89
g90
ssg71
g1488
sg64
(lp1500
S':'
asbag57
(g78
g59
NtRp1501
(dp1502
g62
(dp1503
sg71
g1488
sg64
(lp1504
g57
(g58
g59
NtRp1505
(dp1506
g62
(dp1507
g70
I4
ssg71
g1501
sg64
(lp1508
S''
asbasbasbag57
(g73
g59
NtRp1509
(dp1510
g62
(dp1511
sg71
g847
sg64
(lp1512
g57
(g78
g59
NtRp1513
(dp1514
g62
(dp1515
g82
g83
ssg71
g1509
sg64
(lp1516
S'server_name'
p1517
asbag57
(g78
g59
NtRp1518
(dp1519
g62
(dp1520
g89
g90
ssg71
g1509
sg64
(lp1521
S':'
asbag57
(g78
g59
NtRp1522
(dp1523
g62
(dp1524
sg71
g1509
sg64
(lp1525
g57
(g58
g59
NtRp1526
(dp1527
g62
(dp1528
g70
I4
ssg71
g1522
sg64
(lp1529
g1345
asbasbasbag57
(g73
g59
NtRp1530
(dp1531
g62
(dp1532
sg71
g847
sg64
(lp1533
g57
(g78
g59
NtRp1534
(dp1535
g62
(dp1536
g82
g83
ssg71
g1530
sg64
(lp1537
S'server_port'
p1538
asbag57
(g78
g59
NtRp1539
(dp1540
g62
(dp1541
g89
g90
ssg71
g1530
sg64
(lp1542
S':'
asbag57
(g78
g59
NtRp1543
(dp1544
g62
(dp1545
sg71
g1530
sg64
(lp1546
g57
(g58
g59
NtRp1547
(dp1548
g62
(dp1549
g70
I4
ssg71
g1543
sg64
(lp1550
S'8000'
p1551
asbasbasbag57
(g73
g59
NtRp1552
(dp1553
g62
(dp1554
sg71
g847
sg64
(lp1555
g57
(g78
g59
NtRp1556
(dp1557
g62
(dp1558
g82
g83
ssg71
g1552
sg64
(lp1559
S'server_protocol'
p1560
asbag57
(g78
g59
NtRp1561
(dp1562
g62
(dp1563
g89
g90
ssg71
g1552
sg64
(lp1564
S':'
asbag57
(g78
g59
NtRp1565
(dp1566
g62
(dp1567
sg71
g1552
sg64
(lp1568
g57
(g58
g59
NtRp1569
(dp1570
g62
(dp1571
g70
I4
ssg71
g1565
sg64
(lp1572
S'HTTP/1.1'
p1573
asbasbasbag57
(g73
g59
NtRp1574
(dp1575
g62
(dp1576
sg71
g847
sg64
(lp1577
g57
(g78
g59
NtRp1578
(dp1579
g62
(dp1580
g82
g83
ssg71
g1574
sg64
(lp1581
S'server_software'
p1582
asbag57
(g78
g59
NtRp1583
(dp1584
g62
(dp1585
g89
g90
ssg71
g1574
sg64
(lp1586
S':'
asbag57
(g78
g59
NtRp1587
(dp1588
g62
(dp1589
sg71
g1574
sg64
(lp1590
g57
(g58
g59
NtRp1591
(dp1592
g62
(dp1593
g70
I4
ssg71
g1587
sg64
(lp1594
S'Rocket 1.2.5'
p1595
asbasbasbag57
(g73
g59
NtRp1596
(dp1597
g62
(dp1598
sg71
g847
sg64
(lp1599
g57
(g78
g59
NtRp1600
(dp1601
g62
(dp1602
g82
g83
ssg71
g1596
sg64
(lp1603
S'web2py_path'
p1604
asbag57
(g78
g59
NtRp1605
(dp1606
g62
(dp1607
g89
g90
ssg71
g1596
sg64
(lp1608
S':'
asbag57
(g78
g59
NtRp1609
(dp1610
g62
(dp1611
sg71
g1596
sg64
(lp1612
g57
(g58
g59
NtRp1613
(dp1614
g62
(dp1615
g70
I4
ssg71
g1609
sg64
(lp1616
g894
asbasbasbag57
(g73
g59
NtRp1617
(dp1618
g62
(dp1619
sg71
g847
sg64
(lp1620
g57
(g78
g59
NtRp1621
(dp1622
g62
(dp1623
g82
g83
ssg71
g1617
sg64
(lp1624
S'web2py_version'
p1625
asbag57
(g78
g59
NtRp1626
(dp1627
g62
(dp1628
g89
g90
ssg71
g1617
sg64
(lp1629
S':'
asbag57
(g78
g59
NtRp1630
(dp1631
g62
(dp1632
sg71
g1617
sg64
(lp1633
g57
(g58
g59
NtRp1634
(dp1635
g62
(dp1636
g70
I4
ssg71
g1630
sg64
(lp1637
g57
(g66
g59
NtRp1638
(dp1639
g62
(dp1640
g70
I3
ssg71
Nsg64
(lp1641
g57
(g73
g59
NtRp1642
(dp1643
g62
(dp1644
sg71
g1638
sg64
(lp1645
g57
(g78
g59
NtRp1646
(dp1647
g62
(dp1648
sg71
g1642
sg64
(lp1649
g57
(g58
g59
NtRp1650
(dp1651
g62
(dp1652
g70
I3
ssg71
g1646
sg64
(lp1653
S'2'
asbasbasbag57
(g73
g59
NtRp1654
(dp1655
g62
(dp1656
sg71
g1638
sg64
(lp1657
g57
(g78
g59
NtRp1658
(dp1659
g62
(dp1660
sg71
g1654
sg64
(lp1661
g57
(g58
g59
NtRp1662
(dp1663
g62
(dp1664
g70
I3
ssg71
g1658
sg64
(lp1665
S'2'
asbasbasbag57
(g73
g59
NtRp1666
(dp1667
g62
(dp1668
sg71
g1638
sg64
(lp1669
g57
(g78
g59
NtRp1670
(dp1671
g62
(dp1672
sg71
g1666
sg64
(lp1673
g57
(g58
g59
NtRp1674
(dp1675
g62
(dp1676
g70
I3
ssg71
g1670
sg64
(lp1677
S'1'
asbasbasbag57
(g73
g59
NtRp1678
(dp1679
g62
(dp1680
sg71
g1638
sg64
(lp1681
g57
(g78
g59
NtRp1682
(dp1683
g62
(dp1684
sg71
g1678
sg64
(lp1685
g57
(g58
g59
NtRp1686
(dp1687
g62
(dp1688
g70
I3
ssg71
g1682
sg64
(lp1689
S'datetime.datetime(2012, 10, 21, 16, 57, 4)'
p1690
asbasbasbag57
(g73
g59
NtRp1691
(dp1692
g62
(dp1693
sg71
g1638
sg64
(lp1694
g57
(g78
g59
NtRp1695
(dp1696
g62
(dp1697
sg71
g1691
sg64
(lp1698
g57
(g58
g59
NtRp1699
(dp1700
g62
(dp1701
g70
I3
ssg71
g1695
sg64
(lp1702
S'stable'
p1703
asbasbasbasbasbasbasbag57
(g73
g59
NtRp1704
(dp1705
g62
(dp1706
sg71
g847
sg64
(lp1707
g57
(g78
g59
NtRp1708
(dp1709
g62
(dp1710
g82
g83
ssg71
g1704
sg64
(lp1711
S'wsgi_errors'
p1712
asbag57
(g78
g59
NtRp1713
(dp1714
g62
(dp1715
g89
g90
ssg71
g1704
sg64
(lp1716
S':'
asbag57
(g78
g59
NtRp1717
(dp1718
g62
(dp1719
sg71
g1704
sg64
(lp1720
g57
(g58
g59
NtRp1721
(dp1722
g62
(dp1723
g70
I4
ssg71
g1717
sg64
(lp1724
S"<open file '<stderr>', mode 'w' at 0x7f811fe6f270>"
p1725
asbasbasbag57
(g73
g59
NtRp1726
(dp1727
g62
(dp1728
sg71
g847
sg64
(lp1729
g57
(g78
g59
NtRp1730
(dp1731
g62
(dp1732
g82
g83
ssg71
g1726
sg64
(lp1733
S'wsgi_file_wrapper'
p1734
asbag57
(g78
g59
NtRp1735
(dp1736
g62
(dp1737
g89
g90
ssg71
g1726
sg64
(lp1738
S':'
asbag57
(g78
g59
NtRp1739
(dp1740
g62
(dp1741
sg71
g1726
sg64
(lp1742
g57
(g58
g59
NtRp1743
(dp1744
g62
(dp1745
g70
I4
ssg71
g1739
sg64
(lp1746
S'<class wsgiref.util.FileWrapper at 0x2cc6808>'
p1747
asbasbasbag57
(g73
g59
NtRp1748
(dp1749
g62
(dp1750
sg71
g847
sg64
(lp1751
g57
(g78
g59
NtRp1752
(dp1753
g62
(dp1754
g82
g83
ssg71
g1748
sg64
(lp1755
S'wsgi_input'
p1756
asbag57
(g78
g59
NtRp1757
(dp1758
g62
(dp1759
g89
g90
ssg71
g1748
sg64
(lp1760
S':'
asbag57
(g78
g59
NtRp1761
(dp1762
g62
(dp1763
sg71
g1748
sg64
(lp1764
g57
(g58
g59
NtRp1765
(dp1766
g62
(dp1767
g70
I4
ssg71
g1761
sg64
(lp1768
S'<socket._fileobject object at 0x7f81043b77d0>'
p1769
asbasbasbag57
(g73
g59
NtRp1770
(dp1771
g62
(dp1772
sg71
g847
sg64
(lp1773
g57
(g78
g59
NtRp1774
(dp1775
g62
(dp1776
g82
g83
ssg71
g1770
sg64
(lp1777
S'wsgi_multiprocess'
p1778
asbag57
(g78
g59
NtRp1779
(dp1780
g62
(dp1781
g89
g90
ssg71
g1770
sg64
(lp1782
S':'
asbag57
(g78
g59
NtRp1783
(dp1784
g62
(dp1785
sg71
g1770
sg64
(lp1786
g57
(g58
g59
NtRp1787
(dp1788
g62
(dp1789
g70
I4
ssg71
g1783
sg64
(lp1790
g100
asbasbasbag57
(g73
g59
NtRp1791
(dp1792
g62
(dp1793
sg71
g847
sg64
(lp1794
g57
(g78
g59
NtRp1795
(dp1796
g62
(dp1797
g82
g83
ssg71
g1791
sg64
(lp1798
S'wsgi_multithread'
p1799
asbag57
(g78
g59
NtRp1800
(dp1801
g62
(dp1802
g89
g90
ssg71
g1791
sg64
(lp1803
S':'
asbag57
(g78
g59
NtRp1804
(dp1805
g62
(dp1806
sg71
g1791
sg64
(lp1807
g57
(g58
g59
NtRp1808
(dp1809
g62
(dp1810
g70
I4
ssg71
g1804
sg64
(lp1811
S'True'
p1812
asbasbasbag57
(g73
g59
NtRp1813
(dp1814
g62
(dp1815
sg71
g847
sg64
(lp1816
g57
(g78
g59
NtRp1817
(dp1818
g62
(dp1819
g82
g83
ssg71
g1813
sg64
(lp1820
S'wsgi_run_once'
p1821
asbag57
(g78
g59
NtRp1822
(dp1823
g62
(dp1824
g89
g90
ssg71
g1813
sg64
(lp1825
S':'
asbag57
(g78
g59
NtRp1826
(dp1827
g62
(dp1828
sg71
g1813
sg64
(lp1829
g57
(g58
g59
NtRp1830
(dp1831
g62
(dp1832
g70
I4
ssg71
g1826
sg64
(lp1833
g100
asbasbasbag57
(g73
g59
NtRp1834
(dp1835
g62
(dp1836
sg71
g847
sg64
(lp1837
g57
(g78
g59
NtRp1838
(dp1839
g62
(dp1840
g82
g83
ssg71
g1834
sg64
(lp1841
S'wsgi_url_scheme'
p1842
asbag57
(g78
g59
NtRp1843
(dp1844
g62
(dp1845
g89
g90
ssg71
g1834
sg64
(lp1846
S':'
asbag57
(g78
g59
NtRp1847
(dp1848
g62
(dp1849
sg71
g1834
sg64
(lp1850
g57
(g58
g59
NtRp1851
(dp1852
g62
(dp1853
g70
I4
ssg71
g1847
sg64
(lp1854
S'http'
p1855
asbasbasbag57
(g73
g59
NtRp1856
(dp1857
g62
(dp1858
sg71
g847
sg64
(lp1859
g57
(g78
g59
NtRp1860
(dp1861
g62
(dp1862
g82
g83
ssg71
g1856
sg64
(lp1863
S'wsgi_version'
p1864
asbag57
(g78
g59
NtRp1865
(dp1866
g62
(dp1867
g89
g90
ssg71
g1856
sg64
(lp1868
S':'
asbag57
(g78
g59
NtRp1869
(dp1870
g62
(dp1871
sg71
g1856
sg64
(lp1872
g57
(g58
g59
NtRp1873
(dp1874
g62
(dp1875
g70
I4
ssg71
g1869
sg64
(lp1876
g57
(g66
g59
NtRp1877
(dp1878
g62
(dp1879
g70
I3
ssg71
Nsg64
(lp1880
g57
(g73
g59
NtRp1881
(dp1882
g62
(dp1883
sg71
g1877
sg64
(lp1884
g57
(g78
g59
NtRp1885
(dp1886
g62
(dp1887
sg71
g1881
sg64
(lp1888
g57
(g58
g59
NtRp1889
(dp1890
g62
(dp1891
g70
I3
ssg71
g1885
sg64
(lp1892
S'1'
asbasbasbag57
(g73
g59
NtRp1893
(dp1894
g62
(dp1895
sg71
g1877
sg64
(lp1896
g57
(g78
g59
NtRp1897
(dp1898
g62
(dp1899
sg71
g1893
sg64
(lp1900
g57
(g58
g59
NtRp1901
(dp1902
g62
(dp1903
g70
I3
ssg71
g1897
sg64
(lp1904
S'0'
asbasbasbasbasbasbasbasbasbasbasbag57
(g73
g59
NtRp1905
(dp1906
g62
(dp1907
sg71
g67
sg64
(lp1908
g57
(g78
g59
NtRp1909
(dp1910
g62
(dp1911
g82
g83
ssg71
g1905
sg64
(lp1912
S'extension'
p1913
asbag57
(g78
g59
NtRp1914
(dp1915
g62
(dp1916
g89
g90
ssg71
g1905
sg64
(lp1917
S':'
asbag57
(g78
g59
NtRp1918
(dp1919
g62
(dp1920
sg71
g1905
sg64
(lp1921
g57
(g58
g59
NtRp1922
(dp1923
g62
(dp1924
g70
I5
ssg71
g1918
sg64
(lp1925
S'html'
p1926
asbasbasbag57
(g73
g59
NtRp1927
(dp1928
g62
(dp1929
sg71
g67
sg64
(lp1930
g57
(g78
g59
NtRp1931
(dp1932
g62
(dp1933
g82
g83
ssg71
g1927
sg64
(lp1934
S'folder'
p1935
asbag57
(g78
g59
NtRp1936
(dp1937
g62
(dp1938
g89
g90
ssg71
g1927
sg64
(lp1939
S':'
asbag57
(g78
g59
NtRp1940
(dp1941
g62
(dp1942
sg71
g1927
sg64
(lp1943
g57
(g58
g59
NtRp1944
(dp1945
g62
(dp1946
g70
I5
ssg71
g1940
sg64
(lp1947
S'/home/wionel/Desktop/web2py/applications/music/'
p1948
asbasbasbag57
(g73
g59
NtRp1949
(dp1950
g62
(dp1951
sg71
g67
sg64
(lp1952
g57
(g78
g59
NtRp1953
(dp1954
g62
(dp1955
g82
g83
ssg71
g1949
sg64
(lp1956
S'function'
p1957
asbag57
(g78
g59
NtRp1958
(dp1959
g62
(dp1960
g89
g90
ssg71
g1949
sg64
(lp1961
S':'
asbag57
(g78
g59
NtRp1962
(dp1963
g62
(dp1964
sg71
g1949
sg64
(lp1965
g57
(g58
g59
NtRp1966
(dp1967
g62
(dp1968
g70
I5
ssg71
g1962
sg64
(lp1969
S'playlist'
p1970
asbasbasbag57
(g73
g59
NtRp1971
(dp1972
g62
(dp1973
sg71
g67
sg64
(lp1974
g57
(g78
g59
NtRp1975
(dp1976
g62
(dp1977
g82
g83
ssg71
g1971
sg64
(lp1978
S'get_vars'
p1979
asbag57
(g78
g59
NtRp1980
(dp1981
g62
(dp1982
g89
g90
ssg71
g1971
sg64
(lp1983
S':'
asbag57
(g78
g59
NtRp1984
(dp1985
g62
(dp1986
sg71
g1971
sg64
(lp1987
g57
(g58
g59
NtRp1988
(dp1989
g62
(dp1990
g70
I5
ssg71
g1984
sg64
(lp1991
g57
(g66
g59
NtRp1992
(dp1993
g62
(dp1994
g70
I4
ssg71
Nsg64
(lp1995
sbasbasbasbag57
(g73
g59
NtRp1996
(dp1997
g62
(dp1998
sg71
g67
sg64
(lp1999
g57
(g78
g59
NtRp2000
(dp2001
g62
(dp2002
g82
g83
ssg71
g1996
sg64
(lp2003
S'global_settings'
p2004
asbag57
(g78
g59
NtRp2005
(dp2006
g62
(dp2007
g89
g90
ssg71
g1996
sg64
(lp2008
S':'
asbag57
(g78
g59
NtRp2009
(dp2010
g62
(dp2011
sg71
g1996
sg64
(lp2012
g57
(g58
g59
NtRp2013
(dp2014
g62
(dp2015
g70
I5
ssg71
g2009
sg64
(lp2016
g57
(g66
g59
NtRp2017
(dp2018
g62
(dp2019
g70
I4
ssg71
Nsg64
(lp2020
g57
(g73
g59
NtRp2021
(dp2022
g62
(dp2023
sg71
g2017
sg64
(lp2024
g57
(g78
g59
NtRp2025
(dp2026
g62
(dp2027
g82
g83
ssg71
g2021
sg64
(lp2028
g859
asbag57
(g78
g59
NtRp2029
(dp2030
g62
(dp2031
g89
g90
ssg71
g2021
sg64
(lp2032
S':'
asbag57
(g78
g59
NtRp2033
(dp2034
g62
(dp2035
sg71
g2021
sg64
(lp2036
g57
(g58
g59
NtRp2037
(dp2038
g62
(dp2039
g70
I4
ssg71
g2033
sg64
(lp2040
S"set(['/home/wionel/Desktop/web2py/applications/admin/', '/home/wionel/Desktop/web2py/applications/welcome/', '/home/wionel/Desktop/web2py/applications/music/'])"
p2041
asbasbasbag57
(g73
g59
NtRp2042
(dp2043
g62
(dp2044
sg71
g2017
sg64
(lp2045
g57
(g78
g59
NtRp2046
(dp2047
g62
(dp2048
g82
g83
ssg71
g2042
sg64
(lp2049
g881
asbag57
(g78
g59
NtRp2050
(dp2051
g62
(dp2052
g89
g90
ssg71
g2042
sg64
(lp2053
S':'
asbag57
(g78
g59
NtRp2054
(dp2055
g62
(dp2056
sg71
g2042
sg64
(lp2057
g57
(g58
g59
NtRp2058
(dp2059
g62
(dp2060
g70
I4
ssg71
g2054
sg64
(lp2061
g894
asbasbasbag57
(g73
g59
NtRp2062
(dp2063
g62
(dp2064
sg71
g2017
sg64
(lp2065
g57
(g78
g59
NtRp2066
(dp2067
g62
(dp2068
g82
g83
ssg71
g2062
sg64
(lp2069
g903
asbag57
(g78
g59
NtRp2070
(dp2071
g62
(dp2072
g89
g90
ssg71
g2062
sg64
(lp2073
S':'
asbag57
(g78
g59
NtRp2074
(dp2075
g62
(dp2076
sg71
g2062
sg64
(lp2077
g57
(g58
g59
NtRp2078
(dp2079
g62
(dp2080
g70
I4
ssg71
g2074
sg64
(lp2081
g57
(g66
g59
NtRp2082
(dp2083
g62
(dp2084
g70
I3
ssg71
Nsg64
(lp2085
sbasbasbasbag57
(g73
g59
NtRp2086
(dp2087
g62
(dp2088
sg71
g2017
sg64
(lp2089
g57
(g78
g59
NtRp2090
(dp2091
g62
(dp2092
g82
g83
ssg71
g2086
sg64
(lp2093
g928
asbag57
(g78
g59
NtRp2094
(dp2095
g62
(dp2096
g89
g90
ssg71
g2086
sg64
(lp2097
S':'
asbag57
(g78
g59
NtRp2098
(dp2099
g62
(dp2100
sg71
g2086
sg64
(lp2101
g57
(g58
g59
NtRp2102
(dp2103
g62
(dp2104
g70
I4
ssg71
g2098
sg64
(lp2105
S"<Values at 0x2d6d488: {'verbose': False, 'ip': '127.0.0.1', 'with_scheduler': False, 'ips': ['127.0.1.1'], 'shutdown_timeout': 5, 'taskbar': False, 'port': 8000, 'maxthreads': None, 'softcron': False, 'server_name': 'Rohan', 'bpython': False, 'nogui': False, 'pid_filename': 'httpserver.pid', 'extcron': False, 'runcron': False, 'run_system_tests': False, 'test': None, 'folder': '/home/wionel/Desktop/web2py', 'config': '', 'minthreads': None, 'winservice': '', 'shell': None, 'run': '', 'log_filename': 'httpserver.log', 'debuglevel': 30, 'args': [''], 'socket_timeout': 5, 'ssl_ca_certificate': None, 'scheduler': None, 'profiler_filename': None, 'ssl_private_key': '', 'scheduler_groups': None, 'password': '<ask>', 'request_queue_size': 5, 'ssl_certificate': '', 'cronjob': False, 'numthreads': None, 'quiet': False, 'interfaces': None, 'import_models': False, 'timeout': 10, 'plain': False, 'nobanner': False}>"
p2106
asbasbasbag57
(g73
g59
NtRp2107
(dp2108
g62
(dp2109
sg71
g2017
sg64
(lp2110
g57
(g78
g59
NtRp2111
(dp2112
g62
(dp2113
g82
g83
ssg71
g2107
sg64
(lp2114
g950
asbag57
(g78
g59
NtRp2115
(dp2116
g62
(dp2117
g89
g90
ssg71
g2107
sg64
(lp2118
S':'
asbag57
(g78
g59
NtRp2119
(dp2120
g62
(dp2121
sg71
g2107
sg64
(lp2122
g57
(g58
g59
NtRp2123
(dp2124
g62
(dp2125
g70
I4
ssg71
g2119
sg64
(lp2126
S'set([])'
p2127
asbasbasbag57
(g73
g59
NtRp2128
(dp2129
g62
(dp2130
sg71
g2017
sg64
(lp2131
g57
(g78
g59
NtRp2132
(dp2133
g62
(dp2134
g82
g83
ssg71
g2128
sg64
(lp2135
g972
asbag57
(g78
g59
NtRp2136
(dp2137
g62
(dp2138
g89
g90
ssg71
g2128
sg64
(lp2139
S':'
asbag57
(g78
g59
NtRp2140
(dp2141
g62
(dp2142
sg71
g2128
sg64
(lp2143
g57
(g58
g59
NtRp2144
(dp2145
g62
(dp2146
g70
I4
ssg71
g2140
sg64
(lp2147
g100
asbasbasbag57
(g73
g59
NtRp2148
(dp2149
g62
(dp2150
sg71
g2017
sg64
(lp2151
g57
(g78
g59
NtRp2152
(dp2153
g62
(dp2154
g82
g83
ssg71
g2148
sg64
(lp2155
g993
asbag57
(g78
g59
NtRp2156
(dp2157
g62
(dp2158
g89
g90
ssg71
g2148
sg64
(lp2159
S':'
asbag57
(g78
g59
NtRp2160
(dp2161
g62
(dp2162
sg71
g2148
sg64
(lp2163
g57
(g58
g59
NtRp2164
(dp2165
g62
(dp2166
g70
I4
ssg71
g2160
sg64
(lp2167
g1006
asbasbasbag57
(g73
g59
NtRp2168
(dp2169
g62
(dp2170
sg71
g2017
sg64
(lp2171
g57
(g78
g59
NtRp2172
(dp2173
g62
(dp2174
g82
g83
ssg71
g2168
sg64
(lp2175
g1235
asbag57
(g78
g59
NtRp2176
(dp2177
g62
(dp2178
g89
g90
ssg71
g2168
sg64
(lp2179
S':'
asbag57
(g78
g59
NtRp2180
(dp2181
g62
(dp2182
sg71
g2168
sg64
(lp2183
g57
(g58
g59
NtRp2184
(dp2185
g62
(dp2186
g70
I4
ssg71
g2180
sg64
(lp2187
g100
asbasbasbag57
(g73
g59
NtRp2188
(dp2189
g62
(dp2190
sg71
g2017
sg64
(lp2191
g57
(g78
g59
NtRp2192
(dp2193
g62
(dp2194
g82
g83
ssg71
g2188
sg64
(lp2195
g1256
asbag57
(g78
g59
NtRp2196
(dp2197
g62
(dp2198
g89
g90
ssg71
g2188
sg64
(lp2199
S':'
asbag57
(g78
g59
NtRp2200
(dp2201
g62
(dp2202
sg71
g2188
sg64
(lp2203
g57
(g58
g59
NtRp2204
(dp2205
g62
(dp2206
g70
I4
ssg71
g2200
sg64
(lp2207
g100
asbasbasbag57
(g73
g59
NtRp2208
(dp2209
g62
(dp2210
sg71
g2017
sg64
(lp2211
g57
(g78
g59
NtRp2212
(dp2213
g62
(dp2214
g82
g83
ssg71
g2208
sg64
(lp2215
g1277
asbag57
(g78
g59
NtRp2216
(dp2217
g62
(dp2218
g89
g90
ssg71
g2208
sg64
(lp2219
S':'
asbag57
(g78
g59
NtRp2220
(dp2221
g62
(dp2222
sg71
g2208
sg64
(lp2223
g57
(g58
g59
NtRp2224
(dp2225
g62
(dp2226
g70
I4
ssg71
g2220
sg64
(lp2227
g57
(g66
g59
NtRp2228
(dp2229
g62
(dp2230
g70
I3
ssg71
Nsg64
(lp2231
g57
(g73
g59
NtRp2232
(dp2233
g62
(dp2234
sg71
g2228
sg64
(lp2235
g57
(g78
g59
NtRp2236
(dp2237
g62
(dp2238
sg71
g2232
sg64
(lp2239
g57
(g58
g59
NtRp2240
(dp2241
g62
(dp2242
g70
I3
ssg71
g2236
sg64
(lp2243
g1306
asbasbasbag57
(g73
g59
NtRp2244
(dp2245
g62
(dp2246
sg71
g2228
sg64
(lp2247
g57
(g78
g59
NtRp2248
(dp2249
g62
(dp2250
sg71
g2244
sg64
(lp2251
g57
(g58
g59
NtRp2252
(dp2253
g62
(dp2254
g70
I3
ssg71
g2248
sg64
(lp2255
g1319
asbasbasbag57
(g73
g59
NtRp2256
(dp2257
g62
(dp2258
sg71
g2228
sg64
(lp2259
g57
(g78
g59
NtRp2260
(dp2261
g62
(dp2262
sg71
g2256
sg64
(lp2263
g57
(g58
g59
NtRp2264
(dp2265
g62
(dp2266
g70
I3
ssg71
g2260
sg64
(lp2267
g1332
asbasbasbag57
(g73
g59
NtRp2268
(dp2269
g62
(dp2270
sg71
g2228
sg64
(lp2271
g57
(g78
g59
NtRp2272
(dp2273
g62
(dp2274
sg71
g2268
sg64
(lp2275
g57
(g58
g59
NtRp2276
(dp2277
g62
(dp2278
g70
I3
ssg71
g2272
sg64
(lp2279
g1345
asbasbasbag57
(g73
g59
NtRp2280
(dp2281
g62
(dp2282
sg71
g2228
sg64
(lp2283
g57
(g78
g59
NtRp2284
(dp2285
g62
(dp2286
sg71
g2280
sg64
(lp2287
g57
(g58
g59
NtRp2288
(dp2289
g62
(dp2290
g70
I3
ssg71
g2284
sg64
(lp2291
g1358
asbasbasbasbasbasbasbag57
(g73
g59
NtRp2292
(dp2293
g62
(dp2294
sg71
g2017
sg64
(lp2295
g57
(g78
g59
NtRp2296
(dp2297
g62
(dp2298
g82
g83
ssg71
g2292
sg64
(lp2299
g1625
asbag57
(g78
g59
NtRp2300
(dp2301
g62
(dp2302
g89
g90
ssg71
g2292
sg64
(lp2303
S':'
asbag57
(g78
g59
NtRp2304
(dp2305
g62
(dp2306
sg71
g2292
sg64
(lp2307
g57
(g58
g59
NtRp2308
(dp2309
g62
(dp2310
g70
I4
ssg71
g2304
sg64
(lp2311
g57
(g66
g59
NtRp2312
(dp2313
g62
(dp2314
g70
I3
ssg71
Nsg64
(lp2315
g57
(g73
g59
NtRp2316
(dp2317
g62
(dp2318
sg71
g2312
sg64
(lp2319
g57
(g78
g59
NtRp2320
(dp2321
g62
(dp2322
sg71
g2316
sg64
(lp2323
g57
(g58
g59
NtRp2324
(dp2325
g62
(dp2326
g70
I3
ssg71
g2320
sg64
(lp2327
S'2'
asbasbasbag57
(g73
g59
NtRp2328
(dp2329
g62
(dp2330
sg71
g2312
sg64
(lp2331
g57
(g78
g59
NtRp2332
(dp2333
g62
(dp2334
sg71
g2328
sg64
(lp2335
g57
(g58
g59
NtRp2336
(dp2337
g62
(dp2338
g70
I3
ssg71
g2332
sg64
(lp2339
S'2'
asbasbasbag57
(g73
g59
NtRp2340
(dp2341
g62
(dp2342
sg71
g2312
sg64
(lp2343
g57
(g78
g59
NtRp2344
(dp2345
g62
(dp2346
sg71
g2340
sg64
(lp2347
g57
(g58
g59
NtRp2348
(dp2349
g62
(dp2350
g70
I3
ssg71
g2344
sg64
(lp2351
S'1'
asbasbasbag57
(g73
g59
NtRp2352
(dp2353
g62
(dp2354
sg71
g2312
sg64
(lp2355
g57
(g78
g59
NtRp2356
(dp2357
g62
(dp2358
sg71
g2352
sg64
(lp2359
g57
(g58
g59
NtRp2360
(dp2361
g62
(dp2362
g70
I3
ssg71
g2356
sg64
(lp2363
S'datetime.datetime(2012, 10, 21, 16, 57, 4)'
p2364
asbasbasbag57
(g73
g59
NtRp2365
(dp2366
g62
(dp2367
sg71
g2312
sg64
(lp2368
g57
(g78
g59
NtRp2369
(dp2370
g62
(dp2371
sg71
g2365
sg64
(lp2372
g57
(g58
g59
NtRp2373
(dp2374
g62
(dp2375
g70
I3
ssg71
g2369
sg64
(lp2376
g1703
asbasbasbasbasbasbasbasbasbasbasbag57
(g73
g59
NtRp2377
(dp2378
g62
(dp2379
sg71
g67
sg64
(lp2380
g57
(g78
g59
NtRp2381
(dp2382
g62
(dp2383
g82
g83
ssg71
g2377
sg64
(lp2384
S'is_https'
p2385
asbag57
(g78
g59
NtRp2386
(dp2387
g62
(dp2388
g89
g90
ssg71
g2377
sg64
(lp2389
S':'
asbag57
(g78
g59
NtRp2390
(dp2391
g62
(dp2392
sg71
g2377
sg64
(lp2393
g57
(g58
g59
NtRp2394
(dp2395
g62
(dp2396
g70
I5
ssg71
g2390
sg64
(lp2397
g100
asbasbasbag57
(g73
g59
NtRp2398
(dp2399
g62
(dp2400
sg71
g67
sg64
(lp2401
g57
(g78
g59
NtRp2402
(dp2403
g62
(dp2404
g82
g83
ssg71
g2398
sg64
(lp2405
S'is_local'
p2406
asbag57
(g78
g59
NtRp2407
(dp2408
g62
(dp2409
g89
g90
ssg71
g2398
sg64
(lp2410
S':'
asbag57
(g78
g59
NtRp2411
(dp2412
g62
(dp2413
sg71
g2398
sg64
(lp2414
g57
(g58
g59
NtRp2415
(dp2416
g62
(dp2417
g70
I5
ssg71
g2411
sg64
(lp2418
g1812
asbasbasbag57
(g73
g59
NtRp2419
(dp2420
g62
(dp2421
sg71
g67
sg64
(lp2422
g57
(g78
g59
NtRp2423
(dp2424
g62
(dp2425
g82
g83
ssg71
g2419
sg64
(lp2426
S'is_restful'
p2427
asbag57
(g78
g59
NtRp2428
(dp2429
g62
(dp2430
g89
g90
ssg71
g2419
sg64
(lp2431
S':'
asbag57
(g78
g59
NtRp2432
(dp2433
g62
(dp2434
sg71
g2419
sg64
(lp2435
g57
(g58
g59
NtRp2436
(dp2437
g62
(dp2438
g70
I5
ssg71
g2432
sg64
(lp2439
g100
asbasbasbag57
(g73
g59
NtRp2440
(dp2441
g62
(dp2442
sg71
g67
sg64
(lp2443
g57
(g78
g59
NtRp2444
(dp2445
g62
(dp2446
g82
g83
ssg71
g2440
sg64
(lp2447
S'now'
p2448
asbag57
(g78
g59
NtRp2449
(dp2450
g62
(dp2451
g89
g90
ssg71
g2440
sg64
(lp2452
S':'
asbag57
(g78
g59
NtRp2453
(dp2454
g62
(dp2455
sg71
g2440
sg64
(lp2456
g57
(g58
g59
NtRp2457
(dp2458
g62
(dp2459
g70
I5
ssg71
g2453
sg64
(lp2460
S'datetime.datetime(2012, 11, 14, 20, 13, 59, 388434)'
p2461
asbasbasbag57
(g73
g59
NtRp2462
(dp2463
g62
(dp2464
sg71
g67
sg64
(lp2465
g57
(g78
g59
NtRp2466
(dp2467
g62
(dp2468
g82
g83
ssg71
g2462
sg64
(lp2469
S'post_vars'
p2470
asbag57
(g78
g59
NtRp2471
(dp2472
g62
(dp2473
g89
g90
ssg71
g2462
sg64
(lp2474
S':'
asbag57
(g78
g59
NtRp2475
(dp2476
g62
(dp2477
sg71
g2462
sg64
(lp2478
g57
(g58
g59
NtRp2479
(dp2480
g62
(dp2481
g70
I5
ssg71
g2475
sg64
(lp2482
g57
(g66
g59
NtRp2483
(dp2484
g62
(dp2485
g70
I4
ssg71
Nsg64
(lp2486
sbasbasbasbag57
(g73
g59
NtRp2487
(dp2488
g62
(dp2489
sg71
g67
sg64
(lp2490
g57
(g78
g59
NtRp2491
(dp2492
g62
(dp2493
g82
g83
ssg71
g2487
sg64
(lp2494
S'raw_args'
p2495
asbag57
(g78
g59
NtRp2496
(dp2497
g62
(dp2498
g89
g90
ssg71
g2487
sg64
(lp2499
S':'
asbag57
(g78
g59
NtRp2500
(dp2501
g62
(dp2502
sg71
g2487
sg64
(lp2503
g57
(g58
g59
NtRp2504
(dp2505
g62
(dp2506
g70
I5
ssg71
g2500
sg64
(lp2507
S''
asbasbasbag57
(g73
g59
NtRp2508
(dp2509
g62
(dp2510
sg71
g67
sg64
(lp2511
g57
(g78
g59
NtRp2512
(dp2513
g62
(dp2514
g82
g83
ssg71
g2508
sg64
(lp2515
S'raw_extension'
p2516
asbag57
(g78
g59
NtRp2517
(dp2518
g62
(dp2519
g89
g90
ssg71
g2508
sg64
(lp2520
S':'
asbag57
(g78
g59
NtRp2521
(dp2522
g62
(dp2523
sg71
g2508
sg64
(lp2524
g57
(g58
g59
NtRp2525
(dp2526
g62
(dp2527
g70
I5
ssg71
g2521
sg64
(lp2528
S'None'
p2529
asbasbasbag57
(g73
g59
NtRp2530
(dp2531
g62
(dp2532
sg71
g67
sg64
(lp2533
g57
(g78
g59
NtRp2534
(dp2535
g62
(dp2536
g82
g83
ssg71
g2530
sg64
(lp2537
S'url'
p2538
asbag57
(g78
g59
NtRp2539
(dp2540
g62
(dp2541
g89
g90
ssg71
g2530
sg64
(lp2542
S':'
asbag57
(g78
g59
NtRp2543
(dp2544
g62
(dp2545
sg71
g2530
sg64
(lp2546
g57
(g58
g59
NtRp2547
(dp2548
g62
(dp2549
g70
I5
ssg71
g2543
sg64
(lp2550
g1380
asbasbasbag57
(g73
g59
NtRp2551
(dp2552
g62
(dp2553
sg71
g67
sg64
(lp2554
g57
(g78
g59
NtRp2555
(dp2556
g62
(dp2557
g82
g83
ssg71
g2551
sg64
(lp2558
S'utcnow'
p2559
asbag57
(g78
g59
NtRp2560
(dp2561
g62
(dp2562
g89
g90
ssg71
g2551
sg64
(lp2563
S':'
asbag57
(g78
g59
NtRp2564
(dp2565
g62
(dp2566
sg71
g2551
sg64
(lp2567
g57
(g58
g59
NtRp2568
(dp2569
g62
(dp2570
g70
I5
ssg71
g2564
sg64
(lp2571
S'datetime.datetime(2012, 11, 14, 14, 43, 59, 388464)'
p2572
asbasbasbag57
(g73
g59
NtRp2573
(dp2574
g62
(dp2575
sg71
g67
sg64
(lp2576
g57
(g78
g59
NtRp2577
(dp2578
g62
(dp2579
g82
g83
ssg71
g2573
sg64
(lp2580
S'uuid'
p2581
asbag57
(g78
g59
NtRp2582
(dp2583
g62
(dp2584
g89
g90
ssg71
g2573
sg64
(lp2585
S':'
asbag57
(g78
g59
NtRp2586
(dp2587
g62
(dp2588
sg71
g2573
sg64
(lp2589
g57
(g58
g59
NtRp2590
(dp2591
g62
(dp2592
g70
I5
ssg71
g2586
sg64
(lp2593
S'music/127.0.0.1.2012-11-14.20-13-59.58237b10-9dcc-4bd6-bf2b-a8e19ca6d43f'
p2594
asbasbasbag57
(g73
g59
NtRp2595
(dp2596
g62
(dp2597
sg71
g67
sg64
(lp2598
g57
(g78
g59
NtRp2599
(dp2600
g62
(dp2601
g82
g83
ssg71
g2595
sg64
(lp2602
S'vars'
p2603
asbag57
(g78
g59
NtRp2604
(dp2605
g62
(dp2606
g89
g90
ssg71
g2595
sg64
(lp2607
S':'
asbag57
(g78
g59
NtRp2608
(dp2609
g62
(dp2610
sg71
g2595
sg64
(lp2611
g57
(g58
g59
NtRp2612
(dp2613
g62
(dp2614
g70
I5
ssg71
g2608
sg64
(lp2615
g57
(g66
g59
NtRp2616
(dp2617
g62
(dp2618
g70
I4
ssg71
Nsg64
(lp2619
sbasbasbasbag57
(g73
g59
NtRp2620
(dp2621
g62
(dp2622
sg71
g67
sg64
(lp2623
g57
(g78
g59
NtRp2624
(dp2625
g62
(dp2626
g82
g83
ssg71
g2620
sg64
(lp2627
S'wsgi'
p2628
asbag57
(g78
g59
NtRp2629
(dp2630
g62
(dp2631
g89
g90
ssg71
g2620
sg64
(lp2632
S':'
asbag57
(g78
g59
NtRp2633
(dp2634
g62
(dp2635
sg71
g2620
sg64
(lp2636
g57
(g58
g59
NtRp2637
(dp2638
g62
(dp2639
g70
I5
ssg71
g2633
sg64
(lp2640
g57
(g66
g59
NtRp2641
(dp2642
g62
(dp2643
g70
I4
ssg71
Nsg64
(lp2644
g57
(g73
g59
NtRp2645
(dp2646
g62
(dp2647
sg71
g2641
sg64
(lp2648
g57
(g78
g59
NtRp2649
(dp2650
g62
(dp2651
g82
g83
ssg71
g2645
sg64
(lp2652
S'environ'
p2653
asbag57
(g78
g59
NtRp2654
(dp2655
g62
(dp2656
g89
g90
ssg71
g2645
sg64
(lp2657
S':'
asbag57
(g78
g59
NtRp2658
(dp2659
g62
(dp2660
sg71
g2645
sg64
(lp2661
g57
(g58
g59
NtRp2662
(dp2663
g62
(dp2664
g70
I4
ssg71
g2658
sg64
(lp2665
g57
(g66
g59
NtRp2666
(dp2667
g62
(dp2668
g70
I3
ssg71
Nsg64
(lp2669
g57
(g73
g59
NtRp2670
(dp2671
g62
(dp2672
sg71
g2666
sg64
(lp2673
g57
(g78
g59
NtRp2674
(dp2675
g62
(dp2676
g82
g83
ssg71
g2670
sg64
(lp2677
S'HTTP_ACCEPT'
p2678
asbag57
(g78
g59
NtRp2679
(dp2680
g62
(dp2681
g89
g90
ssg71
g2670
sg64
(lp2682
S':'
asbag57
(g78
g59
NtRp2683
(dp2684
g62
(dp2685
sg71
g2670
sg64
(lp2686
g57
(g58
g59
NtRp2687
(dp2688
g62
(dp2689
g70
I3
ssg71
g2683
sg64
(lp2690
g1028
asbasbasbag57
(g73
g59
NtRp2691
(dp2692
g62
(dp2693
sg71
g2666
sg64
(lp2694
g57
(g78
g59
NtRp2695
(dp2696
g62
(dp2697
g82
g83
ssg71
g2691
sg64
(lp2698
S'HTTP_ACCEPT_CHARSET'
p2699
asbag57
(g78
g59
NtRp2700
(dp2701
g62
(dp2702
g89
g90
ssg71
g2691
sg64
(lp2703
S':'
asbag57
(g78
g59
NtRp2704
(dp2705
g62
(dp2706
sg71
g2691
sg64
(lp2707
g57
(g58
g59
NtRp2708
(dp2709
g62
(dp2710
g70
I3
ssg71
g2704
sg64
(lp2711
g1050
asbasbasbag57
(g73
g59
NtRp2712
(dp2713
g62
(dp2714
sg71
g2666
sg64
(lp2715
g57
(g78
g59
NtRp2716
(dp2717
g62
(dp2718
g82
g83
ssg71
g2712
sg64
(lp2719
S'HTTP_ACCEPT_ENCODING'
p2720
asbag57
(g78
g59
NtRp2721
(dp2722
g62
(dp2723
g89
g90
ssg71
g2712
sg64
(lp2724
S':'
asbag57
(g78
g59
NtRp2725
(dp2726
g62
(dp2727
sg71
g2712
sg64
(lp2728
g57
(g58
g59
NtRp2729
(dp2730
g62
(dp2731
g70
I3
ssg71
g2725
sg64
(lp2732
g1072
asbasbasbag57
(g73
g59
NtRp2733
(dp2734
g62
(dp2735
sg71
g2666
sg64
(lp2736
g57
(g78
g59
NtRp2737
(dp2738
g62
(dp2739
g82
g83
ssg71
g2733
sg64
(lp2740
S'HTTP_ACCEPT_LANGUAGE'
p2741
asbag57
(g78
g59
NtRp2742
(dp2743
g62
(dp2744
g89
g90
ssg71
g2733
sg64
(lp2745
S':'
asbag57
(g78
g59
NtRp2746
(dp2747
g62
(dp2748
sg71
g2733
sg64
(lp2749
g57
(g58
g59
NtRp2750
(dp2751
g62
(dp2752
g70
I3
ssg71
g2746
sg64
(lp2753
g1094
asbasbasbag57
(g73
g59
NtRp2754
(dp2755
g62
(dp2756
sg71
g2666
sg64
(lp2757
g57
(g78
g59
NtRp2758
(dp2759
g62
(dp2760
g82
g83
ssg71
g2754
sg64
(lp2761
S'HTTP_CACHE_CONTROL'
p2762
asbag57
(g78
g59
NtRp2763
(dp2764
g62
(dp2765
g89
g90
ssg71
g2754
sg64
(lp2766
S':'
asbag57
(g78
g59
NtRp2767
(dp2768
g62
(dp2769
sg71
g2754
sg64
(lp2770
g57
(g58
g59
NtRp2771
(dp2772
g62
(dp2773
g70
I3
ssg71
g2767
sg64
(lp2774
g1116
asbasbasbag57
(g73
g59
NtRp2775
(dp2776
g62
(dp2777
sg71
g2666
sg64
(lp2778
g57
(g78
g59
NtRp2779
(dp2780
g62
(dp2781
g82
g83
ssg71
g2775
sg64
(lp2782
S'HTTP_CONNECTION'
p2783
asbag57
(g78
g59
NtRp2784
(dp2785
g62
(dp2786
g89
g90
ssg71
g2775
sg64
(lp2787
S':'
asbag57
(g78
g59
NtRp2788
(dp2789
g62
(dp2790
sg71
g2775
sg64
(lp2791
g57
(g58
g59
NtRp2792
(dp2793
g62
(dp2794
g70
I3
ssg71
g2788
sg64
(lp2795
g1138
asbasbasbag57
(g73
g59
NtRp2796
(dp2797
g62
(dp2798
sg71
g2666
sg64
(lp2799
g57
(g78
g59
NtRp2800
(dp2801
g62
(dp2802
g82
g83
ssg71
g2796
sg64
(lp2803
S'HTTP_COOKIE'
p2804
asbag57
(g78
g59
NtRp2805
(dp2806
g62
(dp2807
g89
g90
ssg71
g2796
sg64
(lp2808
S':'
asbag57
(g78
g59
NtRp2809
(dp2810
g62
(dp2811
sg71
g2796
sg64
(lp2812
g57
(g58
g59
NtRp2813
(dp2814
g62
(dp2815
g70
I3
ssg71
g2809
sg64
(lp2816
g1160
asbasbasbag57
(g73
g59
NtRp2817
(dp2818
g62
(dp2819
sg71
g2666
sg64
(lp2820
g57
(g78
g59
NtRp2821
(dp2822
g62
(dp2823
g82
g83
ssg71
g2817
sg64
(lp2824
S'HTTP_HOST'
p2825
asbag57
(g78
g59
NtRp2826
(dp2827
g62
(dp2828
g89
g90
ssg71
g2817
sg64
(lp2829
S':'
asbag57
(g78
g59
NtRp2830
(dp2831
g62
(dp2832
sg71
g2817
sg64
(lp2833
g57
(g58
g59
NtRp2834
(dp2835
g62
(dp2836
g70
I3
ssg71
g2830
sg64
(lp2837
g1182
asbasbasbag57
(g73
g59
NtRp2838
(dp2839
g62
(dp2840
sg71
g2666
sg64
(lp2841
g57
(g78
g59
NtRp2842
(dp2843
g62
(dp2844
g82
g83
ssg71
g2838
sg64
(lp2845
S'HTTP_REFERER'
p2846
asbag57
(g78
g59
NtRp2847
(dp2848
g62
(dp2849
g89
g90
ssg71
g2838
sg64
(lp2850
S':'
asbag57
(g78
g59
NtRp2851
(dp2852
g62
(dp2853
sg71
g2838
sg64
(lp2854
g57
(g58
g59
NtRp2855
(dp2856
g62
(dp2857
g70
I3
ssg71
g2851
sg64
(lp2858
g1204
asbasbasbag57
(g73
g59
NtRp2859
(dp2860
g62
(dp2861
sg71
g2666
sg64
(lp2862
g57
(g78
g59
NtRp2863
(dp2864
g62
(dp2865
g82
g83
ssg71
g2859
sg64
(lp2866
S'HTTP_USER_AGENT'
p2867
asbag57
(g78
g59
NtRp2868
(dp2869
g62
(dp2870
g89
g90
ssg71
g2859
sg64
(lp2871
S':'
asbag57
(g78
g59
NtRp2872
(dp2873
g62
(dp2874
sg71
g2859
sg64
(lp2875
g57
(g58
g59
NtRp2876
(dp2877
g62
(dp2878
g70
I3
ssg71
g2872
sg64
(lp2879
g1226
asbasbasbag57
(g73
g59
NtRp2880
(dp2881
g62
(dp2882
sg71
g2666
sg64
(lp2883
g57
(g78
g59
NtRp2884
(dp2885
g62
(dp2886
g82
g83
ssg71
g2880
sg64
(lp2887
S'PATH_INFO'
p2888
asbag57
(g78
g59
NtRp2889
(dp2890
g62
(dp2891
g89
g90
ssg71
g2880
sg64
(lp2892
S':'
asbag57
(g78
g59
NtRp2893
(dp2894
g62
(dp2895
sg71
g2880
sg64
(lp2896
g57
(g58
g59
NtRp2897
(dp2898
g62
(dp2899
g70
I3
ssg71
g2893
sg64
(lp2900
g1380
asbasbasbag57
(g73
g59
NtRp2901
(dp2902
g62
(dp2903
sg71
g2666
sg64
(lp2904
g57
(g78
g59
NtRp2905
(dp2906
g62
(dp2907
g82
g83
ssg71
g2901
sg64
(lp2908
S'QUERY_STRING'
p2909
asbag57
(g78
g59
NtRp2910
(dp2911
g62
(dp2912
g89
g90
ssg71
g2901
sg64
(lp2913
S':'
asbag57
(g78
g59
NtRp2914
(dp2915
g62
(dp2916
sg71
g2901
sg64
(lp2917
g57
(g58
g59
NtRp2918
(dp2919
g62
(dp2920
g70
I3
ssg71
g2914
sg64
(lp2921
S''
asbasbasbag57
(g73
g59
NtRp2922
(dp2923
g62
(dp2924
sg71
g2666
sg64
(lp2925
g57
(g78
g59
NtRp2926
(dp2927
g62
(dp2928
g82
g83
ssg71
g2922
sg64
(lp2929
S'REMOTE_ADDR'
p2930
asbag57
(g78
g59
NtRp2931
(dp2932
g62
(dp2933
g89
g90
ssg71
g2922
sg64
(lp2934
S':'
asbag57
(g78
g59
NtRp2935
(dp2936
g62
(dp2937
sg71
g2922
sg64
(lp2938
g57
(g58
g59
NtRp2939
(dp2940
g62
(dp2941
g70
I3
ssg71
g2935
sg64
(lp2942
g212
asbasbasbag57
(g73
g59
NtRp2943
(dp2944
g62
(dp2945
sg71
g2666
sg64
(lp2946
g57
(g78
g59
NtRp2947
(dp2948
g62
(dp2949
g82
g83
ssg71
g2943
sg64
(lp2950
S'REMOTE_PORT'
p2951
asbag57
(g78
g59
NtRp2952
(dp2953
g62
(dp2954
g89
g90
ssg71
g2943
sg64
(lp2955
S':'
asbag57
(g78
g59
NtRp2956
(dp2957
g62
(dp2958
sg71
g2943
sg64
(lp2959
g57
(g58
g59
NtRp2960
(dp2961
g62
(dp2962
g70
I3
ssg71
g2956
sg64
(lp2963
g1444
asbasbasbag57
(g73
g59
NtRp2964
(dp2965
g62
(dp2966
sg71
g2666
sg64
(lp2967
g57
(g78
g59
NtRp2968
(dp2969
g62
(dp2970
g82
g83
ssg71
g2964
sg64
(lp2971
S'REQUEST_METHOD'
p2972
asbag57
(g78
g59
NtRp2973
(dp2974
g62
(dp2975
g89
g90
ssg71
g2964
sg64
(lp2976
S':'
asbag57
(g78
g59
NtRp2977
(dp2978
g62
(dp2979
sg71
g2964
sg64
(lp2980
g57
(g58
g59
NtRp2981
(dp2982
g62
(dp2983
g70
I3
ssg71
g2977
sg64
(lp2984
g1466
asbasbasbag57
(g73
g59
NtRp2985
(dp2986
g62
(dp2987
sg71
g2666
sg64
(lp2988
g57
(g78
g59
NtRp2989
(dp2990
g62
(dp2991
g82
g83
ssg71
g2985
sg64
(lp2992
S'REQUEST_URI'
p2993
asbag57
(g78
g59
NtRp2994
(dp2995
g62
(dp2996
g89
g90
ssg71
g2985
sg64
(lp2997
S':'
asbag57
(g78
g59
NtRp2998
(dp2999
g62
(dp3000
sg71
g2985
sg64
(lp3001
g57
(g58
g59
NtRp3002
(dp3003
g62
(dp3004
g70
I3
ssg71
g2998
sg64
(lp3005
g1380
asbasbasbag57
(g73
g59
NtRp3006
(dp3007
g62
(dp3008
sg71
g2666
sg64
(lp3009
g57
(g78
g59
NtRp3010
(dp3011
g62
(dp3012
g82
g83
ssg71
g3006
sg64
(lp3013
S'SCRIPT_NAME'
p3014
asbag57
(g78
g59
NtRp3015
(dp3016
g62
(dp3017
g89
g90
ssg71
g3006
sg64
(lp3018
S':'
asbag57
(g78
g59
NtRp3019
(dp3020
g62
(dp3021
sg71
g3006
sg64
(lp3022
g57
(g58
g59
NtRp3023
(dp3024
g62
(dp3025
g70
I3
ssg71
g3019
sg64
(lp3026
S''
asbasbasbag57
(g73
g59
NtRp3027
(dp3028
g62
(dp3029
sg71
g2666
sg64
(lp3030
g57
(g78
g59
NtRp3031
(dp3032
g62
(dp3033
g82
g83
ssg71
g3027
sg64
(lp3034
S'SERVER_NAME'
p3035
asbag57
(g78
g59
NtRp3036
(dp3037
g62
(dp3038
g89
g90
ssg71
g3027
sg64
(lp3039
S':'
asbag57
(g78
g59
NtRp3040
(dp3041
g62
(dp3042
sg71
g3027
sg64
(lp3043
g57
(g58
g59
NtRp3044
(dp3045
g62
(dp3046
g70
I3
ssg71
g3040
sg64
(lp3047
g1345
asbasbasbag57
(g73
g59
NtRp3048
(dp3049
g62
(dp3050
sg71
g2666
sg64
(lp3051
g57
(g78
g59
NtRp3052
(dp3053
g62
(dp3054
g82
g83
ssg71
g3048
sg64
(lp3055
S'SERVER_PORT'
p3056
asbag57
(g78
g59
NtRp3057
(dp3058
g62
(dp3059
g89
g90
ssg71
g3048
sg64
(lp3060
S':'
asbag57
(g78
g59
NtRp3061
(dp3062
g62
(dp3063
sg71
g3048
sg64
(lp3064
g57
(g58
g59
NtRp3065
(dp3066
g62
(dp3067
g70
I3
ssg71
g3061
sg64
(lp3068
g1551
asbasbasbag57
(g73
g59
NtRp3069
(dp3070
g62
(dp3071
sg71
g2666
sg64
(lp3072
g57
(g78
g59
NtRp3073
(dp3074
g62
(dp3075
g82
g83
ssg71
g3069
sg64
(lp3076
S'SERVER_PROTOCOL'
p3077
asbag57
(g78
g59
NtRp3078
(dp3079
g62
(dp3080
g89
g90
ssg71
g3069
sg64
(lp3081
S':'
asbag57
(g78
g59
NtRp3082
(dp3083
g62
(dp3084
sg71
g3069
sg64
(lp3085
g57
(g58
g59
NtRp3086
(dp3087
g62
(dp3088
g70
I3
ssg71
g3082
sg64
(lp3089
g1573
asbasbasbag57
(g73
g59
NtRp3090
(dp3091
g62
(dp3092
sg71
g2666
sg64
(lp3093
g57
(g78
g59
NtRp3094
(dp3095
g62
(dp3096
g82
g83
ssg71
g3090
sg64
(lp3097
S'SERVER_SOFTWARE'
p3098
asbag57
(g78
g59
NtRp3099
(dp3100
g62
(dp3101
g89
g90
ssg71
g3090
sg64
(lp3102
S':'
asbag57
(g78
g59
NtRp3103
(dp3104
g62
(dp3105
sg71
g3090
sg64
(lp3106
g57
(g58
g59
NtRp3107
(dp3108
g62
(dp3109
g70
I3
ssg71
g3103
sg64
(lp3110
g1595
asbasbasbag57
(g73
g59
NtRp3111
(dp3112
g62
(dp3113
sg71
g2666
sg64
(lp3114
g57
(g78
g59
NtRp3115
(dp3116
g62
(dp3117
g82
g83
ssg71
g3111
sg64
(lp3118
S'wsgi.errors'
p3119
asbag57
(g78
g59
NtRp3120
(dp3121
g62
(dp3122
g89
g90
ssg71
g3111
sg64
(lp3123
S':'
asbag57
(g78
g59
NtRp3124
(dp3125
g62
(dp3126
sg71
g3111
sg64
(lp3127
g57
(g58
g59
NtRp3128
(dp3129
g62
(dp3130
g70
I3
ssg71
g3124
sg64
(lp3131
S"<open file '<stderr>', mode 'w' at 0x7f811fe6f270>"
p3132
asbasbasbag57
(g73
g59
NtRp3133
(dp3134
g62
(dp3135
sg71
g2666
sg64
(lp3136
g57
(g78
g59
NtRp3137
(dp3138
g62
(dp3139
g82
g83
ssg71
g3133
sg64
(lp3140
S'wsgi.file_wrapper'
p3141
asbag57
(g78
g59
NtRp3142
(dp3143
g62
(dp3144
g89
g90
ssg71
g3133
sg64
(lp3145
S':'
asbag57
(g78
g59
NtRp3146
(dp3147
g62
(dp3148
sg71
g3133
sg64
(lp3149
g57
(g58
g59
NtRp3150
(dp3151
g62
(dp3152
g70
I3
ssg71
g3146
sg64
(lp3153
S'<class wsgiref.util.FileWrapper at 0x2cc6808>'
p3154
asbasbasbag57
(g73
g59
NtRp3155
(dp3156
g62
(dp3157
sg71
g2666
sg64
(lp3158
g57
(g78
g59
NtRp3159
(dp3160
g62
(dp3161
g82
g83
ssg71
g3155
sg64
(lp3162
S'wsgi.input'
p3163
asbag57
(g78
g59
NtRp3164
(dp3165
g62
(dp3166
g89
g90
ssg71
g3155
sg64
(lp3167
S':'
asbag57
(g78
g59
NtRp3168
(dp3169
g62
(dp3170
sg71
g3155
sg64
(lp3171
g57
(g58
g59
NtRp3172
(dp3173
g62
(dp3174
g70
I3
ssg71
g3168
sg64
(lp3175
S'<cStringIO.StringO object at 0x7f81043d0ab0>'
p3176
asbasbasbag57
(g73
g59
NtRp3177
(dp3178
g62
(dp3179
sg71
g2666
sg64
(lp3180
g57
(g78
g59
NtRp3181
(dp3182
g62
(dp3183
g82
g83
ssg71
g3177
sg64
(lp3184
S'wsgi.multiprocess'
p3185
asbag57
(g78
g59
NtRp3186
(dp3187
g62
(dp3188
g89
g90
ssg71
g3177
sg64
(lp3189
S':'
asbag57
(g78
g59
NtRp3190
(dp3191
g62
(dp3192
sg71
g3177
sg64
(lp3193
g57
(g58
g59
NtRp3194
(dp3195
g62
(dp3196
g70
I3
ssg71
g3190
sg64
(lp3197
g100
asbasbasbag57
(g73
g59
NtRp3198
(dp3199
g62
(dp3200
sg71
g2666
sg64
(lp3201
g57
(g78
g59
NtRp3202
(dp3203
g62
(dp3204
g82
g83
ssg71
g3198
sg64
(lp3205
S'wsgi.multithread'
p3206
asbag57
(g78
g59
NtRp3207
(dp3208
g62
(dp3209
g89
g90
ssg71
g3198
sg64
(lp3210
S':'
asbag57
(g78
g59
NtRp3211
(dp3212
g62
(dp3213
sg71
g3198
sg64
(lp3214
g57
(g58
g59
NtRp3215
(dp3216
g62
(dp3217
g70
I3
ssg71
g3211
sg64
(lp3218
g1812
asbasbasbag57
(g73
g59
NtRp3219
(dp3220
g62
(dp3221
sg71
g2666
sg64
(lp3222
g57
(g78
g59
NtRp3223
(dp3224
g62
(dp3225
g82
g83
ssg71
g3219
sg64
(lp3226
S'wsgi.run_once'
p3227
asbag57
(g78
g59
NtRp3228
(dp3229
g62
(dp3230
g89
g90
ssg71
g3219
sg64
(lp3231
S':'
asbag57
(g78
g59
NtRp3232
(dp3233
g62
(dp3234
sg71
g3219
sg64
(lp3235
g57
(g58
g59
NtRp3236
(dp3237
g62
(dp3238
g70
I3
ssg71
g3232
sg64
(lp3239
g100
asbasbasbag57
(g73
g59
NtRp3240
(dp3241
g62
(dp3242
sg71
g2666
sg64
(lp3243
g57
(g78
g59
NtRp3244
(dp3245
g62
(dp3246
g82
g83
ssg71
g3240
sg64
(lp3247
S'wsgi.url_scheme'
p3248
asbag57
(g78
g59
NtRp3249
(dp3250
g62
(dp3251
g89
g90
ssg71
g3240
sg64
(lp3252
S':'
asbag57
(g78
g59
NtRp3253
(dp3254
g62
(dp3255
sg71
g3240
sg64
(lp3256
g57
(g58
g59
NtRp3257
(dp3258
g62
(dp3259
g70
I3
ssg71
g3253
sg64
(lp3260
g1855
asbasbasbag57
(g73
g59
NtRp3261
(dp3262
g62
(dp3263
sg71
g2666
sg64
(lp3264
g57
(g78
g59
NtRp3265
(dp3266
g62
(dp3267
g82
g83
ssg71
g3261
sg64
(lp3268
S'wsgi.version'
p3269
asbag57
(g78
g59
NtRp3270
(dp3271
g62
(dp3272
g89
g90
ssg71
g3261
sg64
(lp3273
S':'
asbag57
(g78
g59
NtRp3274
(dp3275
g62
(dp3276
sg71
g3261
sg64
(lp3277
g57
(g58
g59
NtRp3278
(dp3279
g62
(dp3280
g70
I3
ssg71
g3274
sg64
(lp3281
S'1'
asbasbasbasbasbasbasbasbasbasbasbasbasbsS'frames'
p3282
(lp3283
(dp3284
S'file'
p3285
S'/home/wionel/Desktop/web2py/gluon/restricted.py'
p3286
sS'dump'
p3287
(dp3288
S'environment'
p3289
S"{'A': <class 'gluon.html.A'>, 'Auth': <class 'gluon.tools.Auth'>, 'B': <class 'gluon.html.B'>, 'BEAUTIFY': <class 'gluon.html.BEAUTIFY'>, 'BODY': <class 'gluon.html.BODY'>, 'BR': <class 'gluon.html.BR'>, 'BUTTON': <class 'gluon.html.BUTTON'>, 'CAT': <class 'gluon.html.CAT'>, 'CENTER': <class 'gluon.html.CENTER'>, 'CLEANUP': <class 'gluon.validators.CLEANUP'>, ...}"
p3290
sS'ccode'
p3291
S'<code object <module> at 0x7f81043b7db0, file "/...lications/music/controllers/default.py", line 13>'
p3292
ssS'lnum'
p3293
I212
sS'lines'
p3294
(dp3295
I207
S'    try:'
p3296
sI208
S'        if isinstance(code, types.CodeType):'
p3297
sI209
S'            ccode = code'
p3298
sI210
S'        else:'
p3299
sI211
S'            ccode = compile2(code, layer)'
p3300
sI212
S'        exec ccode in environment'
p3301
sI213
S'    except HTTP:'
p3302
sI214
S'        raise'
p3303
sI215
S'    except RestrictedError:'
p3304
sI216
S'        # do not encapsulate (obfuscate) the original RestrictedError'
p3305
ssS'call'
p3306
S"(code='# -*- coding: utf-8 -*-\\n# this file is released ...ud())\\n\\nresponse._vars=response._caller(playlist)\\n', environment={'A': <class 'gluon.html.A'>, 'Auth': <class 'gluon.tools.Auth'>, 'B': <class 'gluon.html.B'>, 'BEAUTIFY': <class 'gluon.html.BEAUTIFY'>, 'BODY': <class 'gluon.html.BODY'>, 'BR': <class 'gluon.html.BR'>, 'BUTTON': <class 'gluon.html.BUTTON'>, 'CAT': <class 'gluon.html.CAT'>, 'CENTER': <class 'gluon.html.CENTER'>, 'CLEANUP': <class 'gluon.validators.CLEANUP'>, ...}, layer='/home/wionel/Desktop/web2py/applications/music/controllers/default.py')"
p3307
sS'func'
p3308
S'restricted'
p3309
sa(dp3310
g3285
S'/home/wionel/Desktop/web2py/applications/music/controllers/default.py'
p3311
sg3287
(dp3312
sg3293
I127
sg3294
(dp3313
I116
S'    http://..../[app]/default/data/update/[table]/[id]'
p3314
sI117
S'    http://..../[app]/default/data/delete/[table]/[id]'
p3315
sI118
S'    http://..../[app]/default/data/select/[table]'
p3316
sI119
S'    http://..../[app]/default/data/search/[table]'
p3317
sI120
S'    but URLs must be signed, i.e. linked with'
p3318
sI121
S"      A('table',_href=URL('data/tables',user_signature=True))"
p3319
sI122
S'    or with the signed load operator'
p3320
sI123
S"      LOAD('default','data.load',args='tables',ajax=True,user_signature=True)"
p3321
sI124
S'    """'
p3322
sI125
S'    return dict(form=crud())'
p3323
ssg3306
S'()'
p3324
sg3308
S'<module>'
p3325
sa(dp3326
g3285
S'/home/wionel/Desktop/web2py/gluon/globals.py'
p3327
sg3287
(dp3328
S'self'
p3329
S'undefined'
p3330
sS'f'
S'<function playlist>'
p3331
ssg3293
I188
sg3294
(dp3332
I192
S''
sI183
S'        self.menu = []             # used by the default view layout'
p3333
sI184
S'        self.files = []            # used by web2py_ajax.html'
p3334
sI185
S'        self.generic_patterns = []  # patterns to allow generic views'
p3335
sI186
S"        self.delimiters = ('{{', '}}')"
p3336
sI187
S'        self._vars = None'
p3337
sI188
S'        self._caller = lambda f: f()'
p3338
sI189
S'        self._view_environment = None'
p3339
sI190
S'        self._custom_commit = None'
p3340
sI191
S'        self._custom_rollback = None'
p3341
ssg3306
S'(f=<function playlist>)'
p3342
sg3308
S'<lambda>'
p3343
sa(dp3344
g3285
S'/home/wionel/Desktop/web2py/applications/music/controllers/default.py'
p3345
sg3287
(dp3346
S'title'
p3347
g3330
sS'p_songs'
p3348
S'<Rows (8)>'
p3349
sS'isloggedin'
p3350
g3330
sS'message'
p3351
S"<lazyT 'Wel-Come To IIIT Music Store !!'>"
p3352
sS'builtindict'
p3353
S"<type 'dict'>"
p3354
sS'songs'
p3355
g3330
ssg3293
I54
sg3294
(dp3356
I49
S'        id = auth.user_id'
p3357
sI50
S'        row=db(db.playlist.user_id==id).select().first()'
p3358
sI51
S''
sI52
S'        if (str(row)!="None"):'
p3359
sI53
S'            p_songs = db(db.song).select()'
p3360
sI54
S'            return dict(title="Edit Playlist",message=message,isloggedin=\'true\',songs=songs,p_songs=p_songs)'
p3361
sI55
S'        pass'
p3362
sI56
S''
sI57
S'    else:'
p3363
sI58
S"       return dict(message=message,isloggedin='true',songs=db(db.song).select())"
p3364
ssg3306
S'()'
p3365
sg3308
S'playlist'
p3366
sasS'pyver'
p3367
S'Python 2.7.3: /usr/bin/python'
p3368
sS'session'
p3369
g57
(g58
g59
NtRp3370
(dp3371
g62
(dp3372
sg64
(lp3373
g57
(g66
g59
NtRp3374
(dp3375
g62
(dp3376
g70
I5
ssg71
Nsg64
(lp3377
g57
(g73
g59
NtRp3378
(dp3379
g62
(dp3380
sg71
g3374
sg64
(lp3381
g57
(g78
g59
NtRp3382
(dp3383
g62
(dp3384
g82
g83
ssg71
g3378
sg64
(lp3385
S'auth'
p3386
asbag57
(g78
g59
NtRp3387
(dp3388
g62
(dp3389
g89
g90
ssg71
g3378
sg64
(lp3390
S':'
asbag57
(g78
g59
NtRp3391
(dp3392
g62
(dp3393
sg71
g3378
sg64
(lp3394
g57
(g58
g59
NtRp3395
(dp3396
g62
(dp3397
g70
I5
ssg71
g3391
sg64
(lp3398
g57
(g66
g59
NtRp3399
(dp3400
g62
(dp3401
g70
I4
ssg71
Nsg64
(lp3402
g57
(g73
g59
NtRp3403
(dp3404
g62
(dp3405
sg71
g3399
sg64
(lp3406
g57
(g78
g59
NtRp3407
(dp3408
g62
(dp3409
g82
g83
ssg71
g3403
sg64
(lp3410
S'expiration'
p3411
asbag57
(g78
g59
NtRp3412
(dp3413
g62
(dp3414
g89
g90
ssg71
g3403
sg64
(lp3415
S':'
asbag57
(g78
g59
NtRp3416
(dp3417
g62
(dp3418
sg71
g3403
sg64
(lp3419
g57
(g58
g59
NtRp3420
(dp3421
g62
(dp3422
g70
I4
ssg71
g3416
sg64
(lp3423
S'3600'
p3424
asbasbasbag57
(g73
g59
NtRp3425
(dp3426
g62
(dp3427
sg71
g3399
sg64
(lp3428
g57
(g78
g59
NtRp3429
(dp3430
g62
(dp3431
g82
g83
ssg71
g3425
sg64
(lp3432
S'hmac_key'
p3433
asbag57
(g78
g59
NtRp3434
(dp3435
g62
(dp3436
g89
g90
ssg71
g3425
sg64
(lp3437
S':'
asbag57
(g78
g59
NtRp3438
(dp3439
g62
(dp3440
sg71
g3425
sg64
(lp3441
g57
(g58
g59
NtRp3442
(dp3443
g62
(dp3444
g70
I4
ssg71
g3438
sg64
(lp3445
S'4fcf70db-cbe2-4387-acf8-75185f0c2a4a'
p3446
asbasbasbag57
(g73
g59
NtRp3447
(dp3448
g62
(dp3449
sg71
g3399
sg64
(lp3450
g57
(g78
g59
NtRp3451
(dp3452
g62
(dp3453
g82
g83
ssg71
g3447
sg64
(lp3454
S'last_visit'
p3455
asbag57
(g78
g59
NtRp3456
(dp3457
g62
(dp3458
g89
g90
ssg71
g3447
sg64
(lp3459
S':'
asbag57
(g78
g59
NtRp3460
(dp3461
g62
(dp3462
sg71
g3447
sg64
(lp3463
g57
(g58
g59
NtRp3464
(dp3465
g62
(dp3466
g70
I4
ssg71
g3460
sg64
(lp3467
S'datetime.datetime(2012, 11, 14, 20, 13, 59, 388434)'
p3468
asbasbasbag57
(g73
g59
NtRp3469
(dp3470
g62
(dp3471
sg71
g3399
sg64
(lp3472
g57
(g78
g59
NtRp3473
(dp3474
g62
(dp3475
g82
g83
ssg71
g3469
sg64
(lp3476
S'remember'
p3477
asbag57
(g78
g59
NtRp3478
(dp3479
g62
(dp3480
g89
g90
ssg71
g3469
sg64
(lp3481
S':'
asbag57
(g78
g59
NtRp3482
(dp3483
g62
(dp3484
sg71
g3469
sg64
(lp3485
g57
(g58
g59
NtRp3486
(dp3487
g62
(dp3488
g70
I4
ssg71
g3482
sg64
(lp3489
g100
asbasbasbag57
(g73
g59
NtRp3490
(dp3491
g62
(dp3492
sg71
g3399
sg64
(lp3493
g57
(g78
g59
NtRp3494
(dp3495
g62
(dp3496
g82
g83
ssg71
g3490
sg64
(lp3497
S'user'
p3498
asbag57
(g78
g59
NtRp3499
(dp3500
g62
(dp3501
g89
g90
ssg71
g3490
sg64
(lp3502
S':'
asbag57
(g78
g59
NtRp3503
(dp3504
g62
(dp3505
sg71
g3490
sg64
(lp3506
g57
(g58
g59
NtRp3507
(dp3508
g62
(dp3509
g70
I4
ssg71
g3503
sg64
(lp3510
g57
(g66
g59
NtRp3511
(dp3512
g62
(dp3513
g70
I3
ssg71
Nsg64
(lp3514
g57
(g73
g59
NtRp3515
(dp3516
g62
(dp3517
sg71
g3511
sg64
(lp3518
g57
(g78
g59
NtRp3519
(dp3520
g62
(dp3521
g82
g83
ssg71
g3515
sg64
(lp3522
S'email'
p3523
asbag57
(g78
g59
NtRp3524
(dp3525
g62
(dp3526
g89
g90
ssg71
g3515
sg64
(lp3527
S':'
asbag57
(g78
g59
NtRp3528
(dp3529
g62
(dp3530
sg71
g3515
sg64
(lp3531
g57
(g58
g59
NtRp3532
(dp3533
g62
(dp3534
g70
I3
ssg71
g3528
sg64
(lp3535
S'shhrohan19@gmail.com'
p3536
asbasbasbag57
(g73
g59
NtRp3537
(dp3538
g62
(dp3539
sg71
g3511
sg64
(lp3540
g57
(g78
g59
NtRp3541
(dp3542
g62
(dp3543
g82
g83
ssg71
g3537
sg64
(lp3544
S'first_name'
p3545
asbag57
(g78
g59
NtRp3546
(dp3547
g62
(dp3548
g89
g90
ssg71
g3537
sg64
(lp3549
S':'
asbag57
(g78
g59
NtRp3550
(dp3551
g62
(dp3552
sg71
g3537
sg64
(lp3553
g57
(g58
g59
NtRp3554
(dp3555
g62
(dp3556
g70
I3
ssg71
g3550
sg64
(lp3557
S'Rohan'
p3558
asbasbasbag57
(g73
g59
NtRp3559
(dp3560
g62
(dp3561
sg71
g3511
sg64
(lp3562
g57
(g78
g59
NtRp3563
(dp3564
g62
(dp3565
g82
g83
ssg71
g3559
sg64
(lp3566
S'id'
p3567
asbag57
(g78
g59
NtRp3568
(dp3569
g62
(dp3570
g89
g90
ssg71
g3559
sg64
(lp3571
S':'
asbag57
(g78
g59
NtRp3572
(dp3573
g62
(dp3574
sg71
g3559
sg64
(lp3575
g57
(g58
g59
NtRp3576
(dp3577
g62
(dp3578
g70
I3
ssg71
g3572
sg64
(lp3579
S'1'
asbasbasbag57
(g73
g59
NtRp3580
(dp3581
g62
(dp3582
sg71
g3511
sg64
(lp3583
g57
(g78
g59
NtRp3584
(dp3585
g62
(dp3586
g82
g83
ssg71
g3580
sg64
(lp3587
S'last_name'
p3588
asbag57
(g78
g59
NtRp3589
(dp3590
g62
(dp3591
g89
g90
ssg71
g3580
sg64
(lp3592
S':'
asbag57
(g78
g59
NtRp3593
(dp3594
g62
(dp3595
sg71
g3580
sg64
(lp3596
g57
(g58
g59
NtRp3597
(dp3598
g62
(dp3599
g70
I3
ssg71
g3593
sg64
(lp3600
S'Shah'
p3601
asbasbasbag57
(g73
g59
NtRp3602
(dp3603
g62
(dp3604
sg71
g3511
sg64
(lp3605
g57
(g78
g59
NtRp3606
(dp3607
g62
(dp3608
g82
g83
ssg71
g3602
sg64
(lp3609
S'registration_id'
p3610
asbag57
(g78
g59
NtRp3611
(dp3612
g62
(dp3613
g89
g90
ssg71
g3602
sg64
(lp3614
S':'
asbag57
(g78
g59
NtRp3615
(dp3616
g62
(dp3617
sg71
g3602
sg64
(lp3618
g57
(g58
g59
NtRp3619
(dp3620
g62
(dp3621
g70
I3
ssg71
g3615
sg64
(lp3622
S''
asbasbasbag57
(g73
g59
NtRp3623
(dp3624
g62
(dp3625
sg71
g3511
sg64
(lp3626
g57
(g78
g59
NtRp3627
(dp3628
g62
(dp3629
g82
g83
ssg71
g3623
sg64
(lp3630
S'registration_key'
p3631
asbag57
(g78
g59
NtRp3632
(dp3633
g62
(dp3634
g89
g90
ssg71
g3623
sg64
(lp3635
S':'
asbag57
(g78
g59
NtRp3636
(dp3637
g62
(dp3638
sg71
g3623
sg64
(lp3639
g57
(g58
g59
NtRp3640
(dp3641
g62
(dp3642
g70
I3
ssg71
g3636
sg64
(lp3643
S''
asbasbasbag57
(g73
g59
NtRp3644
(dp3645
g62
(dp3646
sg71
g3511
sg64
(lp3647
g57
(g78
g59
NtRp3648
(dp3649
g62
(dp3650
g82
g83
ssg71
g3644
sg64
(lp3651
S'reset_password_key'
p3652
asbag57
(g78
g59
NtRp3653
(dp3654
g62
(dp3655
g89
g90
ssg71
g3644
sg64
(lp3656
S':'
asbag57
(g78
g59
NtRp3657
(dp3658
g62
(dp3659
sg71
g3644
sg64
(lp3660
g57
(g58
g59
NtRp3661
(dp3662
g62
(dp3663
g70
I3
ssg71
g3657
sg64
(lp3664
S''
asbasbasbasbasbasbasbag57
(g73
g59
NtRp3665
(dp3666
g62
(dp3667
sg71
g3399
sg64
(lp3668
g57
(g78
g59
NtRp3669
(dp3670
g62
(dp3671
g82
g83
ssg71
g3665
sg64
(lp3672
S'user_groups'
p3673
asbag57
(g78
g59
NtRp3674
(dp3675
g62
(dp3676
g89
g90
ssg71
g3665
sg64
(lp3677
S':'
asbag57
(g78
g59
NtRp3678
(dp3679
g62
(dp3680
sg71
g3665
sg64
(lp3681
g57
(g58
g59
NtRp3682
(dp3683
g62
(dp3684
g70
I4
ssg71
g3678
sg64
(lp3685
g57
(g66
g59
NtRp3686
(dp3687
g62
(dp3688
g70
I3
ssg71
Nsg64
(lp3689
g57
(g73
g59
NtRp3690
(dp3691
g62
(dp3692
sg71
g3686
sg64
(lp3693
g57
(g78
g59
NtRp3694
(dp3695
g62
(dp3696
g82
g83
ssg71
g3690
sg64
(lp3697
S'1'
asbag57
(g78
g59
NtRp3698
(dp3699
g62
(dp3700
g89
g90
ssg71
g3690
sg64
(lp3701
S':'
asbag57
(g78
g59
NtRp3702
(dp3703
g62
(dp3704
sg71
g3690
sg64
(lp3705
g57
(g58
g59
NtRp3706
(dp3707
g62
(dp3708
g70
I3
ssg71
g3702
sg64
(lp3709
S'user_1'
p3710
asbasbasbasbasbasbasbasbasbasbasbag57
(g73
g59
NtRp3711
(dp3712
g62
(dp3713
sg71
g3374
sg64
(lp3714
g57
(g78
g59
NtRp3715
(dp3716
g62
(dp3717
g82
g83
ssg71
g3711
sg64
(lp3718
S'flash'
p3719
asbag57
(g78
g59
NtRp3720
(dp3721
g62
(dp3722
g89
g90
ssg71
g3711
sg64
(lp3723
S':'
asbag57
(g78
g59
NtRp3724
(dp3725
g62
(dp3726
sg71
g3711
sg64
(lp3727
g57
(g58
g59
NtRp3728
(dp3729
g62
(dp3730
g70
I5
ssg71
g3724
sg64
(lp3731
S'None'
p3732
asbasbasbasbasbsS'etype'
p3733
S"<type 'exceptions.NameError'>"
p3734
sS'date'
p3735
S'Wed Nov 14 20:13:59 2012'
p3736
sS'response'
p3737
g57
(g58
g59
NtRp3738
(dp3739
g62
(dp3740
sg64
(lp3741
g57
(g66
g59
NtRp3742
(dp3743
g62
(dp3744
g70
I5
ssg71
Nsg64
(lp3745
g57
(g73
g59
NtRp3746
(dp3747
g62
(dp3748
sg71
g3742
sg64
(lp3749
g57
(g78
g59
NtRp3750
(dp3751
g62
(dp3752
g82
g83
ssg71
g3746
sg64
(lp3753
g155
asbag57
(g78
g59
NtRp3754
(dp3755
g62
(dp3756
g89
g90
ssg71
g3746
sg64
(lp3757
S':'
asbag57
(g78
g59
NtRp3758
(dp3759
g62
(dp3760
sg71
g3746
sg64
(lp3761
g57
(g58
g59
NtRp3762
(dp3763
g62
(dp3764
g70
I5
ssg71
g3758
sg64
(lp3765
S'<cStringIO.StringO object at 0x7f81041ae8b8>'
p3766
asbasbasbag57
(g73
g59
NtRp3767
(dp3768
g62
(dp3769
sg71
g3742
sg64
(lp3770
g57
(g78
g59
NtRp3771
(dp3772
g62
(dp3773
g82
g83
ssg71
g3767
sg64
(lp3774
g243
asbag57
(g78
g59
NtRp3775
(dp3776
g62
(dp3777
g89
g90
ssg71
g3767
sg64
(lp3778
S':'
asbag57
(g78
g59
NtRp3779
(dp3780
g62
(dp3781
sg71
g3767
sg64
(lp3782
g57
(g58
g59
NtRp3783
(dp3784
g62
(dp3785
g70
I5
ssg71
g3779
sg64
(lp3786
g57
(g66
g59
NtRp3787
(dp3788
g62
(dp3789
g70
I4
ssg71
Nsg64
(lp3790
g57
(g73
g59
NtRp3791
(dp3792
g62
(dp3793
sg71
g3787
sg64
(lp3794
g57
(g78
g59
NtRp3795
(dp3796
g62
(dp3797
g82
g83
ssg71
g3791
sg64
(lp3798
S'session_id_music'
p3799
asbag57
(g78
g59
NtRp3800
(dp3801
g62
(dp3802
g89
g90
ssg71
g3791
sg64
(lp3803
S':'
asbag57
(g78
g59
NtRp3804
(dp3805
g62
(dp3806
sg71
g3791
sg64
(lp3807
g57
(g58
g59
NtRp3808
(dp3809
g62
(dp3810
g70
I4
ssg71
g3804
sg64
(lp3811
g475
ag57
(g66
g59
NtRp3812
(dp3813
g62
(dp3814
g70
I3
ssg71
Nsg64
(lp3815
g57
(g73
g59
NtRp3816
(dp3817
g62
(dp3818
sg71
g3812
sg64
(lp3819
g57
(g78
g59
NtRp3820
(dp3821
g62
(dp3822
g82
g83
ssg71
g3816
sg64
(lp3823
g294
asbag57
(g78
g59
NtRp3824
(dp3825
g62
(dp3826
g89
g90
ssg71
g3816
sg64
(lp3827
S':'
asbag57
(g78
g59
NtRp3828
(dp3829
g62
(dp3830
sg71
g3816
sg64
(lp3831
g57
(g58
g59
NtRp3832
(dp3833
g62
(dp3834
g70
I3
ssg71
g3828
sg64
(lp3835
S''
asbasbasbag57
(g73
g59
NtRp3836
(dp3837
g62
(dp3838
sg71
g3812
sg64
(lp3839
g57
(g78
g59
NtRp3840
(dp3841
g62
(dp3842
g82
g83
ssg71
g3836
sg64
(lp3843
g315
asbag57
(g78
g59
NtRp3844
(dp3845
g62
(dp3846
g89
g90
ssg71
g3836
sg64
(lp3847
S':'
asbag57
(g78
g59
NtRp3848
(dp3849
g62
(dp3850
sg71
g3836
sg64
(lp3851
g57
(g58
g59
NtRp3852
(dp3853
g62
(dp3854
g70
I3
ssg71
g3848
sg64
(lp3855
S''
asbasbasbag57
(g73
g59
NtRp3856
(dp3857
g62
(dp3858
sg71
g3812
sg64
(lp3859
g57
(g78
g59
NtRp3860
(dp3861
g62
(dp3862
g82
g83
ssg71
g3856
sg64
(lp3863
g336
asbag57
(g78
g59
NtRp3864
(dp3865
g62
(dp3866
g89
g90
ssg71
g3856
sg64
(lp3867
S':'
asbag57
(g78
g59
NtRp3868
(dp3869
g62
(dp3870
sg71
g3856
sg64
(lp3871
g57
(g58
g59
NtRp3872
(dp3873
g62
(dp3874
g70
I3
ssg71
g3868
sg64
(lp3875
S''
asbasbasbag57
(g73
g59
NtRp3876
(dp3877
g62
(dp3878
sg71
g3812
sg64
(lp3879
g57
(g78
g59
NtRp3880
(dp3881
g62
(dp3882
g82
g83
ssg71
g3876
sg64
(lp3883
g357
asbag57
(g78
g59
NtRp3884
(dp3885
g62
(dp3886
g89
g90
ssg71
g3876
sg64
(lp3887
S':'
asbag57
(g78
g59
NtRp3888
(dp3889
g62
(dp3890
sg71
g3876
sg64
(lp3891
g57
(g58
g59
NtRp3892
(dp3893
g62
(dp3894
g70
I3
ssg71
g3888
sg64
(lp3895
S''
asbasbasbag57
(g73
g59
NtRp3896
(dp3897
g62
(dp3898
sg71
g3812
sg64
(lp3899
g57
(g78
g59
NtRp3900
(dp3901
g62
(dp3902
g82
g83
ssg71
g3896
sg64
(lp3903
g378
asbag57
(g78
g59
NtRp3904
(dp3905
g62
(dp3906
g89
g90
ssg71
g3896
sg64
(lp3907
S':'
asbag57
(g78
g59
NtRp3908
(dp3909
g62
(dp3910
sg71
g3896
sg64
(lp3911
g57
(g58
g59
NtRp3912
(dp3913
g62
(dp3914
g70
I3
ssg71
g3908
sg64
(lp3915
S''
asbasbasbag57
(g73
g59
NtRp3916
(dp3917
g62
(dp3918
sg71
g3812
sg64
(lp3919
g57
(g78
g59
NtRp3920
(dp3921
g62
(dp3922
g82
g83
ssg71
g3916
sg64
(lp3923
g399
asbag57
(g78
g59
NtRp3924
(dp3925
g62
(dp3926
g89
g90
ssg71
g3916
sg64
(lp3927
S':'
asbag57
(g78
g59
NtRp3928
(dp3929
g62
(dp3930
sg71
g3916
sg64
(lp3931
g57
(g58
g59
NtRp3932
(dp3933
g62
(dp3934
g70
I3
ssg71
g3928
sg64
(lp3935
S'/'
asbasbasbag57
(g73
g59
NtRp3936
(dp3937
g62
(dp3938
sg71
g3812
sg64
(lp3939
g57
(g78
g59
NtRp3940
(dp3941
g62
(dp3942
g82
g83
ssg71
g3936
sg64
(lp3943
g420
asbag57
(g78
g59
NtRp3944
(dp3945
g62
(dp3946
g89
g90
ssg71
g3936
sg64
(lp3947
S':'
asbag57
(g78
g59
NtRp3948
(dp3949
g62
(dp3950
sg71
g3936
sg64
(lp3951
g57
(g58
g59
NtRp3952
(dp3953
g62
(dp3954
g70
I3
ssg71
g3948
sg64
(lp3955
S''
asbasbasbag57
(g73
g59
NtRp3956
(dp3957
g62
(dp3958
sg71
g3812
sg64
(lp3959
g57
(g78
g59
NtRp3960
(dp3961
g62
(dp3962
g82
g83
ssg71
g3956
sg64
(lp3963
g441
asbag57
(g78
g59
NtRp3964
(dp3965
g62
(dp3966
g89
g90
ssg71
g3956
sg64
(lp3967
S':'
asbag57
(g78
g59
NtRp3968
(dp3969
g62
(dp3970
sg71
g3956
sg64
(lp3971
g57
(g58
g59
NtRp3972
(dp3973
g62
(dp3974
g70
I3
ssg71
g3968
sg64
(lp3975
S''
asbasbasbasbasbasbasbasbasbasbasbag57
(g73
g59
NtRp3976
(dp3977
g62
(dp3978
sg71
g3742
sg64
(lp3979
g57
(g78
g59
NtRp3980
(dp3981
g62
(dp3982
g82
g83
ssg71
g3976
sg64
(lp3983
S'delimiters'
p3984
asbag57
(g78
g59
NtRp3985
(dp3986
g62
(dp3987
g89
g90
ssg71
g3976
sg64
(lp3988
S':'
asbag57
(g78
g59
NtRp3989
(dp3990
g62
(dp3991
sg71
g3976
sg64
(lp3992
g57
(g58
g59
NtRp3993
(dp3994
g62
(dp3995
g70
I5
ssg71
g3989
sg64
(lp3996
g57
(g66
g59
NtRp3997
(dp3998
g62
(dp3999
g70
I4
ssg71
Nsg64
(lp4000
g57
(g73
g59
NtRp4001
(dp4002
g62
(dp4003
sg71
g3997
sg64
(lp4004
g57
(g78
g59
NtRp4005
(dp4006
g62
(dp4007
sg71
g4001
sg64
(lp4008
g57
(g58
g59
NtRp4009
(dp4010
g62
(dp4011
g70
I4
ssg71
g4005
sg64
(lp4012
S'{{'
p4013
asbasbasbag57
(g73
g59
NtRp4014
(dp4015
g62
(dp4016
sg71
g3997
sg64
(lp4017
g57
(g78
g59
NtRp4018
(dp4019
g62
(dp4020
sg71
g4014
sg64
(lp4021
g57
(g58
g59
NtRp4022
(dp4023
g62
(dp4024
g70
I4
ssg71
g4018
sg64
(lp4025
S'}}'
p4026
asbasbasbasbasbasbasbag57
(g73
g59
NtRp4027
(dp4028
g62
(dp4029
sg71
g3742
sg64
(lp4030
g57
(g78
g59
NtRp4031
(dp4032
g62
(dp4033
g82
g83
ssg71
g4027
sg64
(lp4034
S'files'
p4035
asbag57
(g78
g59
NtRp4036
(dp4037
g62
(dp4038
g89
g90
ssg71
g4027
sg64
(lp4039
S':'
asbag57
(g78
g59
NtRp4040
(dp4041
g62
(dp4042
sg71
g4027
sg64
(lp4043
g57
(g58
g59
NtRp4044
(dp4045
g62
(dp4046
g70
I5
ssg71
g4040
sg64
(lp4047
g57
(g66
g59
NtRp4048
(dp4049
g62
(dp4050
g70
I4
ssg71
Nsg64
(lp4051
sbasbasbasbag57
(g73
g59
NtRp4052
(dp4053
g62
(dp4054
sg71
g3742
sg64
(lp4055
g57
(g78
g59
NtRp4056
(dp4057
g62
(dp4058
g82
g83
ssg71
g4052
sg64
(lp4059
S'flash'
p4060
asbag57
(g78
g59
NtRp4061
(dp4062
g62
(dp4063
g89
g90
ssg71
g4052
sg64
(lp4064
S':'
asbag57
(g78
g59
NtRp4065
(dp4066
g62
(dp4067
sg71
g4052
sg64
(lp4068
g57
(g58
g59
NtRp4069
(dp4070
g62
(dp4071
g70
I5
ssg71
g4065
sg64
(lp4072
S''
asbasbasbag57
(g73
g59
NtRp4073
(dp4074
g62
(dp4075
sg71
g3742
sg64
(lp4076
g57
(g78
g59
NtRp4077
(dp4078
g62
(dp4079
g82
g83
ssg71
g4073
sg64
(lp4080
S'generic_patterns'
p4081
asbag57
(g78
g59
NtRp4082
(dp4083
g62
(dp4084
g89
g90
ssg71
g4073
sg64
(lp4085
S':'
asbag57
(g78
g59
NtRp4086
(dp4087
g62
(dp4088
sg71
g4073
sg64
(lp4089
g57
(g58
g59
NtRp4090
(dp4091
g62
(dp4092
g70
I5
ssg71
g4086
sg64
(lp4093
g57
(g66
g59
NtRp4094
(dp4095
g62
(dp4096
g70
I4
ssg71
Nsg64
(lp4097
g57
(g73
g59
NtRp4098
(dp4099
g62
(dp4100
sg71
g4094
sg64
(lp4101
g57
(g78
g59
NtRp4102
(dp4103
g62
(dp4104
sg71
g4098
sg64
(lp4105
g57
(g58
g59
NtRp4106
(dp4107
g62
(dp4108
g70
I4
ssg71
g4102
sg64
(lp4109
S'*'
asbasbasbasbasbasbasbag57
(g73
g59
NtRp4110
(dp4111
g62
(dp4112
sg71
g3742
sg64
(lp4113
g57
(g78
g59
NtRp4114
(dp4115
g62
(dp4116
g82
g83
ssg71
g4110
sg64
(lp4117
S'google_analytics_id'
p4118
asbag57
(g78
g59
NtRp4119
(dp4120
g62
(dp4121
g89
g90
ssg71
g4110
sg64
(lp4122
S':'
asbag57
(g78
g59
NtRp4123
(dp4124
g62
(dp4125
sg71
g4110
sg64
(lp4126
g57
(g58
g59
NtRp4127
(dp4128
g62
(dp4129
g70
I5
ssg71
g4123
sg64
(lp4130
S'None'
p4131
asbasbasbag57
(g73
g59
NtRp4132
(dp4133
g62
(dp4134
sg71
g3742
sg64
(lp4135
g57
(g78
g59
NtRp4136
(dp4137
g62
(dp4138
g82
g83
ssg71
g4132
sg64
(lp4139
S'headers'
p4140
asbag57
(g78
g59
NtRp4141
(dp4142
g62
(dp4143
g89
g90
ssg71
g4132
sg64
(lp4144
S':'
asbag57
(g78
g59
NtRp4145
(dp4146
g62
(dp4147
sg71
g4132
sg64
(lp4148
g57
(g58
g59
NtRp4149
(dp4150
g62
(dp4151
g70
I5
ssg71
g4145
sg64
(lp4152
g57
(g66
g59
NtRp4153
(dp4154
g62
(dp4155
g70
I4
ssg71
Nsg64
(lp4156
g57
(g73
g59
NtRp4157
(dp4158
g62
(dp4159
sg71
g4153
sg64
(lp4160
g57
(g78
g59
NtRp4161
(dp4162
g62
(dp4163
g82
g83
ssg71
g4157
sg64
(lp4164
S'X-Powered-By'
p4165
asbag57
(g78
g59
NtRp4166
(dp4167
g62
(dp4168
g89
g90
ssg71
g4157
sg64
(lp4169
S':'
asbag57
(g78
g59
NtRp4170
(dp4171
g62
(dp4172
sg71
g4157
sg64
(lp4173
g57
(g58
g59
NtRp4174
(dp4175
g62
(dp4176
g70
I4
ssg71
g4170
sg64
(lp4177
S'web2py'
p4178
asbasbasbasbasbasbasbag57
(g73
g59
NtRp4179
(dp4180
g62
(dp4181
sg71
g3742
sg64
(lp4182
g57
(g78
g59
NtRp4183
(dp4184
g62
(dp4185
g82
g83
ssg71
g4179
sg64
(lp4186
S'menu'
p4187
asbag57
(g78
g59
NtRp4188
(dp4189
g62
(dp4190
g89
g90
ssg71
g4179
sg64
(lp4191
S':'
asbag57
(g78
g59
NtRp4192
(dp4193
g62
(dp4194
sg71
g4179
sg64
(lp4195
g57
(g58
g59
NtRp4196
(dp4197
g62
(dp4198
g70
I5
ssg71
g4192
sg64
(lp4199
g57
(g66
g59
NtRp4200
(dp4201
g62
(dp4202
g70
I4
ssg71
Nsg64
(lp4203
g57
(g73
g59
NtRp4204
(dp4205
g62
(dp4206
sg71
g4200
sg64
(lp4207
g57
(g78
g59
NtRp4208
(dp4209
g62
(dp4210
sg71
g4204
sg64
(lp4211
g57
(g58
g59
NtRp4212
(dp4213
g62
(dp4214
g70
I4
ssg71
g4208
sg64
(lp4215
g57
(g66
g59
NtRp4216
(dp4217
g62
(dp4218
g70
I3
ssg71
Nsg64
(lp4219
g57
(g73
g59
NtRp4220
(dp4221
g62
(dp4222
sg71
g4216
sg64
(lp4223
g57
(g78
g59
NtRp4224
(dp4225
g62
(dp4226
sg71
g4220
sg64
(lp4227
g57
(g58
g59
NtRp4228
(dp4229
g62
(dp4230
g70
I3
ssg71
g4224
sg64
(lp4231
cgluon.languages
lazyT_unpickle
p4232
(S's\x04\x00\x00\x00Home'
tRp4233
asbasbasbag57
(g73
g59
NtRp4234
(dp4235
g62
(dp4236
sg71
g4216
sg64
(lp4237
g57
(g78
g59
NtRp4238
(dp4239
g62
(dp4240
sg71
g4234
sg64
(lp4241
g57
(g58
g59
NtRp4242
(dp4243
g62
(dp4244
g70
I3
ssg71
g4238
sg64
(lp4245
g100
asbasbasbag57
(g73
g59
NtRp4246
(dp4247
g62
(dp4248
sg71
g4216
sg64
(lp4249
g57
(g78
g59
NtRp4250
(dp4251
g62
(dp4252
sg71
g4246
sg64
(lp4253
g57
(g58
g59
NtRp4254
(dp4255
g62
(dp4256
g70
I3
ssg71
g4250
sg64
(lp4257
S'/music/default/index'
p4258
asbasbasbag57
(g73
g59
NtRp4259
(dp4260
g62
(dp4261
sg71
g4216
sg64
(lp4262
g57
(g78
g59
NtRp4263
(dp4264
g62
(dp4265
sg71
g4259
sg64
(lp4266
g57
(g58
g59
NtRp4267
(dp4268
g62
(dp4269
g70
I3
ssg71
g4263
sg64
(lp4270
g57
(g66
g59
NtRp4271
(dp4272
g62
(dp4273
g70
I2
ssg71
Nsg64
(lp4274
sbasbasbasbasbasbasbasbag57
(g73
g59
NtRp4275
(dp4276
g62
(dp4277
sg71
g4200
sg64
(lp4278
g57
(g78
g59
NtRp4279
(dp4280
g62
(dp4281
sg71
g4275
sg64
(lp4282
g57
(g58
g59
NtRp4283
(dp4284
g62
(dp4285
g70
I4
ssg71
g4279
sg64
(lp4286
g57
(g66
g59
NtRp4287
(dp4288
g62
(dp4289
g70
I3
ssg71
Nsg64
(lp4290
g57
(g73
g59
NtRp4291
(dp4292
g62
(dp4293
sg71
g4287
sg64
(lp4294
g57
(g78
g59
NtRp4295
(dp4296
g62
(dp4297
sg71
g4291
sg64
(lp4298
g57
(g58
g59
NtRp4299
(dp4300
g62
(dp4301
g70
I3
ssg71
g4295
sg64
(lp4302
g57
(cgluon.html
SPAN
p4303
g59
NtRp4304
(dp4305
g62
(dp4306
S'_class'
p4307
S'highlighted'
p4308
ssg71
Nsg64
(lp4309
g4178
asbasbasbasbag57
(g73
g59
NtRp4310
(dp4311
g62
(dp4312
sg71
g4287
sg64
(lp4313
g57
(g78
g59
NtRp4314
(dp4315
g62
(dp4316
sg71
g4310
sg64
(lp4317
g57
(g58
g59
NtRp4318
(dp4319
g62
(dp4320
g70
I3
ssg71
g4314
sg64
(lp4321
g100
asbasbasbag57
(g73
g59
NtRp4322
(dp4323
g62
(dp4324
sg71
g4287
sg64
(lp4325
g57
(g78
g59
NtRp4326
(dp4327
g62
(dp4328
sg71
g4322
sg64
(lp4329
g57
(g58
g59
NtRp4330
(dp4331
g62
(dp4332
g70
I3
ssg71
g4326
sg64
(lp4333
S'http://web2py.com'
p4334
asbasbasbag57
(g73
g59
NtRp4335
(dp4336
g62
(dp4337
sg71
g4287
sg64
(lp4338
g57
(g78
g59
NtRp4339
(dp4340
g62
(dp4341
sg71
g4335
sg64
(lp4342
g57
(g58
g59
NtRp4343
(dp4344
g62
(dp4345
g70
I3
ssg71
g4339
sg64
(lp4346
g57
(g66
g59
NtRp4347
(dp4348
g62
(dp4349
g70
I2
ssg71
Nsg64
(lp4350
g57
(g73
g59
NtRp4351
(dp4352
g62
(dp4353
sg71
g4347
sg64
(lp4354
g57
(g78
g59
NtRp4355
(dp4356
g62
(dp4357
sg71
g4351
sg64
(lp4358
g57
(g58
g59
NtRp4359
(dp4360
g62
(dp4361
g70
I2
ssg71
g4355
sg64
(lp4362
g57
(g66
g59
NtRp4363
(dp4364
g62
(dp4365
g70
I1
ssg71
Nsg64
(lp4366
g57
(g73
g59
NtRp4367
(dp4368
g62
(dp4369
sg71
g4363
sg64
(lp4370
g57
(g78
g59
NtRp4371
(dp4372
g62
(dp4373
sg71
g4367
sg64
(lp4374
g57
(g58
g59
NtRp4375
(dp4376
g62
(dp4377
g70
I1
ssg71
g4371
sg64
(lp4378
g4232
(S's\x08\x00\x00\x00My Sites'
tRp4379
asbasbasbag57
(g73
g59
NtRp4380
(dp4381
g62
(dp4382
sg71
g4363
sg64
(lp4383
g57
(g78
g59
NtRp4384
(dp4385
g62
(dp4386
sg71
g4380
sg64
(lp4387
g57
(g58
g59
NtRp4388
(dp4389
g62
(dp4390
g70
I1
ssg71
g4384
sg64
(lp4391
I00
asbasbasbag57
(g73
g59
NtRp4392
(dp4393
g62
(dp4394
sg71
g4363
sg64
(lp4395
g57
(g78
g59
NtRp4396
(dp4397
g62
(dp4398
sg71
g4392
sg64
(lp4399
g57
(g58
g59
NtRp4400
(dp4401
g62
(dp4402
g70
I1
ssg71
g4396
sg64
(lp4403
S'/admin/default/site'
p4404
asbasbasbasbasbasbasbag57
(g73
g59
NtRp4405
(dp4406
g62
(dp4407
sg71
g4347
sg64
(lp4408
g57
(g78
g59
NtRp4409
(dp4410
g62
(dp4411
sg71
g4405
sg64
(lp4412
g57
(g58
g59
NtRp4413
(dp4414
g62
(dp4415
g70
I2
ssg71
g4409
sg64
(lp4416
g57
(g66
g59
NtRp4417
(dp4418
g62
(dp4419
g70
I1
ssg71
Nsg64
(lp4420
g57
(g73
g59
NtRp4421
(dp4422
g62
(dp4423
sg71
g4417
sg64
(lp4424
g57
(g78
g59
NtRp4425
(dp4426
g62
(dp4427
sg71
g4421
sg64
(lp4428
g57
(g58
g59
NtRp4429
(dp4430
g62
(dp4431
g70
I1
ssg71
g4425
sg64
(lp4432
g4232
(S's\x08\x00\x00\x00This App'
tRp4433
asbasbasbag57
(g73
g59
NtRp4434
(dp4435
g62
(dp4436
sg71
g4417
sg64
(lp4437
g57
(g78
g59
NtRp4438
(dp4439
g62
(dp4440
sg71
g4434
sg64
(lp4441
g57
(g58
g59
NtRp4442
(dp4443
g62
(dp4444
g70
I1
ssg71
g4438
sg64
(lp4445
I00
asbasbasbag57
(g73
g59
NtRp4446
(dp4447
g62
(dp4448
sg71
g4417
sg64
(lp4449
g57
(g78
g59
NtRp4450
(dp4451
g62
(dp4452
sg71
g4446
sg64
(lp4453
g57
(g58
g59
NtRp4454
(dp4455
g62
(dp4456
g70
I1
ssg71
g4450
sg64
(lp4457
S'/admin/default/design/music'
p4458
asbasbasbag57
(g73
g59
NtRp4459
(dp4460
g62
(dp4461
sg71
g4417
sg64
(lp4462
g57
(g78
g59
NtRp4463
(dp4464
g62
(dp4465
sg71
g4459
sg64
(lp4466
g57
(g58
g59
NtRp4467
(dp4468
g62
(dp4469
g70
I1
ssg71
g4463
sg64
(lp4470
(lp4471
(g4232
(S's\n\x00\x00\x00Controller'
tRp4472
I00
S'/admin/default/edit/music/controllers/default.py'
tp4473
a(g4232
(S's\x04\x00\x00\x00View'
tRp4474
I00
S'/admin/default/edit/music/views/default/playlist.html'
tp4475
a(g4232
(S's\x06\x00\x00\x00Layout'
tRp4476
I00
S'/admin/default/edit/music/views/layout.html'
tp4477
a(g4232
(S's\n\x00\x00\x00Stylesheet'
tRp4478
I00
S'/admin/default/edit/music/static/css/web2py.css'
tp4479
a(g4232
(S's\x08\x00\x00\x00DB Model'
tRp4480
I00
S'/admin/default/edit/music/models/db.py'
tp4481
a(g4232
(S's\n\x00\x00\x00Menu Model'
tRp4482
I00
S'/admin/default/edit/music/models/menu.py'
tp4483
a(g4232
(S's\x08\x00\x00\x00Database'
tRp4484
I00
S'/music/appadmin/index'
tp4485
a(g4232
(S's\x06\x00\x00\x00Errors'
tRp4486
I00
S'/admin/default/errors/music'
tp4487
a(g4232
(S's\x05\x00\x00\x00About'
tRp4488
I00
S'/admin/default/about/music'
tp4489
aasbasbasbasbasbasbasbag57
(g73
g59
NtRp4490
(dp4491
g62
(dp4492
sg71
g4347
sg64
(lp4493
g57
(g78
g59
NtRp4494
(dp4495
g62
(dp4496
sg71
g4490
sg64
(lp4497
g57
(g58
g59
NtRp4498
(dp4499
g62
(dp4500
g70
I2
ssg71
g4494
sg64
(lp4501
g57
(g66
g59
NtRp4502
(dp4503
g62
(dp4504
g70
I1
ssg71
Nsg64
(lp4505
g57
(g73
g59
NtRp4506
(dp4507
g62
(dp4508
sg71
g4502
sg64
(lp4509
g57
(g78
g59
NtRp4510
(dp4511
g62
(dp4512
sg71
g4506
sg64
(lp4513
g57
(g58
g59
NtRp4514
(dp4515
g62
(dp4516
g70
I1
ssg71
g4510
sg64
(lp4517
S'web2py.com'
p4518
asbasbasbag57
(g73
g59
NtRp4519
(dp4520
g62
(dp4521
sg71
g4502
sg64
(lp4522
g57
(g78
g59
NtRp4523
(dp4524
g62
(dp4525
sg71
g4519
sg64
(lp4526
g57
(g58
g59
NtRp4527
(dp4528
g62
(dp4529
g70
I1
ssg71
g4523
sg64
(lp4530
I00
asbasbasbag57
(g73
g59
NtRp4531
(dp4532
g62
(dp4533
sg71
g4502
sg64
(lp4534
g57
(g78
g59
NtRp4535
(dp4536
g62
(dp4537
sg71
g4531
sg64
(lp4538
g57
(g58
g59
NtRp4539
(dp4540
g62
(dp4541
g70
I1
ssg71
g4535
sg64
(lp4542
S'http://www.web2py.com'
p4543
asbasbasbag57
(g73
g59
NtRp4544
(dp4545
g62
(dp4546
sg71
g4502
sg64
(lp4547
g57
(g78
g59
NtRp4548
(dp4549
g62
(dp4550
sg71
g4544
sg64
(lp4551
g57
(g58
g59
NtRp4552
(dp4553
g62
(dp4554
g70
I1
ssg71
g4548
sg64
(lp4555
(lp4556
(g4232
(S's\x08\x00\x00\x00Download'
tRp4557
I00
S'http://www.web2py.com/examples/default/download'
p4558
tp4559
a(g4232
(S's\x07\x00\x00\x00Support'
tRp4560
I00
S'http://www.web2py.com/examples/default/support'
p4561
tp4562
a(g4232
(S's\x04\x00\x00\x00Demo'
tRp4563
I00
S'http://web2py.com/demo_admin'
p4564
tp4565
a(g4232
(S's\x0e\x00\x00\x00Quick Examples'
tRp4566
I00
S'http://web2py.com/examples/default/examples'
p4567
tp4568
a(g4232
(S's\x03\x00\x00\x00FAQ'
tRp4569
I00
S'http://web2py.com/AlterEgo'
p4570
tp4571
a(g4232
(S's\x06\x00\x00\x00Videos'
tRp4572
I00
S'http://www.web2py.com/examples/default/videos/'
p4573
tp4574
a(g4232
(S's\x11\x00\x00\x00Free Applications'
tRp4575
I00
S'http://web2py.com/appliances'
p4576
tp4577
a(g4232
(S's\x07\x00\x00\x00Plugins'
tRp4578
I00
S'http://web2py.com/plugins'
p4579
tp4580
a(g4232
(S's\x07\x00\x00\x00Layouts'
tRp4581
I00
S'http://web2py.com/layouts'
p4582
tp4583
a(g4232
(S's\x07\x00\x00\x00Recipes'
tRp4584
I00
S'http://web2pyslices.com/'
p4585
tp4586
a(g4232
(S's\x08\x00\x00\x00Semantic'
tRp4587
I00
S'http://web2py.com/semantic'
p4588
tp4589
aasbasbasbasbasbasbasbag57
(g73
g59
NtRp4590
(dp4591
g62
(dp4592
sg71
g4347
sg64
(lp4593
g57
(g78
g59
NtRp4594
(dp4595
g62
(dp4596
sg71
g4590
sg64
(lp4597
g57
(g58
g59
NtRp4598
(dp4599
g62
(dp4600
g70
I2
ssg71
g4594
sg64
(lp4601
g57
(g66
g59
NtRp4602
(dp4603
g62
(dp4604
g70
I1
ssg71
Nsg64
(lp4605
g57
(g73
g59
NtRp4606
(dp4607
g62
(dp4608
sg71
g4602
sg64
(lp4609
g57
(g78
g59
NtRp4610
(dp4611
g62
(dp4612
sg71
g4606
sg64
(lp4613
g57
(g58
g59
NtRp4614
(dp4615
g62
(dp4616
g70
I1
ssg71
g4610
sg64
(lp4617
g4232
(S's\r\x00\x00\x00Documentation'
tRp4618
asbasbasbag57
(g73
g59
NtRp4619
(dp4620
g62
(dp4621
sg71
g4602
sg64
(lp4622
g57
(g78
g59
NtRp4623
(dp4624
g62
(dp4625
sg71
g4619
sg64
(lp4626
g57
(g58
g59
NtRp4627
(dp4628
g62
(dp4629
g70
I1
ssg71
g4623
sg64
(lp4630
I00
asbasbasbag57
(g73
g59
NtRp4631
(dp4632
g62
(dp4633
sg71
g4602
sg64
(lp4634
g57
(g78
g59
NtRp4635
(dp4636
g62
(dp4637
sg71
g4631
sg64
(lp4638
g57
(g58
g59
NtRp4639
(dp4640
g62
(dp4641
g70
I1
ssg71
g4635
sg64
(lp4642
S'http://www.web2py.com/book'
p4643
asbasbasbag57
(g73
g59
NtRp4644
(dp4645
g62
(dp4646
sg71
g4602
sg64
(lp4647
g57
(g78
g59
NtRp4648
(dp4649
g62
(dp4650
sg71
g4644
sg64
(lp4651
g57
(g58
g59
NtRp4652
(dp4653
g62
(dp4654
g70
I1
ssg71
g4648
sg64
(lp4655
(lp4656
(g4232
(S's\x07\x00\x00\x00Preface'
tRp4657
I00
S'http://www.web2py.com/book/default/chapter/00'
p4658
tp4659
a(g4232
(S's\x0c\x00\x00\x00Introduction'
tRp4660
I00
S'http://www.web2py.com/book/default/chapter/01'
p4661
tp4662
a(g4232
(S's\x06\x00\x00\x00Python'
tRp4663
I00
S'http://www.web2py.com/book/default/chapter/02'
p4664
tp4665
a(g4232
(S's\x08\x00\x00\x00Overview'
tRp4666
I00
S'http://www.web2py.com/book/default/chapter/03'
p4667
tp4668
a(g4232
(S's\x08\x00\x00\x00The Core'
tRp4669
I00
S'http://www.web2py.com/book/default/chapter/04'
p4670
tp4671
a(g4232
(S's\t\x00\x00\x00The Views'
tRp4672
I00
S'http://www.web2py.com/book/default/chapter/05'
p4673
tp4674
a(g4232
(S's\x08\x00\x00\x00Database'
tRp4675
I00
S'http://www.web2py.com/book/default/chapter/06'
p4676
tp4677
a(g4232
(S's\x14\x00\x00\x00Forms and Validators'
tRp4678
I00
S'http://www.web2py.com/book/default/chapter/07'
p4679
tp4680
a(g4232
(S's\r\x00\x00\x00Email and SMS'
tRp4681
I00
S'http://www.web2py.com/book/default/chapter/08'
p4682
tp4683
a(g4232
(S's\x0e\x00\x00\x00Access Control'
tRp4684
I00
S'http://www.web2py.com/book/default/chapter/09'
p4685
tp4686
a(g4232
(S's\x08\x00\x00\x00Services'
tRp4687
I00
S'http://www.web2py.com/book/default/chapter/10'
p4688
tp4689
a(g4232
(S's\x0c\x00\x00\x00Ajax Recipes'
tRp4690
I00
S'http://www.web2py.com/book/default/chapter/11'
p4691
tp4692
a(g4232
(S's\x16\x00\x00\x00Components and Plugins'
tRp4693
I00
S'http://www.web2py.com/book/default/chapter/12'
p4694
tp4695
a(g4232
(S's\x12\x00\x00\x00Deployment Recipes'
tRp4696
I00
S'http://www.web2py.com/book/default/chapter/13'
p4697
tp4698
a(g4232
(S's\r\x00\x00\x00Other Recipes'
tRp4699
I00
S'http://www.web2py.com/book/default/chapter/14'
p4700
tp4701
a(g4232
(S's\r\x00\x00\x00Buy this book'
tRp4702
I00
S'http://stores.lulu.com/web2py'
p4703
tp4704
aasbasbasbasbasbasbasbag57
(g73
g59
NtRp4705
(dp4706
g62
(dp4707
sg71
g4347
sg64
(lp4708
g57
(g78
g59
NtRp4709
(dp4710
g62
(dp4711
sg71
g4705
sg64
(lp4712
g57
(g58
g59
NtRp4713
(dp4714
g62
(dp4715
g70
I2
ssg71
g4709
sg64
(lp4716
g57
(g66
g59
NtRp4717
(dp4718
g62
(dp4719
g70
I1
ssg71
Nsg64
(lp4720
g57
(g73
g59
NtRp4721
(dp4722
g62
(dp4723
sg71
g4717
sg64
(lp4724
g57
(g78
g59
NtRp4725
(dp4726
g62
(dp4727
sg71
g4721
sg64
(lp4728
g57
(g58
g59
NtRp4729
(dp4730
g62
(dp4731
g70
I1
ssg71
g4725
sg64
(lp4732
g4232
(S's\t\x00\x00\x00Community'
tRp4733
asbasbasbag57
(g73
g59
NtRp4734
(dp4735
g62
(dp4736
sg71
g4717
sg64
(lp4737
g57
(g78
g59
NtRp4738
(dp4739
g62
(dp4740
sg71
g4734
sg64
(lp4741
g57
(g58
g59
NtRp4742
(dp4743
g62
(dp4744
g70
I1
ssg71
g4738
sg64
(lp4745
I00
asbasbasbag57
(g73
g59
NtRp4746
(dp4747
g62
(dp4748
sg71
g4717
sg64
(lp4749
g57
(g78
g59
NtRp4750
(dp4751
g62
(dp4752
sg71
g4746
sg64
(lp4753
g57
(g58
g59
NtRp4754
(dp4755
g62
(dp4756
g70
I1
ssg71
g4750
sg64
(lp4757
Nasbasbasbag57
(g73
g59
NtRp4758
(dp4759
g62
(dp4760
sg71
g4717
sg64
(lp4761
g57
(g78
g59
NtRp4762
(dp4763
g62
(dp4764
sg71
g4758
sg64
(lp4765
g57
(g58
g59
NtRp4766
(dp4767
g62
(dp4768
g70
I1
ssg71
g4762
sg64
(lp4769
(lp4770
(g4232
(S's\x06\x00\x00\x00Groups'
tRp4771
I00
S'http://www.web2py.com/examples/default/usergroups'
p4772
tp4773
a(g4232
(S's\x07\x00\x00\x00Twitter'
tRp4774
I00
S'http://twitter.com/web2py'
p4775
tp4776
a(g4232
(S's\t\x00\x00\x00Live Chat'
tRp4777
I00
S'http://webchat.freenode.net/?channels=web2py'
p4778
tp4779
aasbasbasbasbasbasbasbag57
(g73
g59
NtRp4780
(dp4781
g62
(dp4782
sg71
g4347
sg64
(lp4783
g57
(g78
g59
NtRp4784
(dp4785
g62
(dp4786
sg71
g4780
sg64
(lp4787
g57
(g58
g59
NtRp4788
(dp4789
g62
(dp4790
g70
I2
ssg71
g4784
sg64
(lp4791
g57
(g66
g59
NtRp4792
(dp4793
g62
(dp4794
g70
I1
ssg71
Nsg64
(lp4795
g57
(g73
g59
NtRp4796
(dp4797
g62
(dp4798
sg71
g4792
sg64
(lp4799
g57
(g78
g59
NtRp4800
(dp4801
g62
(dp4802
sg71
g4796
sg64
(lp4803
g57
(g58
g59
NtRp4804
(dp4805
g62
(dp4806
g70
I1
ssg71
g4800
sg64
(lp4807
g4232
(S's\x07\x00\x00\x00Plugins'
tRp4808
asbasbasbag57
(g73
g59
NtRp4809
(dp4810
g62
(dp4811
sg71
g4792
sg64
(lp4812
g57
(g78
g59
NtRp4813
(dp4814
g62
(dp4815
sg71
g4809
sg64
(lp4816
g57
(g58
g59
NtRp4817
(dp4818
g62
(dp4819
g70
I1
ssg71
g4813
sg64
(lp4820
I00
asbasbasbag57
(g73
g59
NtRp4821
(dp4822
g62
(dp4823
sg71
g4792
sg64
(lp4824
g57
(g78
g59
NtRp4825
(dp4826
g62
(dp4827
sg71
g4821
sg64
(lp4828
g57
(g58
g59
NtRp4829
(dp4830
g62
(dp4831
g70
I1
ssg71
g4825
sg64
(lp4832
Nasbasbasbag57
(g73
g59
NtRp4833
(dp4834
g62
(dp4835
sg71
g4792
sg64
(lp4836
g57
(g78
g59
NtRp4837
(dp4838
g62
(dp4839
sg71
g4833
sg64
(lp4840
g57
(g58
g59
NtRp4841
(dp4842
g62
(dp4843
g70
I1
ssg71
g4837
sg64
(lp4844
(lp4845
(S'plugin_wiki'
p4846
I00
S'http://web2py.com/examples/default/download'
p4847
tp4848
a(g4232
(S's\r\x00\x00\x00Other Plugins'
tRp4849
I00
g4579
tp4850
a(g4232
(S's\x0e\x00\x00\x00Layout Plugins'
tRp4851
I00
g4582
tp4852
aasbasbasbasbasbasbasbasbasbasbasbasbasbasbasbasbasbasbasbag57
(g73
g59
NtRp4853
(dp4854
g62
(dp4855
sg71
g3742
sg64
(lp4856
g57
(g78
g59
NtRp4857
(dp4858
g62
(dp4859
g82
g83
ssg71
g4853
sg64
(lp4860
S'meta'
p4861
asbag57
(g78
g59
NtRp4862
(dp4863
g62
(dp4864
g89
g90
ssg71
g4853
sg64
(lp4865
S':'
asbag57
(g78
g59
NtRp4866
(dp4867
g62
(dp4868
sg71
g4853
sg64
(lp4869
g57
(g58
g59
NtRp4870
(dp4871
g62
(dp4872
g70
I5
ssg71
g4866
sg64
(lp4873
g57
(g66
g59
NtRp4874
(dp4875
g62
(dp4876
g70
I4
ssg71
Nsg64
(lp4877
g57
(g73
g59
NtRp4878
(dp4879
g62
(dp4880
sg71
g4874
sg64
(lp4881
g57
(g78
g59
NtRp4882
(dp4883
g62
(dp4884
g82
g83
ssg71
g4878
sg64
(lp4885
S'author'
p4886
asbag57
(g78
g59
NtRp4887
(dp4888
g62
(dp4889
g89
g90
ssg71
g4878
sg64
(lp4890
S':'
asbag57
(g78
g59
NtRp4891
(dp4892
g62
(dp4893
sg71
g4878
sg64
(lp4894
g57
(g58
g59
NtRp4895
(dp4896
g62
(dp4897
g70
I4
ssg71
g4891
sg64
(lp4898
S'Your Name <you@example.com>'
p4899
asbasbasbag57
(g73
g59
NtRp4900
(dp4901
g62
(dp4902
sg71
g4874
sg64
(lp4903
g57
(g78
g59
NtRp4904
(dp4905
g62
(dp4906
g82
g83
ssg71
g4900
sg64
(lp4907
S'description'
p4908
asbag57
(g78
g59
NtRp4909
(dp4910
g62
(dp4911
g89
g90
ssg71
g4900
sg64
(lp4912
S':'
asbag57
(g78
g59
NtRp4913
(dp4914
g62
(dp4915
sg71
g4900
sg64
(lp4916
g57
(g58
g59
NtRp4917
(dp4918
g62
(dp4919
g70
I4
ssg71
g4913
sg64
(lp4920
S'a cool new app'
p4921
asbasbasbag57
(g73
g59
NtRp4922
(dp4923
g62
(dp4924
sg71
g4874
sg64
(lp4925
g57
(g78
g59
NtRp4926
(dp4927
g62
(dp4928
g82
g83
ssg71
g4922
sg64
(lp4929
S'generator'
p4930
asbag57
(g78
g59
NtRp4931
(dp4932
g62
(dp4933
g89
g90
ssg71
g4922
sg64
(lp4934
S':'
asbag57
(g78
g59
NtRp4935
(dp4936
g62
(dp4937
sg71
g4922
sg64
(lp4938
g57
(g58
g59
NtRp4939
(dp4940
g62
(dp4941
g70
I4
ssg71
g4935
sg64
(lp4942
S'Web2py Web Framework'
p4943
asbasbasbag57
(g73
g59
NtRp4944
(dp4945
g62
(dp4946
sg71
g4874
sg64
(lp4947
g57
(g78
g59
NtRp4948
(dp4949
g62
(dp4950
g82
g83
ssg71
g4944
sg64
(lp4951
S'keywords'
p4952
asbag57
(g78
g59
NtRp4953
(dp4954
g62
(dp4955
g89
g90
ssg71
g4944
sg64
(lp4956
S':'
asbag57
(g78
g59
NtRp4957
(dp4958
g62
(dp4959
sg71
g4944
sg64
(lp4960
g57
(g58
g59
NtRp4961
(dp4962
g62
(dp4963
g70
I4
ssg71
g4957
sg64
(lp4964
S'web2py, python, framework'
p4965
asbasbasbasbasbasbasbag57
(g73
g59
NtRp4966
(dp4967
g62
(dp4968
sg71
g3742
sg64
(lp4969
g57
(g78
g59
NtRp4970
(dp4971
g62
(dp4972
g82
g83
ssg71
g4966
sg64
(lp4973
S'models_to_run'
p4974
asbag57
(g78
g59
NtRp4975
(dp4976
g62
(dp4977
g89
g90
ssg71
g4966
sg64
(lp4978
S':'
asbag57
(g78
g59
NtRp4979
(dp4980
g62
(dp4981
sg71
g4966
sg64
(lp4982
g57
(g58
g59
NtRp4983
(dp4984
g62
(dp4985
g70
I5
ssg71
g4979
sg64
(lp4986
g57
(g66
g59
NtRp4987
(dp4988
g62
(dp4989
g70
I4
ssg71
Nsg64
(lp4990
g57
(g73
g59
NtRp4991
(dp4992
g62
(dp4993
sg71
g4987
sg64
(lp4994
g57
(g78
g59
NtRp4995
(dp4996
g62
(dp4997
sg71
g4991
sg64
(lp4998
g57
(g58
g59
NtRp4999
(dp5000
g62
(dp5001
g70
I4
ssg71
g4995
sg64
(lp5002
S'^\\w+\\.py$'
p5003
asbasbasbag57
(g73
g59
NtRp5004
(dp5005
g62
(dp5006
sg71
g4987
sg64
(lp5007
g57
(g78
g59
NtRp5008
(dp5009
g62
(dp5010
sg71
g5004
sg64
(lp5011
g57
(g58
g59
NtRp5012
(dp5013
g62
(dp5014
g70
I4
ssg71
g5008
sg64
(lp5015
S'^default/\\w+\\.py$'
p5016
asbasbasbag57
(g73
g59
NtRp5017
(dp5018
g62
(dp5019
sg71
g4987
sg64
(lp5020
g57
(g78
g59
NtRp5021
(dp5022
g62
(dp5023
sg71
g5017
sg64
(lp5024
g57
(g58
g59
NtRp5025
(dp5026
g62
(dp5027
g70
I4
ssg71
g5021
sg64
(lp5028
S'^default/playlist/\\w+\\.py$'
p5029
asbasbasbasbasbasbasbag57
(g73
g59
NtRp5030
(dp5031
g62
(dp5032
sg71
g3742
sg64
(lp5033
g57
(g78
g59
NtRp5034
(dp5035
g62
(dp5036
g82
g83
ssg71
g5030
sg64
(lp5037
S'postprocessing'
p5038
asbag57
(g78
g59
NtRp5039
(dp5040
g62
(dp5041
g89
g90
ssg71
g5030
sg64
(lp5042
S':'
asbag57
(g78
g59
NtRp5043
(dp5044
g62
(dp5045
sg71
g5030
sg64
(lp5046
g57
(g58
g59
NtRp5047
(dp5048
g62
(dp5049
g70
I5
ssg71
g5043
sg64
(lp5050
g57
(g66
g59
NtRp5051
(dp5052
g62
(dp5053
g70
I4
ssg71
Nsg64
(lp5054
sbasbasbasbag57
(g73
g59
NtRp5055
(dp5056
g62
(dp5057
sg71
g3742
sg64
(lp5058
g57
(g78
g59
NtRp5059
(dp5060
g62
(dp5061
g82
g83
ssg71
g5055
sg64
(lp5062
S'session_cookie_expires'
p5063
asbag57
(g78
g59
NtRp5064
(dp5065
g62
(dp5066
g89
g90
ssg71
g5055
sg64
(lp5067
S':'
asbag57
(g78
g59
NtRp5068
(dp5069
g62
(dp5070
sg71
g5055
sg64
(lp5071
g57
(g58
g59
NtRp5072
(dp5073
g62
(dp5074
g70
I5
ssg71
g5068
sg64
(lp5075
S'None'
p5076
asbasbasbag57
(g73
g59
NtRp5077
(dp5078
g62
(dp5079
sg71
g3742
sg64
(lp5080
g57
(g78
g59
NtRp5081
(dp5082
g62
(dp5083
g82
g83
ssg71
g5077
sg64
(lp5084
S'session_data_name'
p5085
asbag57
(g78
g59
NtRp5086
(dp5087
g62
(dp5088
g89
g90
ssg71
g5077
sg64
(lp5089
S':'
asbag57
(g78
g59
NtRp5090
(dp5091
g62
(dp5092
sg71
g5077
sg64
(lp5093
g57
(g58
g59
NtRp5094
(dp5095
g62
(dp5096
g70
I5
ssg71
g5090
sg64
(lp5097
S'session_data_music'
p5098
asbasbasbag57
(g73
g59
NtRp5099
(dp5100
g62
(dp5101
sg71
g3742
sg64
(lp5102
g57
(g78
g59
NtRp5103
(dp5104
g62
(dp5105
g82
g83
ssg71
g5099
sg64
(lp5106
S'session_file'
p5107
asbag57
(g78
g59
NtRp5108
(dp5109
g62
(dp5110
g89
g90
ssg71
g5099
sg64
(lp5111
S':'
asbag57
(g78
g59
NtRp5112
(dp5113
g62
(dp5114
sg71
g5099
sg64
(lp5115
g57
(g58
g59
NtRp5116
(dp5117
g62
(dp5118
g70
I5
ssg71
g5112
sg64
(lp5119
S"<open file '/home/wionel/Desktop/web2py/applications/music/sessions/127.0.0.1-adc6eb33-f19b-4659-bd7d-4019f40bbf7e', mode 'rb+' at 0x7f80ec5224b0>"
p5120
asbasbasbag57
(g73
g59
NtRp5121
(dp5122
g62
(dp5123
sg71
g3742
sg64
(lp5124
g57
(g78
g59
NtRp5125
(dp5126
g62
(dp5127
g82
g83
ssg71
g5121
sg64
(lp5128
S'session_filename'
p5129
asbag57
(g78
g59
NtRp5130
(dp5131
g62
(dp5132
g89
g90
ssg71
g5121
sg64
(lp5133
S':'
asbag57
(g78
g59
NtRp5134
(dp5135
g62
(dp5136
sg71
g5121
sg64
(lp5137
g57
(g58
g59
NtRp5138
(dp5139
g62
(dp5140
g70
I5
ssg71
g5134
sg64
(lp5141
S'/home/wionel/Desktop/web2py/applications/music/sessions/127.0.0.1-adc6eb33-f19b-4659-bd7d-4019f40bbf7e'
p5142
asbasbasbag57
(g73
g59
NtRp5143
(dp5144
g62
(dp5145
sg71
g3742
sg64
(lp5146
g57
(g78
g59
NtRp5147
(dp5148
g62
(dp5149
g82
g83
ssg71
g5143
sg64
(lp5150
S'session_id'
p5151
asbag57
(g78
g59
NtRp5152
(dp5153
g62
(dp5154
g89
g90
ssg71
g5143
sg64
(lp5155
S':'
asbag57
(g78
g59
NtRp5156
(dp5157
g62
(dp5158
sg71
g5143
sg64
(lp5159
g57
(g58
g59
NtRp5160
(dp5161
g62
(dp5162
g70
I5
ssg71
g5156
sg64
(lp5163
g475
asbasbasbag57
(g73
g59
NtRp5164
(dp5165
g62
(dp5166
sg71
g3742
sg64
(lp5167
g57
(g78
g59
NtRp5168
(dp5169
g62
(dp5170
g82
g83
ssg71
g5164
sg64
(lp5171
S'session_id_name'
p5172
asbag57
(g78
g59
NtRp5173
(dp5174
g62
(dp5175
g89
g90
ssg71
g5164
sg64
(lp5176
S':'
asbag57
(g78
g59
NtRp5177
(dp5178
g62
(dp5179
sg71
g5164
sg64
(lp5180
g57
(g58
g59
NtRp5181
(dp5182
g62
(dp5183
g70
I5
ssg71
g5177
sg64
(lp5184
g3799
asbasbasbag57
(g73
g59
NtRp5185
(dp5186
g62
(dp5187
sg71
g3742
sg64
(lp5188
g57
(g78
g59
NtRp5189
(dp5190
g62
(dp5191
g82
g83
ssg71
g5185
sg64
(lp5192
S'session_locked'
p5193
asbag57
(g78
g59
NtRp5194
(dp5195
g62
(dp5196
g89
g90
ssg71
g5185
sg64
(lp5197
S':'
asbag57
(g78
g59
NtRp5198
(dp5199
g62
(dp5200
sg71
g5185
sg64
(lp5201
g57
(g58
g59
NtRp5202
(dp5203
g62
(dp5204
g70
I5
ssg71
g5198
sg64
(lp5205
g1812
asbasbasbag57
(g73
g59
NtRp5206
(dp5207
g62
(dp5208
sg71
g3742
sg64
(lp5209
g57
(g78
g59
NtRp5210
(dp5211
g62
(dp5212
g82
g83
ssg71
g5206
sg64
(lp5213
S'session_new'
p5214
asbag57
(g78
g59
NtRp5215
(dp5216
g62
(dp5217
g89
g90
ssg71
g5206
sg64
(lp5218
S':'
asbag57
(g78
g59
NtRp5219
(dp5220
g62
(dp5221
sg71
g5206
sg64
(lp5222
g57
(g58
g59
NtRp5223
(dp5224
g62
(dp5225
g70
I5
ssg71
g5219
sg64
(lp5226
g100
asbasbasbag57
(g73
g59
NtRp5227
(dp5228
g62
(dp5229
sg71
g3742
sg64
(lp5230
g57
(g78
g59
NtRp5231
(dp5232
g62
(dp5233
g82
g83
ssg71
g5227
sg64
(lp5234
S'session_storage_type'
p5235
asbag57
(g78
g59
NtRp5236
(dp5237
g62
(dp5238
g89
g90
ssg71
g5227
sg64
(lp5239
S':'
asbag57
(g78
g59
NtRp5240
(dp5241
g62
(dp5242
sg71
g5227
sg64
(lp5243
g57
(g58
g59
NtRp5244
(dp5245
g62
(dp5246
g70
I5
ssg71
g5240
sg64
(lp5247
g3285
asbasbasbag57
(g73
g59
NtRp5248
(dp5249
g62
(dp5250
sg71
g3742
sg64
(lp5251
g57
(g78
g59
NtRp5252
(dp5253
g62
(dp5254
g82
g83
ssg71
g5248
sg64
(lp5255
S'status'
p5256
asbag57
(g78
g59
NtRp5257
(dp5258
g62
(dp5259
g89
g90
ssg71
g5248
sg64
(lp5260
S':'
asbag57
(g78
g59
NtRp5261
(dp5262
g62
(dp5263
sg71
g5248
sg64
(lp5264
g57
(g58
g59
NtRp5265
(dp5266
g62
(dp5267
g70
I5
ssg71
g5261
sg64
(lp5268
S'200'
p5269
asbasbasbag57
(g73
g59
NtRp5270
(dp5271
g62
(dp5272
sg71
g3742
sg64
(lp5273
g57
(g78
g59
NtRp5274
(dp5275
g62
(dp5276
g82
g83
ssg71
g5270
sg64
(lp5277
S'subtitle'
p5278
asbag57
(g78
g59
NtRp5279
(dp5280
g62
(dp5281
g89
g90
ssg71
g5270
sg64
(lp5282
S':'
asbag57
(g78
g59
NtRp5283
(dp5284
g62
(dp5285
sg71
g5270
sg64
(lp5286
g57
(g58
g59
NtRp5287
(dp5288
g62
(dp5289
g70
I5
ssg71
g5283
sg64
(lp5290
g4232
(S's\r\x00\x00\x00customize me!'
tRp5291
asbasbasbag57
(g73
g59
NtRp5292
(dp5293
g62
(dp5294
sg71
g3742
sg64
(lp5295
g57
(g78
g59
NtRp5296
(dp5297
g62
(dp5298
g82
g83
ssg71
g5292
sg64
(lp5299
S'title'
p5300
asbag57
(g78
g59
NtRp5301
(dp5302
g62
(dp5303
g89
g90
ssg71
g5292
sg64
(lp5304
S':'
asbag57
(g78
g59
NtRp5305
(dp5306
g62
(dp5307
sg71
g5292
sg64
(lp5308
g57
(g58
g59
NtRp5309
(dp5310
g62
(dp5311
g70
I5
ssg71
g5305
sg64
(lp5312
S'Music'
p5313
asbasbasbag57
(g73
g59
NtRp5314
(dp5315
g62
(dp5316
sg71
g3742
sg64
(lp5317
g57
(g78
g59
NtRp5318
(dp5319
g62
(dp5320
g82
g83
ssg71
g5314
sg64
(lp5321
S'view'
p5322
asbag57
(g78
g59
NtRp5323
(dp5324
g62
(dp5325
g89
g90
ssg71
g5314
sg64
(lp5326
S':'
asbag57
(g78
g59
NtRp5327
(dp5328
g62
(dp5329
sg71
g5314
sg64
(lp5330
g57
(g58
g59
NtRp5331
(dp5332
g62
(dp5333
g70
I5
ssg71
g5327
sg64
(lp5334
S'default/playlist.html'
p5335
asbasbasbasbasbsS'locals'
p5336
(dp5337
S'p_songs'
p5338
S'<Rows (8)>'
p5339
sS'message'
p5340
S"<lazyT 'Wel-Come To IIIT Music Store !!'>"
p5341
sS'id'
p5342
S'1'
sS'row'
p5343
S"<Row {'user_id': 1, 'name': 'rohan list', 'id': 9, 'songlist': '5,3,1'}>"
p5344
sssS'traceback'
p5345
S'Traceback (most recent call last):\n  File "/home/wionel/Desktop/web2py/gluon/restricted.py", line 212, in restricted\n    exec ccode in environment\n  File "/home/wionel/Desktop/web2py/applications/music/controllers/default.py", line 127, in <module>\n  File "/home/wionel/Desktop/web2py/gluon/globals.py", line 188, in <lambda>\n    self._caller = lambda f: f()\n  File "/home/wionel/Desktop/web2py/applications/music/controllers/default.py", line 54, in playlist\n    return dict(title="Edit Playlist",message=message,isloggedin=\'true\',songs=songs,p_songs=p_songs)\nNameError: global name \'songs\' is not defined\n'
p5346
s.